
Optional file libmchp_peripheral.a not found

Optional file libmchp_peripheral_32MX795F512H.a not found
Archive member included to satisfy reference by file (symbol)

/opt/microchip/xc32/v4.60/bin/bin/../../lib/gcc/pic32mx/8.3.1/libgcc.a(_udivdi3.o)
                              build/default/production/_ext/1033058136/tcpip_manager.o (__udivdi3)
/opt/microchip/xc32/v4.60/bin/bin/../../lib/gcc/pic32mx/8.3.1/../../../../pic32mx/lib/libpic32.a(default-on-reset.o)
                              /tmp/ccncmXzQ.o (_on_reset)
/opt/microchip/xc32/v4.60/bin/bin/../../lib/gcc/pic32mx/8.3.1/../../../../pic32mx/lib/libpic32.a(default-on-bootstrap.o)
                              /tmp/ccncmXzQ.o (_on_bootstrap)
/opt/microchip/xc32/v4.60/bin/bin/../../lib/gcc/pic32mx/8.3.1/../../../../pic32mx/lib/libpic32.a(default-nmi-handler.o)
                              /tmp/ccncmXzQ.o (_nmi_handler)
/opt/microchip/xc32/v4.60/bin/bin/../../lib/gcc/pic32mx/8.3.1/../../../../pic32mx/lib/libpic32.a(errno.o)
                              build/default/production/_ext/1033058136/tcpip_helpers.o (errno)
/opt/microchip/xc32/v4.60/bin/bin/../../lib/gcc/pic32mx/8.3.1/../../../../pic32mx/lib/libpic32.a(pic32_data_init_core.o)
                              /tmp/ccncmXzQ.o (__pic32_data_init)
/opt/microchip/xc32/v4.60/bin/bin/../../lib/gcc/pic32mx/8.3.1/../../../../pic32mx/lib/libpic32.a(general-exception.o)
                              /tmp/ccncmXzQ.o (_general_exception_context)
/opt/microchip/xc32/v4.60/bin/bin/../../lib/gcc/pic32mx/8.3.1/../../../../pic32mx/lib/libpic32.a(vector2.o)
                              /tmp/ccG3yx4C.o (__vector_dispatch_2)
/opt/microchip/xc32/v4.60/bin/bin/../../lib/gcc/pic32mx/8.3.1/../../../../pic32mx/lib/libpic32.a(vector3.o)
                              /tmp/ccG3yx4C.o (__vector_dispatch_3)
/opt/microchip/xc32/v4.60/bin/bin/../../lib/gcc/pic32mx/8.3.1/../../../../pic32mx/lib/libpic32.a(vector5.o)
                              /tmp/ccG3yx4C.o (__vector_dispatch_5)
/opt/microchip/xc32/v4.60/bin/bin/../../lib/gcc/pic32mx/8.3.1/../../../../pic32mx/lib/libpic32.a(vector6.o)
                              /tmp/ccG3yx4C.o (__vector_dispatch_6)
/opt/microchip/xc32/v4.60/bin/bin/../../lib/gcc/pic32mx/8.3.1/../../../../pic32mx/lib/libpic32.a(vector7.o)
                              /tmp/ccG3yx4C.o (__vector_dispatch_7)
/opt/microchip/xc32/v4.60/bin/bin/../../lib/gcc/pic32mx/8.3.1/../../../../pic32mx/lib/libpic32.a(vector8.o)
                              /tmp/ccG3yx4C.o (__vector_dispatch_8)
/opt/microchip/xc32/v4.60/bin/bin/../../lib/gcc/pic32mx/8.3.1/../../../../pic32mx/lib/libpic32.a(vector9.o)
                              /tmp/ccG3yx4C.o (__vector_dispatch_9)
/opt/microchip/xc32/v4.60/bin/bin/../../lib/gcc/pic32mx/8.3.1/../../../../pic32mx/lib/libpic32.a(vector10.o)
                              /tmp/ccG3yx4C.o (__vector_dispatch_10)
/opt/microchip/xc32/v4.60/bin/bin/../../lib/gcc/pic32mx/8.3.1/../../../../pic32mx/lib/libpic32.a(vector11.o)
                              /tmp/ccG3yx4C.o (__vector_dispatch_11)
/opt/microchip/xc32/v4.60/bin/bin/../../lib/gcc/pic32mx/8.3.1/../../../../pic32mx/lib/libpic32.a(vector12.o)
                              /tmp/ccG3yx4C.o (__vector_dispatch_12)
/opt/microchip/xc32/v4.60/bin/bin/../../lib/gcc/pic32mx/8.3.1/../../../../pic32mx/lib/libpic32.a(vector13.o)
                              /tmp/ccG3yx4C.o (__vector_dispatch_13)
/opt/microchip/xc32/v4.60/bin/bin/../../lib/gcc/pic32mx/8.3.1/../../../../pic32mx/lib/libpic32.a(vector14.o)
                              /tmp/ccG3yx4C.o (__vector_dispatch_14)
/opt/microchip/xc32/v4.60/bin/bin/../../lib/gcc/pic32mx/8.3.1/../../../../pic32mx/lib/libpic32.a(vector15.o)
                              /tmp/ccG3yx4C.o (__vector_dispatch_15)
/opt/microchip/xc32/v4.60/bin/bin/../../lib/gcc/pic32mx/8.3.1/../../../../pic32mx/lib/libpic32.a(vector16.o)
                              /tmp/ccG3yx4C.o (__vector_dispatch_16)
/opt/microchip/xc32/v4.60/bin/bin/../../lib/gcc/pic32mx/8.3.1/../../../../pic32mx/lib/libpic32.a(vector17.o)
                              /tmp/ccG3yx4C.o (__vector_dispatch_17)
/opt/microchip/xc32/v4.60/bin/bin/../../lib/gcc/pic32mx/8.3.1/../../../../pic32mx/lib/libpic32.a(vector18.o)
                              /tmp/ccG3yx4C.o (__vector_dispatch_18)
/opt/microchip/xc32/v4.60/bin/bin/../../lib/gcc/pic32mx/8.3.1/../../../../pic32mx/lib/libpic32.a(vector19.o)
                              /tmp/ccG3yx4C.o (__vector_dispatch_19)
/opt/microchip/xc32/v4.60/bin/bin/../../lib/gcc/pic32mx/8.3.1/../../../../pic32mx/lib/libpic32.a(vector20.o)
                              /tmp/ccG3yx4C.o (__vector_dispatch_20)
/opt/microchip/xc32/v4.60/bin/bin/../../lib/gcc/pic32mx/8.3.1/../../../../pic32mx/lib/libpic32.a(vector21.o)
                              /tmp/ccG3yx4C.o (__vector_dispatch_21)
/opt/microchip/xc32/v4.60/bin/bin/../../lib/gcc/pic32mx/8.3.1/../../../../pic32mx/lib/libpic32.a(vector22.o)
                              /tmp/ccG3yx4C.o (__vector_dispatch_22)
/opt/microchip/xc32/v4.60/bin/bin/../../lib/gcc/pic32mx/8.3.1/../../../../pic32mx/lib/libpic32.a(vector23.o)
                              /tmp/ccG3yx4C.o (__vector_dispatch_23)
/opt/microchip/xc32/v4.60/bin/bin/../../lib/gcc/pic32mx/8.3.1/../../../../pic32mx/lib/libpic32.a(vector24.o)
                              /tmp/ccG3yx4C.o (__vector_dispatch_24)
/opt/microchip/xc32/v4.60/bin/bin/../../lib/gcc/pic32mx/8.3.1/../../../../pic32mx/lib/libpic32.a(vector25.o)
                              /tmp/ccG3yx4C.o (__vector_dispatch_25)
/opt/microchip/xc32/v4.60/bin/bin/../../lib/gcc/pic32mx/8.3.1/../../../../pic32mx/lib/libpic32.a(vector26.o)
                              /tmp/ccG3yx4C.o (__vector_dispatch_26)
/opt/microchip/xc32/v4.60/bin/bin/../../lib/gcc/pic32mx/8.3.1/../../../../pic32mx/lib/libpic32.a(vector27.o)
                              /tmp/ccG3yx4C.o (__vector_dispatch_27)
/opt/microchip/xc32/v4.60/bin/bin/../../lib/gcc/pic32mx/8.3.1/../../../../pic32mx/lib/libpic32.a(vector28.o)
                              /tmp/ccG3yx4C.o (__vector_dispatch_28)
/opt/microchip/xc32/v4.60/bin/bin/../../lib/gcc/pic32mx/8.3.1/../../../../pic32mx/lib/libpic32.a(vector29.o)
                              /tmp/ccG3yx4C.o (__vector_dispatch_29)
/opt/microchip/xc32/v4.60/bin/bin/../../lib/gcc/pic32mx/8.3.1/../../../../pic32mx/lib/libpic32.a(vector30.o)
                              /tmp/ccG3yx4C.o (__vector_dispatch_30)
/opt/microchip/xc32/v4.60/bin/bin/../../lib/gcc/pic32mx/8.3.1/../../../../pic32mx/lib/libpic32.a(vector31.o)
                              /tmp/ccG3yx4C.o (__vector_dispatch_31)
/opt/microchip/xc32/v4.60/bin/bin/../../lib/gcc/pic32mx/8.3.1/../../../../pic32mx/lib/libpic32.a(vector33.o)
                              /tmp/ccG3yx4C.o (__vector_dispatch_33)
/opt/microchip/xc32/v4.60/bin/bin/../../lib/gcc/pic32mx/8.3.1/../../../../pic32mx/lib/libpic32.a(vector34.o)
                              /tmp/ccG3yx4C.o (__vector_dispatch_34)
/opt/microchip/xc32/v4.60/bin/bin/../../lib/gcc/pic32mx/8.3.1/../../../../pic32mx/lib/libpic32.a(vector35.o)
                              /tmp/ccG3yx4C.o (__vector_dispatch_35)
/opt/microchip/xc32/v4.60/bin/bin/../../lib/gcc/pic32mx/8.3.1/../../../../pic32mx/lib/libpic32.a(vector36.o)
                              /tmp/ccG3yx4C.o (__vector_dispatch_36)
/opt/microchip/xc32/v4.60/bin/bin/../../lib/gcc/pic32mx/8.3.1/../../../../pic32mx/lib/libpic32.a(vector37.o)
                              /tmp/ccG3yx4C.o (__vector_dispatch_37)
/opt/microchip/xc32/v4.60/bin/bin/../../lib/gcc/pic32mx/8.3.1/../../../../pic32mx/lib/libpic32.a(vector38.o)
                              /tmp/ccG3yx4C.o (__vector_dispatch_38)
/opt/microchip/xc32/v4.60/bin/bin/../../lib/gcc/pic32mx/8.3.1/../../../../pic32mx/lib/libpic32.a(vector39.o)
                              /tmp/ccG3yx4C.o (__vector_dispatch_39)
/opt/microchip/xc32/v4.60/bin/bin/../../lib/gcc/pic32mx/8.3.1/../../../../pic32mx/lib/libpic32.a(vector40.o)
                              /tmp/ccG3yx4C.o (__vector_dispatch_40)
/opt/microchip/xc32/v4.60/bin/bin/../../lib/gcc/pic32mx/8.3.1/../../../../pic32mx/lib/libpic32.a(vector41.o)
                              /tmp/ccG3yx4C.o (__vector_dispatch_41)
/opt/microchip/xc32/v4.60/bin/bin/../../lib/gcc/pic32mx/8.3.1/../../../../pic32mx/lib/libpic32.a(vector42.o)
                              /tmp/ccG3yx4C.o (__vector_dispatch_42)
/opt/microchip/xc32/v4.60/bin/bin/../../lib/gcc/pic32mx/8.3.1/../../../../pic32mx/lib/libpic32.a(vector43.o)
                              /tmp/ccG3yx4C.o (__vector_dispatch_43)
/opt/microchip/xc32/v4.60/bin/bin/../../lib/gcc/pic32mx/8.3.1/../../../../pic32mx/lib/libpic32.a(vector44.o)
                              /tmp/ccG3yx4C.o (__vector_dispatch_44)
/opt/microchip/xc32/v4.60/bin/bin/../../lib/gcc/pic32mx/8.3.1/../../../../pic32mx/lib/libpic32.a(vector45.o)
                              /tmp/ccG3yx4C.o (__vector_dispatch_45)
/opt/microchip/xc32/v4.60/bin/bin/../../lib/gcc/pic32mx/8.3.1/../../../../pic32mx/lib/libpic32.a(vector46.o)
                              /tmp/ccG3yx4C.o (__vector_dispatch_46)
/opt/microchip/xc32/v4.60/bin/bin/../../lib/gcc/pic32mx/8.3.1/../../../../pic32mx/lib/libpic32.a(vector47.o)
                              /tmp/ccG3yx4C.o (__vector_dispatch_47)
/opt/microchip/xc32/v4.60/bin/bin/../../lib/gcc/pic32mx/8.3.1/../../../../pic32mx/lib/libpic32.a(vector49.o)
                              /tmp/ccG3yx4C.o (__vector_dispatch_49)
/opt/microchip/xc32/v4.60/bin/bin/../../lib/gcc/pic32mx/8.3.1/../../../../pic32mx/lib/libpic32.a(vector50.o)
                              /tmp/ccG3yx4C.o (__vector_dispatch_50)
/opt/microchip/xc32/v4.60/bin/bin/../../lib/gcc/pic32mx/8.3.1/../../../../pic32mx/lib/libpic32.a(vector51.o)
                              /tmp/ccG3yx4C.o (__vector_dispatch_51)
/opt/microchip/xc32/v4.60/bin/bin/../../lib/gcc/pic32mx/8.3.1/../../../../pic32mx/lib/libpic32.a(defaultinterrupt.o)
                              /opt/microchip/xc32/v4.60/bin/bin/../../lib/gcc/pic32mx/8.3.1/../../../../pic32mx/lib/libpic32.a(vector2.o) (_DefaultInterrupt)
/opt/microchip/xc32/v4.60/bin/bin/../../lib/gcc/pic32mx/8.3.1/../../../../pic32mx/lib/libc-size-musl.a(memcmp.o)
                              build/default/production/_ext/732082881/drv_ethmac.o (memcmp)
/opt/microchip/xc32/v4.60/bin/bin/../../lib/gcc/pic32mx/8.3.1/../../../../pic32mx/lib/libc-size-musl.a(memcpy.o)
                              build/default/production/_ext/1033058136/dhcp.o (memcpy)
/opt/microchip/xc32/v4.60/bin/bin/../../lib/gcc/pic32mx/8.3.1/../../../../pic32mx/lib/libc-size-musl.a(memset.o)
                              build/default/production/_ext/732082881/drv_ethmac.o (memset)
/opt/microchip/xc32/v4.60/bin/bin/../../lib/gcc/pic32mx/8.3.1/../../../../pic32mx/lib/libc-size-musl.a(strlen.o)
                              build/default/production/_ext/1033058136/helpers.o (strlen)
/opt/microchip/xc32/v4.60/bin/bin/../../lib/gcc/pic32mx/8.3.1/../../../../pic32mx/lib/libc-size-musl.a(strchr.o)
                              build/default/production/_ext/1376093119/sys_command.o (strchr)
/opt/microchip/xc32/v4.60/bin/bin/../../lib/gcc/pic32mx/8.3.1/../../../../pic32mx/lib/libc-size-musl.a(strchrnul.o)
                              /opt/microchip/xc32/v4.60/bin/bin/../../lib/gcc/pic32mx/8.3.1/../../../../pic32mx/lib/libc-size-musl.a(strchr.o) (__strchrnul)
/opt/microchip/xc32/v4.60/bin/bin/../../lib/gcc/pic32mx/8.3.1/../../../../pic32mx/lib/libc-size-musl.a(strcmp.o)
                              build/default/production/_ext/1033058136/tcpip_commands.o (strcmp)
/opt/microchip/xc32/v4.60/bin/bin/../../lib/gcc/pic32mx/8.3.1/../../../../pic32mx/lib/libc-size-musl.a(strcpy.o)
                              build/default/production/_ext/1033058136/tcpip_helpers.o (strcpy)
/opt/microchip/xc32/v4.60/bin/bin/../../lib/gcc/pic32mx/8.3.1/../../../../pic32mx/lib/libc-size-musl.a(strncmp.o)
                              build/default/production/_ext/1376093119/sys_command.o (strncmp)
/opt/microchip/xc32/v4.60/bin/bin/../../lib/gcc/pic32mx/8.3.1/../../../../pic32mx/lib/libc-size-musl.a(strncpy.o)
                              build/default/production/_ext/732082881/drv_ethmac.o (strncpy)
/opt/microchip/xc32/v4.60/bin/bin/../../lib/gcc/pic32mx/8.3.1/../../../../pic32mx/lib/libc-size-musl.a(strrchr.o)
                              build/default/production/_ext/1033058136/tcpip_manager.o (strrchr)
/opt/microchip/xc32/v4.60/bin/bin/../../lib/gcc/pic32mx/8.3.1/../../../../pic32mx/lib/libc-size-musl.a(strtok.o)
                              build/default/production/_ext/1376093119/sys_command.o (strtok)
/opt/microchip/xc32/v4.60/bin/bin/../../lib/gcc/pic32mx/8.3.1/../../../../pic32mx/lib/libc-size-musl.a(memrchr.o)
                              /opt/microchip/xc32/v4.60/bin/bin/../../lib/gcc/pic32mx/8.3.1/../../../../pic32mx/lib/libc-size-musl.a(strrchr.o) (__memrchr)
/opt/microchip/xc32/v4.60/bin/bin/../../lib/gcc/pic32mx/8.3.1/../../../../pic32mx/lib/libc-size-musl.a(stpcpy.o)
                              /opt/microchip/xc32/v4.60/bin/bin/../../lib/gcc/pic32mx/8.3.1/../../../../pic32mx/lib/libc-size-musl.a(strcpy.o) (__stpcpy)
/opt/microchip/xc32/v4.60/bin/bin/../../lib/gcc/pic32mx/8.3.1/../../../../pic32mx/lib/libc-size-musl.a(stpncpy.o)
                              /opt/microchip/xc32/v4.60/bin/bin/../../lib/gcc/pic32mx/8.3.1/../../../../pic32mx/lib/libc-size-musl.a(strncpy.o) (__stpncpy)
/opt/microchip/xc32/v4.60/bin/bin/../../lib/gcc/pic32mx/8.3.1/../../../../pic32mx/lib/libc-size-musl.a(strcspn.o)
                              /opt/microchip/xc32/v4.60/bin/bin/../../lib/gcc/pic32mx/8.3.1/../../../../pic32mx/lib/libc-size-musl.a(strtok.o) (strcspn)
/opt/microchip/xc32/v4.60/bin/bin/../../lib/gcc/pic32mx/8.3.1/../../../../pic32mx/lib/libc-size-musl.a(strspn.o)
                              /opt/microchip/xc32/v4.60/bin/bin/../../lib/gcc/pic32mx/8.3.1/../../../../pic32mx/lib/libc-size-musl.a(strtok.o) (strspn)
/opt/microchip/xc32/v4.60/bin/bin/../../lib/gcc/pic32mx/8.3.1/../../../../pic32mx/lib/liblmalloc-musl.a(lite_free.o)
                              build/default/production/_ext/1171490990/initialization.o (free)
/opt/microchip/xc32/v4.60/bin/bin/../../lib/gcc/pic32mx/8.3.1/../../../../pic32mx/lib/liblmalloc-musl.a(lite_malloc.o)
                              build/default/production/_ext/1171490990/initialization.o (malloc)
/opt/microchip/xc32/v4.60/bin/bin/../../lib/gcc/pic32mx/8.3.1/../../../../pic32mx/lib/libc-musl.a(isalnum.o)
                              build/default/production/_ext/1033058136/dhcp.o (isalnum)
/opt/microchip/xc32/v4.60/bin/bin/../../lib/gcc/pic32mx/8.3.1/../../../../pic32mx/lib/libc-musl.a(isxdigit.o)
                              build/default/production/_ext/1033058136/tcpip_helpers.o (isxdigit)
/opt/microchip/xc32/v4.60/bin/bin/../../lib/gcc/pic32mx/8.3.1/../../../../pic32mx/lib/libc-musl.a(tolower.o)
                              build/default/production/_ext/1033058136/helpers.o (tolower)
/opt/microchip/xc32/v4.60/bin/bin/../../lib/gcc/pic32mx/8.3.1/../../../../pic32mx/lib/libc-musl.a(toupper.o)
                              build/default/production/_ext/1033058136/tcpip_helpers.o (toupper)
/opt/microchip/xc32/v4.60/bin/bin/../../lib/gcc/pic32mx/8.3.1/../../../../pic32mx/lib/libc-musl.a(expand_heap.o)
                              /opt/microchip/xc32/v4.60/bin/bin/../../lib/gcc/pic32mx/8.3.1/../../../../pic32mx/lib/liblmalloc-musl.a(lite_malloc.o) (__expand_heap)
/opt/microchip/xc32/v4.60/bin/bin/../../lib/gcc/pic32mx/8.3.1/../../../../pic32mx/lib/libc-musl.a(rand.o)
                              build/default/production/_ext/1033058136/dhcp.o (rand)
/opt/microchip/xc32/v4.60/bin/bin/../../lib/gcc/pic32mx/8.3.1/../../../../pic32mx/lib/libc-musl.a(vsnprintf.o)
                              build/default/production/_ext/1033058136/tcpip_helpers.o (vsnprintf)
/opt/microchip/xc32/v4.60/bin/bin/../../lib/gcc/pic32mx/8.3.1/../../../../pic32mx/lib/libc-musl.a(stdin.o)
                              build/default/production/_ext/1171490990/initialization.o (_stdin)
/opt/microchip/xc32/v4.60/bin/bin/../../lib/gcc/pic32mx/8.3.1/../../../../pic32mx/lib/libc-musl.a(stdout.o)
                              build/default/production/_ext/1171490990/initialization.o (_stdout)
/opt/microchip/xc32/v4.60/bin/bin/../../lib/gcc/pic32mx/8.3.1/../../../../pic32mx/lib/libc-musl.a(setbuf.o)
                              build/default/production/_ext/1171490990/initialization.o (setbuf)
/opt/microchip/xc32/v4.60/bin/bin/../../lib/gcc/pic32mx/8.3.1/../../../../pic32mx/lib/libc-musl.a(sprintf.o)
                              (sprintf)
/opt/microchip/xc32/v4.60/bin/bin/../../lib/gcc/pic32mx/8.3.1/../../../../pic32mx/lib/libc-musl.a(vsprintf.o)
                              /opt/microchip/xc32/v4.60/bin/bin/../../lib/gcc/pic32mx/8.3.1/../../../../pic32mx/lib/libc-musl.a(sprintf.o) (vsprintf)
/opt/microchip/xc32/v4.60/bin/bin/../../lib/gcc/pic32mx/8.3.1/../../../../pic32mx/lib/libc-musl.a(strtol.o)
                              build/default/production/_ext/1033058136/tcpip_helpers.o (strtoul)
/opt/microchip/xc32/v4.60/bin/bin/../../lib/gcc/pic32mx/8.3.1/../../../../pic32mx/lib/libc-musl.a(qsort.o)
                              build/default/production/_ext/1033058136/tcpip_helpers.o (qsort)
/opt/microchip/xc32/v4.60/bin/bin/../../lib/gcc/pic32mx/8.3.1/../../../../pic32mx/lib/libc-musl.a(intscan.o)
                              /opt/microchip/xc32/v4.60/bin/bin/../../lib/gcc/pic32mx/8.3.1/../../../../pic32mx/lib/libc-musl.a(strtol.o) (__intscan)
/opt/microchip/xc32/v4.60/bin/bin/../../lib/gcc/pic32mx/8.3.1/../../../../pic32mx/lib/libc-musl.a(shgetc.o)
                              /opt/microchip/xc32/v4.60/bin/bin/../../lib/gcc/pic32mx/8.3.1/../../../../pic32mx/lib/libc-musl.a(strtol.o) (__shlim)
/opt/microchip/xc32/v4.60/bin/bin/../../lib/gcc/pic32mx/8.3.1/../../../../pic32mx/lib/libc-musl.a(__uflow.o)
                              /opt/microchip/xc32/v4.60/bin/bin/../../lib/gcc/pic32mx/8.3.1/../../../../pic32mx/lib/libc-musl.a(shgetc.o) (__uflow)
/opt/microchip/xc32/v4.60/bin/bin/../../lib/gcc/pic32mx/8.3.1/../../../../pic32mx/lib/libc-musl.a(__io_init_needed.o)
                              /opt/microchip/xc32/v4.60/bin/bin/../../lib/gcc/pic32mx/8.3.1/../../../../pic32mx/lib/libc-musl.a(stdout.o) (__io_init_needed)
/opt/microchip/xc32/v4.60/bin/bin/../../lib/gcc/pic32mx/8.3.1/../../../../pic32mx/lib/libc-musl.a(__io_rw_needed.o)
                              /opt/microchip/xc32/v4.60/bin/bin/../../lib/gcc/pic32mx/8.3.1/../../../../pic32mx/lib/libc-musl.a(stdin.o) (__io_rw_needed)
/opt/microchip/xc32/v4.60/bin/bin/../../lib/gcc/pic32mx/8.3.1/../../../../pic32mx/lib/libc-musl.a(__out.o)
                              /opt/microchip/xc32/v4.60/bin/bin/../../lib/gcc/pic32mx/8.3.1/../../../../pic32mx/lib/libc-musl.a(stdout.o) (__stdio_write_unbuffered)
/opt/microchip/xc32/v4.60/bin/bin/../../lib/gcc/pic32mx/8.3.1/../../../../pic32mx/lib/libc-musl.a(__stdio_close.o)
                              /opt/microchip/xc32/v4.60/bin/bin/../../lib/gcc/pic32mx/8.3.1/../../../../pic32mx/lib/libc-musl.a(stdout.o) (__stdio_close_rw)
/opt/microchip/xc32/v4.60/bin/bin/../../lib/gcc/pic32mx/8.3.1/../../../../pic32mx/lib/libc-musl.a(__stdio_read.o)
                              /opt/microchip/xc32/v4.60/bin/bin/../../lib/gcc/pic32mx/8.3.1/../../../../pic32mx/lib/libc-musl.a(stdin.o) (__stdio_read)
/opt/microchip/xc32/v4.60/bin/bin/../../lib/gcc/pic32mx/8.3.1/../../../../pic32mx/lib/libc-musl.a(__towrite_rw.o)
                              /opt/microchip/xc32/v4.60/bin/bin/../../lib/gcc/pic32mx/8.3.1/../../../../pic32mx/lib/libc-musl.a(__io_rw_needed.o) (__towrite_rw_needed)
/opt/microchip/xc32/v4.60/bin/bin/../../lib/gcc/pic32mx/8.3.1/../../../../pic32mx/lib/libc-musl.a(setvbuf.o)
                              /opt/microchip/xc32/v4.60/bin/bin/../../lib/gcc/pic32mx/8.3.1/../../../../pic32mx/lib/libc-musl.a(setbuf.o) (setvbuf)
/opt/microchip/xc32/v4.60/bin/bin/../../lib/gcc/pic32mx/8.3.1/../../../../pic32mx/lib/libc-musl.a(vfprintf.o)
                              /opt/microchip/xc32/v4.60/bin/bin/../../lib/gcc/pic32mx/8.3.1/../../../../pic32mx/lib/libc-musl.a(vsnprintf.o) (vfprintf)
/opt/microchip/xc32/v4.60/bin/bin/../../lib/gcc/pic32mx/8.3.1/../../../../pic32mx/lib/libc-musl.a(readv.o)
                              /opt/microchip/xc32/v4.60/bin/bin/../../lib/gcc/pic32mx/8.3.1/../../../../pic32mx/lib/libc-musl.a(__stdio_read.o) (readv)
/opt/microchip/xc32/v4.60/bin/bin/../../lib/gcc/pic32mx/8.3.1/../../../../pic32mx/lib/libc-musl.a(__toread.o)
                              /opt/microchip/xc32/v4.60/bin/bin/../../lib/gcc/pic32mx/8.3.1/../../../../pic32mx/lib/libc-musl.a(__uflow.o) (__toread)
/opt/microchip/xc32/v4.60/bin/bin/../../lib/gcc/pic32mx/8.3.1/../../../../pic32mx/lib/libc-musl.a(__fopen_rw.o)
                              /opt/microchip/xc32/v4.60/bin/bin/../../lib/gcc/pic32mx/8.3.1/../../../../pic32mx/lib/libc-musl.a(__io_rw_needed.o) (__fopen_rw_needed)
/opt/microchip/xc32/v4.60/bin/bin/../../lib/gcc/pic32mx/8.3.1/../../../../pic32mx/lib/libc-musl.a(__ftello_rw.o)
                              /opt/microchip/xc32/v4.60/bin/bin/../../lib/gcc/pic32mx/8.3.1/../../../../pic32mx/lib/libc-musl.a(__io_rw_needed.o) (__ftello_adj_rw_needed)
/opt/microchip/xc32/v4.60/bin/bin/../../lib/gcc/pic32mx/8.3.1/../../../../pic32mx/lib/libc-musl.a(__init_stdio.o)
                              /opt/microchip/xc32/v4.60/bin/bin/../../lib/gcc/pic32mx/8.3.1/../../../../pic32mx/lib/libc-musl.a(__io_init_needed.o) (__init_stdio_needed)
/opt/microchip/xc32/v4.60/bin/bin/../../lib/gcc/pic32mx/8.3.1/../../../../pic32mx/lib/libc-musl.a(__io_buf_needed.o)
                              /opt/microchip/xc32/v4.60/bin/bin/../../lib/gcc/pic32mx/8.3.1/../../../../pic32mx/lib/libc-musl.a(__io_rw_needed.o) (__io_buf_needed)
/opt/microchip/xc32/v4.60/bin/bin/../../lib/gcc/pic32mx/8.3.1/../../../../pic32mx/lib/libc-musl.a(__io_file_needed.o)
                              /opt/microchip/xc32/v4.60/bin/bin/../../lib/gcc/pic32mx/8.3.1/../../../../pic32mx/lib/libc-musl.a(__io_init_needed.o) (__io_file_needed)
/opt/microchip/xc32/v4.60/bin/bin/../../lib/gcc/pic32mx/8.3.1/../../../../pic32mx/lib/libc-musl.a(__io_fmt_needed.o)
                              /opt/microchip/xc32/v4.60/bin/bin/../../lib/gcc/pic32mx/8.3.1/../../../../pic32mx/lib/libc-musl.a(vfprintf.o) (__io_fmt_needed)
/opt/microchip/xc32/v4.60/bin/bin/../../lib/gcc/pic32mx/8.3.1/../../../../pic32mx/lib/libc-musl.a(__io_std_needed.o)
                              /opt/microchip/xc32/v4.60/bin/bin/../../lib/gcc/pic32mx/8.3.1/../../../../pic32mx/lib/libc-musl.a(__io_buf_needed.o) (__io_std_needed)
/opt/microchip/xc32/v4.60/bin/bin/../../lib/gcc/pic32mx/8.3.1/../../../../pic32mx/lib/libc-musl.a(__pop_float.o)
                              /opt/microchip/xc32/v4.60/bin/bin/../../lib/gcc/pic32mx/8.3.1/../../../../pic32mx/lib/libc-musl.a(__io_fmt_needed.o) (__pop_float_needed)
/opt/microchip/xc32/v4.60/bin/bin/../../lib/gcc/pic32mx/8.3.1/../../../../pic32mx/lib/libc-musl.a(__pop_int.o)
                              /opt/microchip/xc32/v4.60/bin/bin/../../lib/gcc/pic32mx/8.3.1/../../../../pic32mx/lib/libc-musl.a(__io_fmt_needed.o) (__pop_int_needed)
/opt/microchip/xc32/v4.60/bin/bin/../../lib/gcc/pic32mx/8.3.1/../../../../pic32mx/lib/libc-musl.a(__pop_ptr.o)
                              /opt/microchip/xc32/v4.60/bin/bin/../../lib/gcc/pic32mx/8.3.1/../../../../pic32mx/lib/libc-musl.a(__io_fmt_needed.o) (__pop_ptr_needed)
/opt/microchip/xc32/v4.60/bin/bin/../../lib/gcc/pic32mx/8.3.1/../../../../pic32mx/lib/libc-musl.a(__printf_core.o)
                              /opt/microchip/xc32/v4.60/bin/bin/../../lib/gcc/pic32mx/8.3.1/../../../../pic32mx/lib/libc-musl.a(vfprintf.o) (__printf_core)
/opt/microchip/xc32/v4.60/bin/bin/../../lib/gcc/pic32mx/8.3.1/../../../../pic32mx/lib/libc-musl.a(__putc.o)
                              /opt/microchip/xc32/v4.60/bin/bin/../../lib/gcc/pic32mx/8.3.1/../../../../pic32mx/lib/libc-musl.a(__io_buf_needed.o) (__putc_needed)
/opt/microchip/xc32/v4.60/bin/bin/../../lib/gcc/pic32mx/8.3.1/../../../../pic32mx/lib/libc-musl.a(__stderr.o)
                              /opt/microchip/xc32/v4.60/bin/bin/../../lib/gcc/pic32mx/8.3.1/../../../../pic32mx/lib/libc-musl.a(__io_std_needed.o) (__init_stderr_needed)
/opt/microchip/xc32/v4.60/bin/bin/../../lib/gcc/pic32mx/8.3.1/../../../../pic32mx/lib/libc-musl.a(__stdio_exit.o)
                              /opt/microchip/xc32/v4.60/bin/bin/../../lib/gcc/pic32mx/8.3.1/../../../../pic32mx/lib/libc-musl.a(__toread.o) (__stdio_exit_needed)
/opt/microchip/xc32/v4.60/bin/bin/../../lib/gcc/pic32mx/8.3.1/../../../../pic32mx/lib/libc-musl.a(__stdio_write.o)
                              /opt/microchip/xc32/v4.60/bin/bin/../../lib/gcc/pic32mx/8.3.1/../../../../pic32mx/lib/libc-musl.a(setvbuf.o) (__stdio_write_buffered)
/opt/microchip/xc32/v4.60/bin/bin/../../lib/gcc/pic32mx/8.3.1/../../../../pic32mx/lib/libc-musl.a(__stdout.o)
                              /opt/microchip/xc32/v4.60/bin/bin/../../lib/gcc/pic32mx/8.3.1/../../../../pic32mx/lib/libc-musl.a(__io_std_needed.o) (__init_stdout_needed)
/opt/microchip/xc32/v4.60/bin/bin/../../lib/gcc/pic32mx/8.3.1/../../../../pic32mx/lib/libc-musl.a(__towrite.o)
                              /opt/microchip/xc32/v4.60/bin/bin/../../lib/gcc/pic32mx/8.3.1/../../../../pic32mx/lib/libc-musl.a(__stdio_write.o) (__towrite)
/opt/microchip/xc32/v4.60/bin/bin/../../lib/gcc/pic32mx/8.3.1/../../../../pic32mx/lib/libc-musl.a(putc.o)
                              /opt/microchip/xc32/v4.60/bin/bin/../../lib/gcc/pic32mx/8.3.1/../../../../pic32mx/lib/libc-musl.a(__putc.o) (__putc_unbuffered)
/opt/microchip/xc32/v4.60/bin/bin/../../lib/gcc/pic32mx/8.3.1/../../../../pic32mx/lib/libc-musl.a(atoi.o)
                              /opt/microchip/xc32/v4.60/bin/bin/../../lib/gcc/pic32mx/8.3.1/../../../../pic32mx/lib/libc-musl.a(__printf_core.o) (atoi)
/opt/microchip/xc32/v4.60/bin/bin/../../lib/gcc/pic32mx/8.3.1/../../../../pic32mx/lib/libc-musl.a(writev.o)
                              /opt/microchip/xc32/v4.60/bin/bin/../../lib/gcc/pic32mx/8.3.1/../../../../pic32mx/lib/libc-musl.a(__stdio_write.o) (writev)
/opt/microchip/xc32/v4.60/bin/bin/../../lib/gcc/pic32mx/8.3.1/../../../../pic32mx/lib/libc-musl.a(__overflow.o)
                              /opt/microchip/xc32/v4.60/bin/bin/../../lib/gcc/pic32mx/8.3.1/../../../../pic32mx/lib/libc-musl.a(__putc.o) (__overflow)
/opt/microchip/xc32/v4.60/bin/bin/../../lib/gcc/pic32mx/8.3.1/../../../../pic32mx/lib/libc-musl.a(__fclose.o)
                              /opt/microchip/xc32/v4.60/bin/bin/../../lib/gcc/pic32mx/8.3.1/../../../../pic32mx/lib/libc-musl.a(__io_buf_needed.o) (__fclose_needed)
/opt/microchip/xc32/v4.60/bin/bin/../../lib/gcc/pic32mx/8.3.1/../../../../pic32mx/lib/libc-musl.a(__fmt_a.o)
                              /opt/microchip/xc32/v4.60/bin/bin/../../lib/gcc/pic32mx/8.3.1/../../../../pic32mx/lib/libc-musl.a(__io_fmt_needed.o) (__fmt_a_needed)
/opt/microchip/xc32/v4.60/bin/bin/../../lib/gcc/pic32mx/8.3.1/../../../../pic32mx/lib/libc-musl.a(__fmt_d.o)
                              /opt/microchip/xc32/v4.60/bin/bin/../../lib/gcc/pic32mx/8.3.1/../../../../pic32mx/lib/libc-musl.a(__io_fmt_needed.o) (__fmt_d_needed)
/opt/microchip/xc32/v4.60/bin/bin/../../lib/gcc/pic32mx/8.3.1/../../../../pic32mx/lib/libc-musl.a(__fmt_fp.o)
                              /opt/microchip/xc32/v4.60/bin/bin/../../lib/gcc/pic32mx/8.3.1/../../../../pic32mx/lib/libc-musl.a(__io_fmt_needed.o) (__fmt_f_needed)
/opt/microchip/xc32/v4.60/bin/bin/../../lib/gcc/pic32mx/8.3.1/../../../../pic32mx/lib/libc-musl.a(__fmt_o.o)
                              /opt/microchip/xc32/v4.60/bin/bin/../../lib/gcc/pic32mx/8.3.1/../../../../pic32mx/lib/libc-musl.a(__io_fmt_needed.o) (__fmt_o_needed)
/opt/microchip/xc32/v4.60/bin/bin/../../lib/gcc/pic32mx/8.3.1/../../../../pic32mx/lib/libc-musl.a(__fmt_s.o)
                              /opt/microchip/xc32/v4.60/bin/bin/../../lib/gcc/pic32mx/8.3.1/../../../../pic32mx/lib/libc-musl.a(__io_fmt_needed.o) (__fmt_s_needed)
/opt/microchip/xc32/v4.60/bin/bin/../../lib/gcc/pic32mx/8.3.1/../../../../pic32mx/lib/libc-musl.a(__fmt_u.o)
                              /opt/microchip/xc32/v4.60/bin/bin/../../lib/gcc/pic32mx/8.3.1/../../../../pic32mx/lib/libc-musl.a(__io_fmt_needed.o) (__fmt_u_needed)
/opt/microchip/xc32/v4.60/bin/bin/../../lib/gcc/pic32mx/8.3.1/../../../../pic32mx/lib/libc-musl.a(__fmt_x.o)
                              /opt/microchip/xc32/v4.60/bin/bin/../../lib/gcc/pic32mx/8.3.1/../../../../pic32mx/lib/libc-musl.a(__io_fmt_needed.o) (__fmt_x_needed)
/opt/microchip/xc32/v4.60/bin/bin/../../lib/gcc/pic32mx/8.3.1/../../../../pic32mx/lib/libc-musl.a(__fopen.o)
                              /opt/microchip/xc32/v4.60/bin/bin/../../lib/gcc/pic32mx/8.3.1/../../../../pic32mx/lib/libc-musl.a(__io_std_needed.o) (__fopen_needed)
/opt/microchip/xc32/v4.60/bin/bin/../../lib/gcc/pic32mx/8.3.1/../../../../pic32mx/lib/libc-musl.a(__fseeko.o)
                              /opt/microchip/xc32/v4.60/bin/bin/../../lib/gcc/pic32mx/8.3.1/../../../../pic32mx/lib/libc-musl.a(__io_buf_needed.o) (__fseeko_needed)
/opt/microchip/xc32/v4.60/bin/bin/../../lib/gcc/pic32mx/8.3.1/../../../../pic32mx/lib/libc-musl.a(__ftello.o)
                              /opt/microchip/xc32/v4.60/bin/bin/../../lib/gcc/pic32mx/8.3.1/../../../../pic32mx/lib/libc-musl.a(__io_buf_needed.o) (__ftello_adj_needed)
/opt/microchip/xc32/v4.60/bin/bin/../../lib/gcc/pic32mx/8.3.1/../../../../pic32mx/lib/libc-musl.a(__fwrite.o)
                              /opt/microchip/xc32/v4.60/bin/bin/../../lib/gcc/pic32mx/8.3.1/../../../../pic32mx/lib/libc-musl.a(__io_std_needed.o) (__fwrite_needed)
/opt/microchip/xc32/v4.60/bin/bin/../../lib/gcc/pic32mx/8.3.1/../../../../pic32mx/lib/libc-musl.a(__cvt_u.o)
                              /opt/microchip/xc32/v4.60/bin/bin/../../lib/gcc/pic32mx/8.3.1/../../../../pic32mx/lib/libc-musl.a(__fmt_d.o) (__cvt_u)
/opt/microchip/xc32/v4.60/bin/bin/../../lib/gcc/pic32mx/8.3.1/../../../../pic32mx/lib/libm.a(floor32.o)
                              /opt/microchip/xc32/v4.60/bin/bin/../../lib/gcc/pic32mx/8.3.1/../../../../pic32mx/lib/libc-musl.a(__fmt_a.o) (floor)
/opt/microchip/xc32/v4.60/bin/bin/../../lib/gcc/pic32mx/8.3.1/../../../../pic32mx/lib/libm.a(dp32div.o)
                              /opt/microchip/xc32/v4.60/bin/bin/../../lib/gcc/pic32mx/8.3.1/../../../../pic32mx/lib/libc-musl.a(__fmt_a.o) (__divdf3)
/opt/microchip/xc32/v4.60/bin/bin/../../lib/gcc/pic32mx/8.3.1/../../../../pic32mx/lib/libm.a(dp32mul.o)
                              /opt/microchip/xc32/v4.60/bin/bin/../../lib/gcc/pic32mx/8.3.1/../../../../pic32mx/lib/libc-musl.a(__fmt_a.o) (__muldf3)
/opt/microchip/xc32/v4.60/bin/bin/../../lib/gcc/pic32mx/8.3.1/../../../../pic32mx/lib/libm.a(dp32subadd.o)
                              /opt/microchip/xc32/v4.60/bin/bin/../../lib/gcc/pic32mx/8.3.1/../../../../pic32mx/lib/libc-musl.a(__fmt_a.o) (__subdf3)
/opt/microchip/xc32/v4.60/bin/bin/../../lib/gcc/pic32mx/8.3.1/../../../../pic32mx/lib/libm.a(dpcmp.o)
                              /opt/microchip/xc32/v4.60/bin/bin/../../lib/gcc/pic32mx/8.3.1/../../../../pic32mx/lib/libc-musl.a(__fmt_a.o) (__eqdf2)
/opt/microchip/xc32/v4.60/bin/bin/../../lib/gcc/pic32mx/8.3.1/../../../../pic32mx/lib/libm.a(dpcmplt.o)
                              /opt/microchip/xc32/v4.60/bin/bin/../../lib/gcc/pic32mx/8.3.1/../../../../pic32mx/lib/libc-musl.a(__fmt_fp.o) (__ledf2)
/opt/microchip/xc32/v4.60/bin/bin/../../lib/gcc/pic32mx/8.3.1/../../../../pic32mx/lib/libm.a(dptoli.o)
                              /opt/microchip/xc32/v4.60/bin/bin/../../lib/gcc/pic32mx/8.3.1/../../../../pic32mx/lib/libc-musl.a(__fmt_a.o) (__fixdfsi)
/opt/microchip/xc32/v4.60/bin/bin/../../lib/gcc/pic32mx/8.3.1/../../../../pic32mx/lib/libm-musl.a(fma.o)
                              /opt/microchip/xc32/v4.60/bin/bin/../../lib/gcc/pic32mx/8.3.1/../../../../pic32mx/lib/libc-musl.a(__fmt_fp.o) (fma)
/opt/microchip/xc32/v4.60/bin/bin/../../lib/gcc/pic32mx/8.3.1/../../../../pic32mx/lib/libm-musl.a(scalbn.o)
                              /opt/microchip/xc32/v4.60/bin/bin/../../lib/gcc/pic32mx/8.3.1/../../../../pic32mx/lib/libm-musl.a(fma.o) (scalbn)
/opt/microchip/xc32/v4.60/bin/bin/../../lib/gcc/pic32mx/8.3.1/../../../../pic32mx/lib/libpic32.a(sbrk.o)
                              /opt/microchip/xc32/v4.60/bin/bin/../../lib/gcc/pic32mx/8.3.1/../../../../pic32mx/lib/liblmalloc-musl.a(lite_malloc.o) (_get_heap_left_space)
/opt/microchip/xc32/v4.60/bin/bin/../../lib/gcc/pic32mx/8.3.1/../../../../pic32mx/lib/libpic32.a(lseek.o)
                              /opt/microchip/xc32/v4.60/bin/bin/../../lib/gcc/pic32mx/8.3.1/../../../../pic32mx/lib/libc-musl.a(__stdio_close.o) (lseek)
/opt/microchip/xc32/v4.60/bin/bin/../../lib/gcc/pic32mx/8.3.1/../../../../pic32mx/lib/libpic32.a(close.o)
                              /opt/microchip/xc32/v4.60/bin/bin/../../lib/gcc/pic32mx/8.3.1/../../../../pic32mx/lib/libc-musl.a(__stdio_close.o) (close)
/opt/microchip/xc32/v4.60/bin/bin/../../lib/gcc/pic32mx/8.3.1/../../../../pic32mx/lib/libm.a(dptofp.o)
                              /opt/microchip/xc32/v4.60/bin/bin/../../lib/gcc/pic32mx/8.3.1/../../../../pic32mx/lib/libm-musl.a(fma.o) (__truncdfsf2)
/opt/microchip/xc32/v4.60/bin/bin/../../lib/gcc/pic32mx/8.3.1/../../../../pic32mx/lib/libm.a(fptodp.o)
                              /opt/microchip/xc32/v4.60/bin/bin/../../lib/gcc/pic32mx/8.3.1/../../../../pic32mx/lib/libm-musl.a(fma.o) (__extendsfdf2)
/opt/microchip/xc32/v4.60/bin/bin/../../lib/gcc/pic32mx/8.3.1/../../../../pic32mx/lib/libe.a(_floatdidf.o)
                              /opt/microchip/xc32/v4.60/bin/bin/../../lib/gcc/pic32mx/8.3.1/../../../../pic32mx/lib/libm-musl.a(fma.o) (__floatdidf)
/opt/microchip/xc32/v4.60/bin/bin/../../lib/gcc/pic32mx/8.3.1/libgcc.a(_lshrdi3.o)
                              /opt/microchip/xc32/v4.60/bin/bin/../../lib/gcc/pic32mx/8.3.1/../../../../pic32mx/lib/libc-musl.a(intscan.o) (__lshrdi3)
/opt/microchip/xc32/v4.60/bin/bin/../../lib/gcc/pic32mx/8.3.1/libgcc.a(_ashldi3.o)
                              /opt/microchip/xc32/v4.60/bin/bin/../../lib/gcc/pic32mx/8.3.1/../../../../pic32mx/lib/libc-musl.a(intscan.o) (__ashldi3)
/opt/microchip/xc32/v4.60/bin/bin/../../lib/gcc/pic32mx/8.3.1/libgcc.a(_umoddi3.o)
                              /opt/microchip/xc32/v4.60/bin/bin/../../lib/gcc/pic32mx/8.3.1/../../../../pic32mx/lib/libc-musl.a(__cvt_u.o) (__umoddi3)

Optional file libmchp_peripheral.a not found

Optional file libmchp_peripheral_32MX795F512H.a not found
/opt/microchip/xc32/v4.60/bin/bin/../../lib/gcc/pic32mx/8.3.1/../../../../pic32mx/lib/libpic32.a(pic32_data_init_clear.o)
                              (__dinit_clear_needed)
/opt/microchip/xc32/v4.60/bin/bin/../../lib/gcc/pic32mx/8.3.1/../../../../pic32mx/lib/libpic32.a(pic32_data_init_copy.o)
                              (__dinit_copy_needed)

Microchip PIC32 Memory-Usage Report

kseg0 Program-Memory Usage
section                    address  length [bytes]      (dec)  Description
-------                 ----------  -------------------------  -----------
.text                   0x9d000000         0x68bc       26812  App's exec code 
.text                   0x9d0068bc         0x5450       21584  App's exec code 
.text                   0x9d00bd0c         0x4974       18804  App's exec code 
.text                   0x9d010680         0x3c68       15464  App's exec code 
.text                   0x9d0142e8         0x33d4       13268  App's exec code 
.text                   0x9d0176bc         0x2a3c       10812  App's exec code 
.text                   0x9d01a0f8         0x2804       10244  App's exec code 
.text                   0x9d01c8fc         0x1030        4144  App's exec code 
.rodata.str1.4          0x9d01d92c          0xed4        3796   
.text                   0x9d01e800          0xb4c        2892  App's exec code 
.text.__fmt_fp          0x9d01f34c          0x8b4        2228   
.text.__fmt_a           0x9d01fc00          0x864        2148   
.text.fma               0x9d020464          0x768        1896   
.text.__intscan         0x9d020bcc          0x700        1792   
.text                   0x9d0212cc          0x63c        1596  App's exec code 
.text.__printf_core     0x9d021908          0x5a4        1444   
.text                   0x9d021eac          0x5a0        1440  App's exec code 
.rodata.str1.4          0x9d02244c          0x528        1320   
.text                   0x9d022974          0xa40        2624  App's exec code 
.dinit                  0x9d0233b4          0x4e0        1248   
.text.dp32mul           0x9d023894          0x4b8        1208   
.text                   0x9d023d4c          0x89c        2204  App's exec code 
.text.dp32subadd        0x9d0245e8          0x430        1072   
.text                   0x9d024a18          0x818        2072  App's exec code 
.text                   0x9d025230          0x780        1920  App's exec code 
.text                   0x9d0259b0          0x74c        1868  App's exec code 
.rodata.str1.4          0x9d0260fc          0x330         816   
.text.dp32mul           0x9d02642c          0x32c         812   
.text                   0x9d026758          0x5f0        1520  App's exec code 
.text                   0x9d026d48          0x2a8         680  App's exec code 
.rodata.str1.4          0x9d026ff0          0x290         656   
.text.qsort             0x9d027280          0x290         656   
.text                   0x9d027510          0x4cc        1228  App's exec code 
.text                   0x9d0279dc          0x218         536  App's exec code 
.text.__floatdidf       0x9d027bf4          0x204         516   
.text.__fmt_x           0x9d027df8          0x200         512   
.text                   0x9d027ff8          0x3c8         968  App's exec code 
.text                   0x9d0283c0          0x370         880  App's exec code 
.CORE_TIMER_Handler_vec 0x9d028730          0x1b4         436   
.UART_2_Handler_vector_ 0x9d0288e4          0x1b4         436   
.ETH_Handler_vector_tex 0x9d028a98          0x1b4         436   
.text                   0x9d028c4c          0x194         404  App's exec code 
.text.__pop_int         0x9d028de0          0x188         392   
.rodata                 0x9d028f68          0x300         768  Read-only const 
.text.trinkle           0x9d029268          0x17c         380   
.text                   0x9d0293e4          0x178         376  App's exec code 
.rodata                 0x9d02955c          0x164         356  Read-only const 
.text                   0x9d0296c0          0x164         356  App's exec code 
.text._sbrk_init        0x9d029824          0x154         340   
.text.__fmt_d           0x9d029978          0x150         336   
.text                   0x9d029ac8          0x140         320  App's exec code 
.text.__cvt_u           0x9d029c08          0x13c         316   
.text.dpcmp             0x9d029d44          0x12c         300   
.text.dfcmplt           0x9d029e70          0x12c         300   
.text                   0x9d029f9c          0x120         288  App's exec code 
.rodata                 0x9d02a0bc          0x114         276  Read-only const 
.text.__write_buffered  0x9d02a1d0          0x114         276   
.rodata                 0x9d02a2e4          0x110         272  Read-only const 
.text                   0x9d02a3f4          0x108         264  App's exec code 
.text.__stdio_write_buf 0x9d02a4fc          0x104         260   
.text                   0x9d02a600          0x100         256  App's exec code 
.text.__pad             0x9d02a700          0x100         256   
.text.dptofp            0x9d02a800          0x100         256   
.text.__fmt_o           0x9d02a900           0xf4         244   
.rodata                 0x9d02a9f4           0xf0         240  Read-only const 
.text.sift              0x9d02aae4           0xf0         240   
.text.scalbn            0x9d02abd4           0xf0         240   
.text.__pop_ptr         0x9d02acc4           0xe4         228   
.text.general_exception 0x9d02ada8           0xdc         220   
.text                   0x9d02ae84           0xd8         216  App's exec code 
.text.strcspn           0x9d02af5c           0xd8         216   
.text.strspn            0x9d02b034           0xd8         216   
.text                   0x9d02b10c           0xd4         212  App's exec code 
.text.__stdio_read      0x9d02b1e0           0xcc         204   
.text.__simple_search_f 0x9d02b2ac           0xc8         200   
.text.__strchrnul       0x9d02b374           0xc0         192   
.text.vsnprintf         0x9d02b434           0xc0         192   
.text.__stdio_close_rw  0x9d02b4f4           0xc0         192   
.text                   0x9d02b5b4           0xbc         188  App's exec code 
.text.cycle             0x9d02b670           0xbc         188   
.text.__fmt_u           0x9d02b72c           0xbc         188   
.rodata.str1.4          0x9d02b7e8           0xb8         184   
.text.strtox            0x9d02b8a0           0xb8         184   
.text.__shgetc          0x9d02b958           0xb4         180   
.text                   0x9d02ba0c           0xb0         176  App's exec code 
.text.__simple_malloc   0x9d02babc           0xb0         176   
.rodata                 0x9d02bb6c           0xac         172  Read-only const 
.text.setvbuf           0x9d02bc18           0xac         172   
.text.fptodp            0x9d02bcc4           0xac         172   
.text.normalize         0x9d02bd70           0xa8         168   
.text.strtok            0x9d02be18           0xa4         164   
.text.__fmt_s           0x9d02bebc           0xa4         164   
.rodata.str1.4          0x9d02bf60          0x134         308   
.text.__toread          0x9d02c094           0x94         148   
.rodata                 0x9d02c128           0x90         144  Read-only const 
.text.__out             0x9d02c1b8           0x90         144   
.text.dptoli            0x9d02c248           0x90         144   
.text._sbrk             0x9d02c2d8           0x8c         140   
.rodata                 0x9d02c364           0x80         128  Read-only const 
.text                   0x9d02c3e4           0x7c         124  App's exec code 
.text.stpncpy           0x9d02c460           0x7c         124   
.text.__readv           0x9d02c4dc           0x7c         124   
.text.atoi              0x9d02c558           0x7c         124   
.text.__writev          0x9d02c5d4           0x7c         124   
.rodata.str1.4          0x9d02c650           0xe0         224   
.text.__simple_free     0x9d02c730           0x70         112   
.text.pntz              0x9d02c7a0           0x6c         108   
.text.a_clz_64          0x9d02c80c           0x6c         108   
.rodata                 0x9d02c878           0x68         104  Read-only const 
.rodata.str1.4          0x9d02c8e0           0x60          96   
.text                   0x9d02c940           0x60          96  App's exec code 
.rodata.str1.4          0x9d02c9a0           0x5c          92   
.text                   0x9d02c9fc           0x5c          92  App's exec code 
.text.__fmt_state       0x9d02ca58           0x58          88   
.text                   0x9d02cab0           0x54          84  App's exec code 
.rodata.str1.4          0x9d02cb04           0x54          84   
.text.main_entry        0x9d02cb58           0x54          84   
.text.__uflow           0x9d02cbac           0x54          84   
.text.__pop_float       0x9d02cc00           0x50          80   
.text                   0x9d02cc50           0x4c          76  App's exec code 
.vector_default         0x9d02cc9c           0x48          72   
.text.strncmp           0x9d02cce4           0x48          72   
.rodata.str1.4          0x9d02cd2c           0x44          68   
.text                   0x9d02cd70           0x44          68  App's exec code 
.text.shl               0x9d02cdb4           0x44          68   
.text.shr               0x9d02cdf8           0x44          68   
.text.__towrite         0x9d02ce3c           0x44          68   
.text._get_heap_left_sp 0x9d02ce80           0x44          68   
.rodata                 0x9d02cec4           0x40          64  Read-only const 
.rodata.str1.4          0x9d02cf04           0x40          64   
.text.__expand_heap     0x9d02cf44           0x3c          60   
.text.__towrite_rw      0x9d02cf80           0x3c          60   
.text.vfprintf          0x9d02cfbc           0x3c          60   
.text                   0x9d02cff8           0x78         120  App's exec code 
.text                   0x9d02d070           0x38          56  App's exec code 
.text.memcmp            0x9d02d0a8           0x38          56   
.text.strrchr           0x9d02d0e0           0x38          56   
.text.strchr            0x9d02d118           0x34          52   
.text.__fwrite          0x9d02d14c           0x34          52   
.rodata                 0x9d02d180           0x30          48  Read-only const 
.text.strlen            0x9d02d1b0           0x30          48   
.text.memcpy            0x9d02d1e0           0x2c          44   
.text.strcmp            0x9d02d20c           0x2c          44   
.text.strtoul           0x9d02d238           0x2c          44   
.text.strtol            0x9d02d264           0x2c          44   
.text.__shlim           0x9d02d290           0x2c          44   
.text._stub_sbd_memlayo 0x9d02d2bc           0x2c          44   
.rodata.str1.4          0x9d02d2e8           0x28          40   
.text.memset            0x9d02d310           0x28          40   
.text.strcpy            0x9d02d338           0x28          40   
.text.strncpy           0x9d02d360           0x28          40   
.text.__memrchr         0x9d02d388           0x28          40   
.text.stpcpy            0x9d02d3b0           0x28          40   
.text.__init_search_fl  0x9d02d3d8           0x28          40   
.text.sprintf           0x9d02d400           0x28          40   
.text.vsprintf          0x9d02d428           0x28          40   
.rodata.cst8            0x9d02d450           0x28          40   
.rodata.str1.4          0x9d02d478           0x24          36   
.rodata                 0x9d02d49c           0x24          36  Read-only const 
.text.isalnum           0x9d02d4c0           0x24          36   
.text.isxdigit          0x9d02d4e4           0x24          36   
.text.rand              0x9d02d508           0x24          36   
.text.setbuf            0x9d02d52c           0x24          36   
.rodata.str1.4          0x9d02d550           0x20          32   
.text                   0x9d02d570           0x20          32  App's exec code 
.rodata                 0x9d02d590           0x20          32  Read-only const 
.text.__fwrite_min      0x9d02d5b0           0x20          32   
.rodata.cst8            0x9d02d5d0           0x40          64   
.text                   0x9d02d610           0x3c          60  App's exec code 
.rodata                 0x9d02d64c           0x1c          28  Read-only const 
.text.tolower           0x9d02d668           0x1c          28   
.text.toupper           0x9d02d684           0x1c          28   
.MIPS.abiflags          0x9d02d6a0           0x18          24   
.rodata                 0x9d02d6b8           0x18          24  Read-only const 
.text                   0x9d02d6d0           0x18          24  App's exec code 
.rodata                 0x9d02d6e8           0x18          24  Read-only const 
.text                   0x9d02d700           0x18          24  App's exec code 
.rodata                 0x9d02d718           0x24          36  Read-only const 
.rodata.str1.4          0x9d02d73c           0x20          32   
.rodata                 0x9d02d75c            0x4           4  Read-only const 
.rodata.cst8            0x9d02d760           0x10          16   
.rodata.str1.4          0x9d02d770           0x14          20   
.text._on_reset         0x9d02d784            0x8           8   
.text._on_bootstrap     0x9d02d78c            0x8           8   
.text.__dummy           0x9d02d794           0x10          16   
.text.lseek             0x9d02d7a4            0x8           8   
.text.close             0x9d02d7ac            0x8           8   
      Total kseg0_program_mem used  :     0x2d7b4      186292  35.5% of 0x80000

kseg0 Boot-Memory Usage
section                    address  length [bytes]      (dec)  Description
-------                 ----------  -------------------------  -----------
         Total kseg0_boot_mem used  :           0           0  <1% of 0x970

Exception-Memory Usage 
section                    address  length [bytes]      (dec)  Description
-------                 ----------  -------------------------  -----------
.app_excpt              0x9fc01180           0x10          16  General-Exception 
.vector_0               0x9fc01200           0x10          16  Interrupt Vector 0 
.vector_1               0x9fc01220            0x8           8  Interrupt Vector 1 
.vector_2               0x9fc01240            0x8           8  Interrupt Vector 2 
.vector_3               0x9fc01260            0x8           8  Interrupt Vector 3 
.vector_4               0x9fc01280            0x8           8  Interrupt Vector 4 
.vector_5               0x9fc012a0            0x8           8  Interrupt Vector 5 
.vector_6               0x9fc012c0            0x8           8  Interrupt Vector 6 
.vector_7               0x9fc012e0            0x8           8  Interrupt Vector 7 
.vector_8               0x9fc01300            0x8           8  Interrupt Vector 8 
.vector_9               0x9fc01320            0x8           8  Interrupt Vector 9 
.vector_10              0x9fc01340            0x8           8  Interrupt Vector 10 
.vector_11              0x9fc01360            0x8           8  Interrupt Vector 11 
.vector_12              0x9fc01380            0x8           8  Interrupt Vector 12 
.vector_13              0x9fc013a0            0x8           8  Interrupt Vector 13 
.vector_14              0x9fc013c0            0x8           8  Interrupt Vector 14 
.vector_15              0x9fc013e0            0x8           8  Interrupt Vector 15 
.vector_16              0x9fc01400            0x8           8  Interrupt Vector 16 
.vector_17              0x9fc01420            0x8           8  Interrupt Vector 17 
.vector_18              0x9fc01440            0x8           8  Interrupt Vector 18 
.vector_19              0x9fc01460            0x8           8  Interrupt Vector 19 
.vector_20              0x9fc01480            0x8           8  Interrupt Vector 20 
.vector_21              0x9fc014a0            0x8           8  Interrupt Vector 21 
.vector_22              0x9fc014c0            0x8           8  Interrupt Vector 22 
.vector_23              0x9fc014e0            0x8           8  Interrupt Vector 23 
.vector_24              0x9fc01500            0x8           8  Interrupt Vector 24 
.vector_25              0x9fc01520            0x8           8  Interrupt Vector 25 
.vector_26              0x9fc01540            0x8           8  Interrupt Vector 26 
.vector_27              0x9fc01560            0x8           8  Interrupt Vector 27 
.vector_28              0x9fc01580            0x8           8  Interrupt Vector 28 
.vector_29              0x9fc015a0            0x8           8  Interrupt Vector 29 
.vector_30              0x9fc015c0            0x8           8  Interrupt Vector 30 
.vector_31              0x9fc015e0            0x8           8  Interrupt Vector 31 
.vector_32              0x9fc01600           0x10          16  Interrupt Vector 32 
.vector_33              0x9fc01620            0x8           8  Interrupt Vector 33 
.vector_34              0x9fc01640            0x8           8  Interrupt Vector 34 
.vector_35              0x9fc01660            0x8           8  Interrupt Vector 35 
.vector_36              0x9fc01680            0x8           8  Interrupt Vector 36 
.vector_37              0x9fc016a0            0x8           8  Interrupt Vector 37 
.vector_38              0x9fc016c0            0x8           8  Interrupt Vector 38 
.vector_39              0x9fc016e0            0x8           8  Interrupt Vector 39 
.vector_40              0x9fc01700            0x8           8  Interrupt Vector 40 
.vector_41              0x9fc01720            0x8           8  Interrupt Vector 41 
.vector_42              0x9fc01740            0x8           8  Interrupt Vector 42 
.vector_43              0x9fc01760            0x8           8  Interrupt Vector 43 
.vector_44              0x9fc01780            0x8           8  Interrupt Vector 44 
.vector_45              0x9fc017a0            0x8           8  Interrupt Vector 45 
.vector_46              0x9fc017c0            0x8           8  Interrupt Vector 46 
.vector_47              0x9fc017e0            0x8           8  Interrupt Vector 47 
.vector_48              0x9fc01800           0x10          16  Interrupt Vector 48 
.vector_49              0x9fc01820            0x8           8  Interrupt Vector 49 
.vector_50              0x9fc01840            0x8           8  Interrupt Vector 50 
.vector_51              0x9fc01860            0x8           8  Interrupt Vector 51 
          Total exception_mem used  :       0x1c8         456  11.1% of 0x1000

kseg1 Boot-Memory Usage
section                    address  length [bytes]      (dec)  Description
-------                 ----------  -------------------------  -----------
.reset                  0xbfc00000          0x170         368  Reset handler 
.bev_excpt              0xbfc00380           0x10          16  BEV-Exception 
         Total kseg1_boot_mem used  :       0x180         384  32.9% of 0x490
        --------------------------------------------------------------------------
         Total Program Memory used  :     0x2dafc      187132  35.2% of 0x81e00
        --------------------------------------------------------------------------


Data-Memory Usage
section                    address  length [bytes]      (dec)  Description
-------                 ----------  -------------------------  -----------
.sdata                  0xa0000000           0x18          24  Small init data 
.sbss                   0xa0000018          0x184         388  Small uninit data 
.data                   0xa000019c          0x180         384  Initialized data 
.data                   0xa000031c           0x90         144  Initialized data 
.data                   0xa00003ac           0x28          40  Initialized data 
.data                   0xa00003d4            0x4           4  Initialized data 
.data._stdin            0xa00003d8            0x4           4   
.data._stdout           0xa00003dc            0x4           4   
.bss                    0xa00003e0         0x8500       34048  Uninitialized data 
.bss                    0xa00088e0          0x8c8        2248  Uninitialized data 
.bss                    0xa00091a8          0x488        1160  Uninitialized data 
.bss                    0xa0009630          0x1cc         460  Uninitialized data 
.bss                    0xa00097fc          0x170         368  Uninitialized data 
.bss                    0xa000996c           0xb8         184  Uninitialized data 
.bss                    0xa0009a24           0x58          88  Uninitialized data 
.bss                    0xa0009a7c           0x30          48  Uninitialized data 
.bss                    0xa0009aac           0x20          32  Uninitialized data 
.bss.errno              0xa0009acc            0x4           4   
.bss                    0xa0009ad0            0x8           8  Uninitialized data 
.bss                    0xa0009ad8            0x4           4  Uninitialized data 
         Total kseg0/kseg1 data_mem used  :      0x9adc       39644  30.2% of 0x20000
        --------------------------------------------------------------------------
            Total Data Memory used  :      0x9adc       39644  30.2% of 0x20000
        --------------------------------------------------------------------------


Dynamic Data-Memory Reservation
section                    address  length [bytes]      (dec)  Description
-------                 ----------  -------------------------  -----------
heap                    0xa0009ae0        0x12110       74000  Reserved for heap 
stack                   0xa001bc08         0x43e8       17384  Reserved for stack 

        --------------------------------------------------------------------------

Note: Microchip PIC32 Memory-Usage Report By Module might not be accurate when used in conjunction with LTO!
Microchip PIC32 Memory-Usage Report By Module

        text        data         bss         dec         hex    basename                    filename
--------------------------------------------------------------------------------
        1032           0       32028       33060        8124    heap_4.o                build/default/production/_ext/1665200909/heap_4.o
       16788           4         892       17684        4514    tcpip_manager.o         build/default/production/_ext/1033058136/tcpip_manager.o
       11556           0          28       11584        2d40    udp.o                   build/default/production/_ext/1033058136/udp.o
       11220           0         116       11336        2c48    drv_ethphy.o            build/default/production/_ext/444070925/drv_ethphy.o
       11180           0          48       11228        2bdc    dhcp.o                  build/default/production/_ext/1033058136/dhcp.o
       11108           0          36       11144        2b88    tcpip_commands.o        build/default/production/_ext/1033058136/tcpip_commands.o
        9728          40           0        9768        2628    tcpip_helpers.o         build/default/production/_ext/1033058136/tcpip_helpers.o
        9332           4         260        9596        257c    FreeRTOS_tasks.o        build/default/production/_ext/404212886/FreeRTOS_tasks.o
        8640         280           4        8924        22dc    drv_ethmac.o            build/default/production/_ext/732082881/drv_ethmac.o
        6340           0        1240        7580        1d9c    sys_command.o           build/default/production/_ext/1376093119/sys_command.o
        7032           6          76        7114        1bca    arp.o                   build/default/production/_ext/1033058136/arp.o
        6496           0          86        6582        19b6    ipv4.o                  build/default/production/_ext/1033058136/ipv4.o
        5648           0         176        5824        16c0    drv_miim.o              build/default/production/_ext/438849557/drv_miim.o
        5020           2         248        5270        1496    sys_time.o              build/default/production/_ext/101884895/sys_time.o
        5224           0           0        5224        1468    drv_ethmac_lib.o        build/default/production/_ext/732082881/drv_ethmac_lib.o
        4144           0           0        4144        1030    queue.o                 build/default/production/_ext/404212886/queue.o
        2892           0         324        3216         c90    plib_uart2.o            build/default/production/_ext/1865657120/plib_uart2.o
         516           4        2052        2572         a0c    port.o                  build/default/production/_ext/951553248/port.o
        2256           0          24        2280         8e8    ethernet.o              build/default/production/_ext/1360937237/ethernet.o
        2276           0           0        2276         8e4    __fmt_fp.o              libc-musl.a
        2204           0           0        2204         89c    fma.o                   libm-musl.a
        2204           0           0        2204         89c    __fmt_a.o               libc-musl.a
        2064           0           0        2064         810    intscan.o               libc-musl.a
        1824           0           0        1824         720    __printf_core.o         libc-musl.a
        1740           0           0        1740         6cc    qsort.o                 libc-musl.a
        1632           0           0        1632         660    tcpip_heap_internal.o   build/default/production/_ext/1033058136/tcpip_heap_internal.o
        1320           0         217        1537         601    sys_console.o           build/default/production/_ext/1832805299/sys_console.o
        1356           0           0        1356         54c    interrupts_a.o          build/default/production/_ext/1171490990/interrupts_a.o
        1336           0           4        1340         53c    tcpip_packet.o          build/default/production/_ext/1033058136/tcpip_packet.o
        1248           0           0        1248         4e0    data_init               data_init
        1208           0           0        1208         4b8    dp32div.o               libm.a
           8         108        1032        1148         47c    stdin.o                 libc-musl.a
        1108           0           0        1108         454    port_asm.o              build/default/production/_ext/951553248/port_asm.o
        1096           0           0        1096         448    drv_eth_pic32_lib.o     build/default/production/_ext/732082881/drv_eth_pic32_lib.o
        1072           0           0        1072         430    dp32subadd.o            libm.a
        1040           0           0        1040         410    oahash.o                build/default/production/_ext/1033058136/oahash.o
         944          36          24        1004         3ec    initialization.o        build/default/production/_ext/1171490990/initialization.o
         964           0           0         964         3c4    osal_freertos.o         build/default/production/_ext/1529399856/osal_freertos.o
         956           0           0         956         3bc    _udivdi3.o              libgcc.a
         952           0           0         952         3b8    _umoddi3.o              libgcc.a
         916           0           0         916         394    plib_uart1.o            build/default/production/_ext/1865657120/plib_uart1.o
         820           0          12         832         340    sys_console_uart.o      build/default/production/_ext/1832805299/sys_console_uart.o
         812           0           0         812         32c    dp32mul.o               libm.a
         764           0           0         764         2fc    drv_miim_pic32m.o       build/default/production/_ext/438849557/drv_miim_pic32m.o
         680           0           0         680         2a8    helpers.o               build/default/production/_ext/1033058136/helpers.o
         624           1           8         633         279    app.o                   build/default/production/_ext/1360937237/app.o
         624           0           8         632         278    icmp.o                  build/default/production/_ext/1033058136/icmp.o
         592           0          36         628         274    sbrk.o                  libpic32.a
         604           0           0         604         25c    tcpip_helper_c32.o      build/default/production/_ext/1033058136/tcpip_helper_c32.o
         536           0           0         536         218    __stdio_write.o         libc-musl.a
         536           0           0         536         218    tcpip_notify.o          build/default/production/_ext/1033058136/tcpip_notify.o
         516           0           0         516         204    _floatdidf.o            libe.a
         512           0           0         512         200    __fmt_x.o               libc-musl.a
         484           0           0         484         1e4    ccncmXzQ.o              /tmp/ccncmXzQ.o
         472           0           8         480         1e0    plib_coretimer.o        build/default/production/_ext/1249264884/plib_coretimer.o
         420           0           8         428         1ac    tasks.o                 build/default/production/_ext/1171490990/tasks.o
         428           0           0         428         1ac    drv_extphy_lan8720.o    build/default/production/_ext/444070925/drv_extphy_lan8720.o
         392           0           0         392         188    __pop_int.o             libc-musl.a
         376           0           0         376         178    plib_evic.o             build/default/production/_ext/1865200349/plib_evic.o
         352           0           4         356         164    lite_free.o             liblmalloc-musl.a
         336           0           0         336         150    __fmt_d.o               libc-musl.a
         320           0           0         320         140    plib_gpio.o             build/default/production/_ext/1865254177/plib_gpio.o
         316           0           0         316         13c    __cvt_u.o               libc-musl.a
         300           0           0         300         12c    dpcmplt.o               libm.a
         300           0           0         300         12c    dpcmp.o                 libm.a
         288           0           8         296         128    sys_time_h2_adapter.o   build/default/production/_ext/753841488/sys_time_h2_adapter.o
         272           0           0         272         110    strtol.o                libc-musl.a
         272           0           0         272         110    freertos_hooks.o        build/default/production/_ext/1171490990/freertos_hooks.o
         264           0           0         264         108    floor32.o               libm.a
         256           0           0         256         100    dptofp.o                libm.a
         256           0           0         256         100    scalbn.o                libm-musl.a
         256           0           0         256         100    list.o                  build/default/production/_ext/404212886/list.o
         244           0           0         244          f4    __fmt_o.o               libc-musl.a
         228           0           0         228          e4    __pop_ptr.o             libc-musl.a
         224           0           0         224          e0    shgetc.o                libc-musl.a
         220           0           0         220          dc    general-exception.o     libpic32.a
         216           0           0         216          d8    strspn.o                libc-size-musl.a
         216           0           0         216          d8    strcspn.o               libc-size-musl.a
         216           0           0         216          d8    sys_int.o               build/default/production/_ext/1881668453/sys_int.o
         208           0           4         212          d4    exceptions.o            build/default/production/_ext/1171490990/exceptions.o
         212           0           0         212          d4    tcpip_heap_alloc.o      build/default/production/_ext/1033058136/tcpip_heap_alloc.o
         204           0           0         204          cc    __stdio_read.o          libc-musl.a
         192           0           0         192          c0    __stdio_close.o         libc-musl.a
         192           0           0         192          c0    vsnprintf.o             libc-musl.a
         192           0           0         192          c0    strchrnul.o             libc-size-musl.a
         188           0           0         188          bc    __fmt_u.o               libc-musl.a
         176           4           0         180          b4    lite_malloc.o           liblmalloc-musl.a
         176           0           0         176          b0    __out.o                 libc-musl.a
         176           0           0         176          b0    hash_fnv.o              build/default/production/_ext/1033058136/hash_fnv.o
         172           0           0         172          ac    fptodp.o                libm.a
         172           0           0         172          ac    setvbuf.o               libc-musl.a
         164           0           4         168          a8    strtok.o                libc-size-musl.a
         164           0           0         164          a4    __fmt_s.o               libc-musl.a
         148           0           0         148          94    __toread.o              libc-musl.a
         144           0           0         144          90    dptoli.o                libm.a
         144           0           0         144          90    pic32_data_init_core.o  libpic32.a
         124           0           0         124          7c    writev.o                libc-musl.a
         124           0           0         124          7c    atoi.o                  libc-musl.a
         124           0           0         124          7c    readv.o                 libc-musl.a
         124           0           0         124          7c    stpncpy.o               libc-size-musl.a
           8         108           0         116          74    stdout.o                libc-musl.a
          92           0          12         104          68    sys_debug.o             build/default/production/_ext/944882569/sys_debug.o
          84           0           0          84          54    __uflow.o               libc-musl.a
          84           0           0          84          54    interrupts.o            build/default/production/_ext/1171490990/interrupts.o
          80           0           0          80          50    __pop_float.o           libc-musl.a
          76           0           0          76          4c    sys_reset.o             build/default/production/_ext/1000052432/sys_reset.o
          72           0           0          72          48    strncmp.o               libc-size-musl.a
          72           0           0          72          48    defaultinterrupt.o      libpic32.a
          68           0           0          68          44    __towrite.o             libc-musl.a
          68           0           0          68          44    pic32_software_reset.o  /opt/microchip/xc32/v4.60/bin/bin/../../lib/gcc/pic32mx/8.3.1/../../../../pic32mx/lib/pic32_software_reset.o
          68           0           0          68          44    debug-exception-return.o/opt/microchip/xc32/v4.60/bin/bin/../../lib/gcc/pic32mx/8.3.1/../../../../pic32mx/lib/debug-exception-return.o
          60           0           0          60          3c    _ashldi3.o              libgcc.a
          60           0           0          60          3c    _lshrdi3.o              libgcc.a
          60           0           0          60          3c    vfprintf.o              libc-musl.a
          60           0           0          60          3c    __towrite_rw.o          libc-musl.a
          60           0           0          60          3c    expand_heap.o           libc-musl.a
          56           0           0          56          38    strrchr.o               libc-size-musl.a
          56           0           0          56          38    memcmp.o                libc-size-musl.a
          56           0           0          56          38    xc32_monitor.o          build/default/production/_ext/163028504/xc32_monitor.o
          52           0           0          52          34    __fwrite.o              libc-musl.a
          52           0           0          52          34    strchr.o                libc-size-musl.a
          48           0           0          48          30    strlen.o                libc-size-musl.a
          44           0           0          44          2c    strcmp.o                libc-size-musl.a
          44           0           0          44          2c    memcpy.o                libc-size-musl.a
          40           0           0          40          28    vsprintf.o              libc-musl.a
          40           0           0          40          28    sprintf.o               libc-musl.a
          36           0           4          40          28    rand.o                  libc-musl.a
          40           0           0          40          28    stpcpy.o                libc-size-musl.a
          40           0           0          40          28    memrchr.o               libc-size-musl.a
          40           0           0          40          28    strncpy.o               libc-size-musl.a
          40           0           0          40          28    strcpy.o                libc-size-musl.a
          40           0           0          40          28    memset.o                libc-size-musl.a
          36           0           0          36          24    setbuf.o                libc-musl.a
          36           0           0          36          24    isxdigit.o              libc-musl.a
          36           0           0          36          24    isalnum.o               libc-musl.a
          32           0           0          32          20    pic32_data_init_copy.o  libpic32.a
          32           0           0          32          20    main.o                  build/default/production/_ext/1360937237/main.o
          28           0           0          28          1c    toupper.o               libc-musl.a
          28           0           0          28          1c    tolower.o               libc-musl.a
          28           0           0          28          1c    plib_clk.o              build/default/production/_ext/60165520/plib_clk.o
          24           0           0          24          18    pic32_data_init_clear.o libpic32.a
          24           0           0          24          18    default-nmi-handler.o   libpic32.a
           8           0           0           8           8    close.o                 libpic32.a
           8           0           0           8           8    lseek.o                 libpic32.a
           8           0           0           8           8    vector51.o              libpic32.a
           8           0           0           8           8    vector50.o              libpic32.a
           8           0           0           8           8    vector49.o              libpic32.a
           8           0           0           8           8    vector47.o              libpic32.a
           8           0           0           8           8    vector46.o              libpic32.a
           8           0           0           8           8    vector45.o              libpic32.a
           8           0           0           8           8    vector44.o              libpic32.a
           8           0           0           8           8    vector43.o              libpic32.a
           8           0           0           8           8    vector42.o              libpic32.a
           8           0           0           8           8    vector41.o              libpic32.a
           8           0           0           8           8    vector40.o              libpic32.a
           8           0           0           8           8    vector39.o              libpic32.a
           8           0           0           8           8    vector38.o              libpic32.a
           8           0           0           8           8    vector37.o              libpic32.a
           8           0           0           8           8    vector36.o              libpic32.a
           8           0           0           8           8    vector35.o              libpic32.a
           8           0           0           8           8    vector34.o              libpic32.a
           8           0           0           8           8    vector33.o              libpic32.a
           8           0           0           8           8    vector31.o              libpic32.a
           8           0           0           8           8    vector30.o              libpic32.a
           8           0           0           8           8    vector29.o              libpic32.a
           8           0           0           8           8    vector28.o              libpic32.a
           8           0           0           8           8    vector27.o              libpic32.a
           8           0           0           8           8    vector26.o              libpic32.a
           8           0           0           8           8    vector25.o              libpic32.a
           8           0           0           8           8    vector24.o              libpic32.a
           8           0           0           8           8    vector23.o              libpic32.a
           8           0           0           8           8    vector22.o              libpic32.a
           8           0           0           8           8    vector21.o              libpic32.a
           8           0           0           8           8    vector20.o              libpic32.a
           8           0           0           8           8    vector19.o              libpic32.a
           8           0           0           8           8    vector18.o              libpic32.a
           8           0           0           8           8    vector17.o              libpic32.a
           8           0           0           8           8    vector16.o              libpic32.a
           8           0           0           8           8    vector15.o              libpic32.a
           8           0           0           8           8    vector14.o              libpic32.a
           8           0           0           8           8    vector13.o              libpic32.a
           8           0           0           8           8    vector12.o              libpic32.a
           8           0           0           8           8    vector11.o              libpic32.a
           8           0           0           8           8    vector10.o              libpic32.a
           8           0           0           8           8    vector9.o               libpic32.a
           8           0           0           8           8    vector8.o               libpic32.a
           8           0           0           8           8    vector7.o               libpic32.a
           8           0           0           8           8    vector6.o               libpic32.a
           8           0           0           8           8    vector5.o               libpic32.a
           8           0           0           8           8    vector3.o               libpic32.a
           8           0           0           8           8    vector2.o               libpic32.a
           8           0           0           8           8    default-on-bootstrap.o  libpic32.a
           8           0           0           8           8    default-on-reset.o      libpic32.a
           0           0           4           4           4    errno.o                 libpic32.a
           0           0           0          12           c    padding                 padding
--------------------------------------------------------------------------------
      187192         597       39035      226836       37614    dist/default/production/node90.X.production.elf


Discarded input sections

 .text          0x0000000000000000        0x0 /opt/microchip/xc32/v4.60/bin/bin/../../lib/gcc/pic32mx/8.3.1/../../../../pic32mx/lib/debug-exception-return.o
 .data          0x0000000000000000        0x0 /opt/microchip/xc32/v4.60/bin/bin/../../lib/gcc/pic32mx/8.3.1/../../../../pic32mx/lib/debug-exception-return.o
 .bss           0x0000000000000000        0x0 /opt/microchip/xc32/v4.60/bin/bin/../../lib/gcc/pic32mx/8.3.1/../../../../pic32mx/lib/debug-exception-return.o
 .xc_stack_usage.hdr
                0x0000000000000000        0xe /opt/microchip/xc32/v4.60/bin/bin/../../lib/gcc/pic32mx/8.3.1/../../../../pic32mx/lib/debug-exception-return.o
 .xc_stack_usage
                0x0000000000000000       0x1d /opt/microchip/xc32/v4.60/bin/bin/../../lib/gcc/pic32mx/8.3.1/../../../../pic32mx/lib/debug-exception-return.o
 .data          0x0000000000000000        0x0 build/default/production/_ext/732082881/drv_eth_pic32_lib.o
 .bss           0x0000000000000000        0x0 build/default/production/_ext/732082881/drv_eth_pic32_lib.o
 .reginfo       0x0000000000000000       0x18 build/default/production/_ext/732082881/drv_eth_pic32_lib.o
 .MIPS.abiflags
                0x0000000000000000       0x18 build/default/production/_ext/732082881/drv_eth_pic32_lib.o
 .bss           0x0000000000000000        0x0 build/default/production/_ext/732082881/drv_ethmac.o
 .reginfo       0x0000000000000000       0x18 build/default/production/_ext/732082881/drv_ethmac.o
 .MIPS.abiflags
                0x0000000000000000       0x18 build/default/production/_ext/732082881/drv_ethmac.o
 .data          0x0000000000000000        0x0 build/default/production/_ext/732082881/drv_ethmac_lib.o
 .bss           0x0000000000000000        0x0 build/default/production/_ext/732082881/drv_ethmac_lib.o
 .reginfo       0x0000000000000000       0x18 build/default/production/_ext/732082881/drv_ethmac_lib.o
 .MIPS.abiflags
                0x0000000000000000       0x18 build/default/production/_ext/732082881/drv_ethmac_lib.o
 .data          0x0000000000000000        0x0 build/default/production/_ext/444070925/drv_ethphy.o
 .reginfo       0x0000000000000000       0x18 build/default/production/_ext/444070925/drv_ethphy.o
 .MIPS.abiflags
                0x0000000000000000       0x18 build/default/production/_ext/444070925/drv_ethphy.o
 .data          0x0000000000000000        0x0 build/default/production/_ext/444070925/drv_extphy_lan8720.o
 .bss           0x0000000000000000        0x0 build/default/production/_ext/444070925/drv_extphy_lan8720.o
 .reginfo       0x0000000000000000       0x18 build/default/production/_ext/444070925/drv_extphy_lan8720.o
 .MIPS.abiflags
                0x0000000000000000       0x18 build/default/production/_ext/444070925/drv_extphy_lan8720.o
 .data          0x0000000000000000        0x0 build/default/production/_ext/438849557/drv_miim_pic32m.o
 .bss           0x0000000000000000        0x0 build/default/production/_ext/438849557/drv_miim_pic32m.o
 .reginfo       0x0000000000000000       0x18 build/default/production/_ext/438849557/drv_miim_pic32m.o
 .MIPS.abiflags
                0x0000000000000000       0x18 build/default/production/_ext/438849557/drv_miim_pic32m.o
 .data          0x0000000000000000        0x0 build/default/production/_ext/438849557/drv_miim.o
 .reginfo       0x0000000000000000       0x18 build/default/production/_ext/438849557/drv_miim.o
 .MIPS.abiflags
                0x0000000000000000       0x18 build/default/production/_ext/438849557/drv_miim.o
 .data          0x0000000000000000        0x0 build/default/production/_ext/1033058136/helpers.o
 .bss           0x0000000000000000        0x0 build/default/production/_ext/1033058136/helpers.o
 .reginfo       0x0000000000000000       0x18 build/default/production/_ext/1033058136/helpers.o
 .MIPS.abiflags
                0x0000000000000000       0x18 build/default/production/_ext/1033058136/helpers.o
 .data          0x0000000000000000        0x0 build/default/production/_ext/1033058136/dhcp.o
 .reginfo       0x0000000000000000       0x18 build/default/production/_ext/1033058136/dhcp.o
 .MIPS.abiflags
                0x0000000000000000       0x18 build/default/production/_ext/1033058136/dhcp.o
 .data          0x0000000000000000        0x0 build/default/production/_ext/1033058136/ipv4.o
 .reginfo       0x0000000000000000       0x18 build/default/production/_ext/1033058136/ipv4.o
 .MIPS.abiflags
                0x0000000000000000       0x18 build/default/production/_ext/1033058136/ipv4.o
 .data          0x0000000000000000        0x0 build/default/production/_ext/1033058136/tcpip_commands.o
 .reginfo       0x0000000000000000       0x18 build/default/production/_ext/1033058136/tcpip_commands.o
 .MIPS.abiflags
                0x0000000000000000       0x18 build/default/production/_ext/1033058136/tcpip_commands.o
 .data          0x0000000000000000        0x0 build/default/production/_ext/1033058136/tcpip_notify.o
 .bss           0x0000000000000000        0x0 build/default/production/_ext/1033058136/tcpip_notify.o
 .reginfo       0x0000000000000000       0x18 build/default/production/_ext/1033058136/tcpip_notify.o
 .MIPS.abiflags
                0x0000000000000000       0x18 build/default/production/_ext/1033058136/tcpip_notify.o
 .bss           0x0000000000000000        0x0 build/default/production/_ext/1033058136/tcpip_helpers.o
 .reginfo       0x0000000000000000       0x18 build/default/production/_ext/1033058136/tcpip_helpers.o
 .MIPS.abiflags
                0x0000000000000000       0x18 build/default/production/_ext/1033058136/tcpip_helpers.o
 .data          0x0000000000000000        0x0 build/default/production/_ext/1033058136/tcpip_packet.o
 .bss           0x0000000000000000        0x0 build/default/production/_ext/1033058136/tcpip_packet.o
 .reginfo       0x0000000000000000       0x18 build/default/production/_ext/1033058136/tcpip_packet.o
 .MIPS.abiflags
                0x0000000000000000       0x18 build/default/production/_ext/1033058136/tcpip_packet.o
 .data          0x0000000000000000        0x0 build/default/production/_ext/1033058136/oahash.o
 .bss           0x0000000000000000        0x0 build/default/production/_ext/1033058136/oahash.o
 .reginfo       0x0000000000000000       0x18 build/default/production/_ext/1033058136/oahash.o
 .MIPS.abiflags
                0x0000000000000000       0x18 build/default/production/_ext/1033058136/oahash.o
 .data          0x0000000000000000        0x0 build/default/production/_ext/1033058136/udp.o
 .bss           0x0000000000000000        0x0 build/default/production/_ext/1033058136/udp.o
 .reginfo       0x0000000000000000       0x18 build/default/production/_ext/1033058136/udp.o
 .MIPS.abiflags
                0x0000000000000000       0x18 build/default/production/_ext/1033058136/udp.o
 .data          0x0000000000000000        0x0 build/default/production/_ext/1033058136/arp.o
 .reginfo       0x0000000000000000       0x18 build/default/production/_ext/1033058136/arp.o
 .MIPS.abiflags
                0x0000000000000000       0x18 build/default/production/_ext/1033058136/arp.o
 .data          0x0000000000000000        0x0 build/default/production/_ext/1033058136/icmp.o
 .bss           0x0000000000000000        0x0 build/default/production/_ext/1033058136/icmp.o
 .reginfo       0x0000000000000000       0x18 build/default/production/_ext/1033058136/icmp.o
 .MIPS.abiflags
                0x0000000000000000       0x18 build/default/production/_ext/1033058136/icmp.o
 .data          0x0000000000000000        0x0 build/default/production/_ext/1033058136/tcpip_heap_internal.o
 .bss           0x0000000000000000        0x0 build/default/production/_ext/1033058136/tcpip_heap_internal.o
 .reginfo       0x0000000000000000       0x18 build/default/production/_ext/1033058136/tcpip_heap_internal.o
 .MIPS.abiflags
                0x0000000000000000       0x18 build/default/production/_ext/1033058136/tcpip_heap_internal.o
 .data          0x0000000000000000        0x0 build/default/production/_ext/1033058136/hash_fnv.o
 .bss           0x0000000000000000        0x0 build/default/production/_ext/1033058136/hash_fnv.o
 .reginfo       0x0000000000000000       0x18 build/default/production/_ext/1033058136/hash_fnv.o
 .MIPS.abiflags
                0x0000000000000000       0x18 build/default/production/_ext/1033058136/hash_fnv.o
 .text          0x0000000000000000       0x50 build/default/production/_ext/1033058136/dns.o
 .data          0x0000000000000000        0x0 build/default/production/_ext/1033058136/dns.o
 .bss           0x0000000000000000        0x0 build/default/production/_ext/1033058136/dns.o
 .reginfo       0x0000000000000000       0x18 build/default/production/_ext/1033058136/dns.o
 .MIPS.abiflags
                0x0000000000000000       0x18 build/default/production/_ext/1033058136/dns.o
 .data          0x0000000000000000        0x0 build/default/production/_ext/1033058136/tcpip_helper_c32.o
 .bss           0x0000000000000000        0x0 build/default/production/_ext/1033058136/tcpip_helper_c32.o
 .reginfo       0x0000000000000000       0x18 build/default/production/_ext/1033058136/tcpip_helper_c32.o
 .MIPS.abiflags
                0x0000000000000000       0x18 build/default/production/_ext/1033058136/tcpip_helper_c32.o
 .data          0x0000000000000000        0x0 build/default/production/_ext/1033058136/tcpip_heap_alloc.o
 .bss           0x0000000000000000        0x0 build/default/production/_ext/1033058136/tcpip_heap_alloc.o
 .reginfo       0x0000000000000000       0x18 build/default/production/_ext/1033058136/tcpip_heap_alloc.o
 .MIPS.abiflags
                0x0000000000000000       0x18 build/default/production/_ext/1033058136/tcpip_heap_alloc.o
 .data          0x0000000000000000        0x0 build/default/production/_ext/1033058136/tcpip_manager.o
 .reginfo       0x0000000000000000       0x18 build/default/production/_ext/1033058136/tcpip_manager.o
 .MIPS.abiflags
                0x0000000000000000       0x18 build/default/production/_ext/1033058136/tcpip_manager.o
 .data          0x0000000000000000        0x0 build/default/production/_ext/1529399856/osal_freertos.o
 .bss           0x0000000000000000        0x0 build/default/production/_ext/1529399856/osal_freertos.o
 .reginfo       0x0000000000000000       0x18 build/default/production/_ext/1529399856/osal_freertos.o
 .MIPS.abiflags
                0x0000000000000000       0x18 build/default/production/_ext/1529399856/osal_freertos.o
 .data          0x0000000000000000        0x0 build/default/production/_ext/60165520/plib_clk.o
 .bss           0x0000000000000000        0x0 build/default/production/_ext/60165520/plib_clk.o
 .reginfo       0x0000000000000000       0x18 build/default/production/_ext/60165520/plib_clk.o
 .MIPS.abiflags
                0x0000000000000000       0x18 build/default/production/_ext/60165520/plib_clk.o
 .data          0x0000000000000000        0x0 build/default/production/_ext/1249264884/plib_coretimer.o
 .bss           0x0000000000000000        0x0 build/default/production/_ext/1249264884/plib_coretimer.o
 .reginfo       0x0000000000000000       0x18 build/default/production/_ext/1249264884/plib_coretimer.o
 .MIPS.abiflags
                0x0000000000000000       0x18 build/default/production/_ext/1249264884/plib_coretimer.o
 .data          0x0000000000000000        0x0 build/default/production/_ext/1865200349/plib_evic.o
 .bss           0x0000000000000000        0x0 build/default/production/_ext/1865200349/plib_evic.o
 .reginfo       0x0000000000000000       0x18 build/default/production/_ext/1865200349/plib_evic.o
 .MIPS.abiflags
                0x0000000000000000       0x18 build/default/production/_ext/1865200349/plib_evic.o
 .data          0x0000000000000000        0x0 build/default/production/_ext/1865254177/plib_gpio.o
 .bss           0x0000000000000000        0x0 build/default/production/_ext/1865254177/plib_gpio.o
 .reginfo       0x0000000000000000       0x18 build/default/production/_ext/1865254177/plib_gpio.o
 .MIPS.abiflags
                0x0000000000000000       0x18 build/default/production/_ext/1865254177/plib_gpio.o
 .data          0x0000000000000000        0x0 build/default/production/_ext/1865657120/plib_uart2.o
 .reginfo       0x0000000000000000       0x18 build/default/production/_ext/1865657120/plib_uart2.o
 .MIPS.abiflags
                0x0000000000000000       0x18 build/default/production/_ext/1865657120/plib_uart2.o
 .data          0x0000000000000000        0x0 build/default/production/_ext/1865657120/plib_uart1.o
 .bss           0x0000000000000000        0x0 build/default/production/_ext/1865657120/plib_uart1.o
 .reginfo       0x0000000000000000       0x18 build/default/production/_ext/1865657120/plib_uart1.o
 .MIPS.abiflags
                0x0000000000000000       0x18 build/default/production/_ext/1865657120/plib_uart1.o
 .data          0x0000000000000000        0x0 build/default/production/_ext/163028504/xc32_monitor.o
 .bss           0x0000000000000000        0x0 build/default/production/_ext/163028504/xc32_monitor.o
 .reginfo       0x0000000000000000       0x18 build/default/production/_ext/163028504/xc32_monitor.o
 .MIPS.abiflags
                0x0000000000000000       0x18 build/default/production/_ext/163028504/xc32_monitor.o
 .data          0x0000000000000000        0x0 build/default/production/_ext/1376093119/sys_command.o
 .reginfo       0x0000000000000000       0x18 build/default/production/_ext/1376093119/sys_command.o
 .MIPS.abiflags
                0x0000000000000000       0x18 build/default/production/_ext/1376093119/sys_command.o
 .data          0x0000000000000000        0x0 build/default/production/_ext/1832805299/sys_console_uart.o
 .reginfo       0x0000000000000000       0x18 build/default/production/_ext/1832805299/sys_console_uart.o
 .MIPS.abiflags
                0x0000000000000000       0x18 build/default/production/_ext/1832805299/sys_console_uart.o
 .data          0x0000000000000000        0x0 build/default/production/_ext/1832805299/sys_console.o
 .reginfo       0x0000000000000000       0x18 build/default/production/_ext/1832805299/sys_console.o
 .MIPS.abiflags
                0x0000000000000000       0x18 build/default/production/_ext/1832805299/sys_console.o
 .data          0x0000000000000000        0x0 build/default/production/_ext/944882569/sys_debug.o
 .bss           0x0000000000000000        0x0 build/default/production/_ext/944882569/sys_debug.o
 .reginfo       0x0000000000000000       0x18 build/default/production/_ext/944882569/sys_debug.o
 .MIPS.abiflags
                0x0000000000000000       0x18 build/default/production/_ext/944882569/sys_debug.o
 .data          0x0000000000000000        0x0 build/default/production/_ext/1881668453/sys_int.o
 .bss           0x0000000000000000        0x0 build/default/production/_ext/1881668453/sys_int.o
 .reginfo       0x0000000000000000       0x18 build/default/production/_ext/1881668453/sys_int.o
 .MIPS.abiflags
                0x0000000000000000       0x18 build/default/production/_ext/1881668453/sys_int.o
 .data          0x0000000000000000        0x0 build/default/production/_ext/1000052432/sys_reset.o
 .bss           0x0000000000000000        0x0 build/default/production/_ext/1000052432/sys_reset.o
 .reginfo       0x0000000000000000       0x18 build/default/production/_ext/1000052432/sys_reset.o
 .MIPS.abiflags
                0x0000000000000000       0x18 build/default/production/_ext/1000052432/sys_reset.o
 .data          0x0000000000000000        0x0 build/default/production/_ext/101884895/sys_time.o
 .reginfo       0x0000000000000000       0x18 build/default/production/_ext/101884895/sys_time.o
 .MIPS.abiflags
                0x0000000000000000       0x18 build/default/production/_ext/101884895/sys_time.o
 .data          0x0000000000000000        0x0 build/default/production/_ext/753841488/sys_time_h2_adapter.o
 .bss           0x0000000000000000        0x0 build/default/production/_ext/753841488/sys_time_h2_adapter.o
 .reginfo       0x0000000000000000       0x18 build/default/production/_ext/753841488/sys_time_h2_adapter.o
 .MIPS.abiflags
                0x0000000000000000       0x18 build/default/production/_ext/753841488/sys_time_h2_adapter.o
 .reginfo       0x0000000000000000       0x18 build/default/production/_ext/1171490990/initialization.o
 .MIPS.abiflags
                0x0000000000000000       0x18 build/default/production/_ext/1171490990/initialization.o
 .data          0x0000000000000000        0x0 build/default/production/_ext/1171490990/interrupts.o
 .bss           0x0000000000000000        0x0 build/default/production/_ext/1171490990/interrupts.o
 .reginfo       0x0000000000000000       0x18 build/default/production/_ext/1171490990/interrupts.o
 .MIPS.abiflags
                0x0000000000000000       0x18 build/default/production/_ext/1171490990/interrupts.o
 .data          0x0000000000000000        0x0 build/default/production/_ext/1171490990/freertos_hooks.o
 .bss           0x0000000000000000        0x0 build/default/production/_ext/1171490990/freertos_hooks.o
 .reginfo       0x0000000000000000       0x18 build/default/production/_ext/1171490990/freertos_hooks.o
 .MIPS.abiflags
                0x0000000000000000       0x18 build/default/production/_ext/1171490990/freertos_hooks.o
 .text          0x0000000000000000        0x0 build/default/production/_ext/1171490990/interrupts_a.o
 .data          0x0000000000000000        0x0 build/default/production/_ext/1171490990/interrupts_a.o
 .bss           0x0000000000000000        0x0 build/default/production/_ext/1171490990/interrupts_a.o
 .reginfo       0x0000000000000000       0x18 build/default/production/_ext/1171490990/interrupts_a.o
 .MIPS.abiflags
                0x0000000000000000       0x18 build/default/production/_ext/1171490990/interrupts_a.o
 .data          0x0000000000000000        0x0 build/default/production/_ext/1171490990/exceptions.o
 .bss           0x0000000000000000        0x0 build/default/production/_ext/1171490990/exceptions.o
 .reginfo       0x0000000000000000       0x18 build/default/production/_ext/1171490990/exceptions.o
 .MIPS.abiflags
                0x0000000000000000       0x18 build/default/production/_ext/1171490990/exceptions.o
 .data          0x0000000000000000        0x0 build/default/production/_ext/1171490990/tasks.o
 .bss           0x0000000000000000        0x0 build/default/production/_ext/1171490990/tasks.o
 .reginfo       0x0000000000000000       0x18 build/default/production/_ext/1171490990/tasks.o
 .MIPS.abiflags
                0x0000000000000000       0x18 build/default/production/_ext/1171490990/tasks.o
 .data          0x0000000000000000        0x0 build/default/production/_ext/1665200909/heap_4.o
 .reginfo       0x0000000000000000       0x18 build/default/production/_ext/1665200909/heap_4.o
 .MIPS.abiflags
                0x0000000000000000       0x18 build/default/production/_ext/1665200909/heap_4.o
 .data          0x0000000000000000        0x0 build/default/production/_ext/951553248/port_asm.o
 .bss           0x0000000000000000        0x0 build/default/production/_ext/951553248/port_asm.o
 .reginfo       0x0000000000000000       0x18 build/default/production/_ext/951553248/port_asm.o
 .MIPS.abiflags
                0x0000000000000000       0x18 build/default/production/_ext/951553248/port_asm.o
 .data          0x0000000000000000        0x0 build/default/production/_ext/951553248/port.o
 .reginfo       0x0000000000000000       0x18 build/default/production/_ext/951553248/port.o
 .MIPS.abiflags
                0x0000000000000000       0x18 build/default/production/_ext/951553248/port.o
 .reginfo       0x0000000000000000       0x18 build/default/production/_ext/404212886/FreeRTOS_tasks.o
 .MIPS.abiflags
                0x0000000000000000       0x18 build/default/production/_ext/404212886/FreeRTOS_tasks.o
 .text          0x0000000000000000      0x48c build/default/production/_ext/404212886/event_groups.o
 .data          0x0000000000000000        0x0 build/default/production/_ext/404212886/event_groups.o
 .bss           0x0000000000000000        0x0 build/default/production/_ext/404212886/event_groups.o
 .reginfo       0x0000000000000000       0x18 build/default/production/_ext/404212886/event_groups.o
 .MIPS.abiflags
                0x0000000000000000       0x18 build/default/production/_ext/404212886/event_groups.o
 .data          0x0000000000000000        0x0 build/default/production/_ext/404212886/list.o
 .bss           0x0000000000000000        0x0 build/default/production/_ext/404212886/list.o
 .reginfo       0x0000000000000000       0x18 build/default/production/_ext/404212886/list.o
 .MIPS.abiflags
                0x0000000000000000       0x18 build/default/production/_ext/404212886/list.o
 .data          0x0000000000000000        0x0 build/default/production/_ext/404212886/queue.o
 .bss           0x0000000000000000        0x0 build/default/production/_ext/404212886/queue.o
 .reginfo       0x0000000000000000       0x18 build/default/production/_ext/404212886/queue.o
 .MIPS.abiflags
                0x0000000000000000       0x18 build/default/production/_ext/404212886/queue.o
 .text          0x0000000000000000      0xadc build/default/production/_ext/404212886/stream_buffer.o
 .data          0x0000000000000000        0x0 build/default/production/_ext/404212886/stream_buffer.o
 .bss           0x0000000000000000        0x0 build/default/production/_ext/404212886/stream_buffer.o
 .reginfo       0x0000000000000000       0x18 build/default/production/_ext/404212886/stream_buffer.o
 .MIPS.abiflags
                0x0000000000000000       0x18 build/default/production/_ext/404212886/stream_buffer.o
 .text          0x0000000000000000        0x0 build/default/production/_ext/404212886/timers.o
 .data          0x0000000000000000        0x0 build/default/production/_ext/404212886/timers.o
 .bss           0x0000000000000000        0x0 build/default/production/_ext/404212886/timers.o
 .reginfo       0x0000000000000000       0x18 build/default/production/_ext/404212886/timers.o
 .MIPS.abiflags
                0x0000000000000000       0x18 build/default/production/_ext/404212886/timers.o
 .text          0x0000000000000000        0x0 build/default/production/_ext/404212886/croutine.o
 .data          0x0000000000000000        0x0 build/default/production/_ext/404212886/croutine.o
 .bss           0x0000000000000000        0x0 build/default/production/_ext/404212886/croutine.o
 .reginfo       0x0000000000000000       0x18 build/default/production/_ext/404212886/croutine.o
 .MIPS.abiflags
                0x0000000000000000       0x18 build/default/production/_ext/404212886/croutine.o
 .data          0x0000000000000000        0x0 build/default/production/_ext/1360937237/main.o
 .bss           0x0000000000000000        0x0 build/default/production/_ext/1360937237/main.o
 .reginfo       0x0000000000000000       0x18 build/default/production/_ext/1360937237/main.o
 .MIPS.abiflags
                0x0000000000000000       0x18 build/default/production/_ext/1360937237/main.o
 .data          0x0000000000000000        0x0 build/default/production/_ext/1360937237/app.o
 .bss           0x0000000000000000        0x0 build/default/production/_ext/1360937237/app.o
 .reginfo       0x0000000000000000       0x18 build/default/production/_ext/1360937237/app.o
 .MIPS.abiflags
                0x0000000000000000       0x18 build/default/production/_ext/1360937237/app.o
 .data          0x0000000000000000        0x0 build/default/production/_ext/1360937237/ethernet.o
 .bss           0x0000000000000000        0x0 build/default/production/_ext/1360937237/ethernet.o
 .reginfo       0x0000000000000000       0x18 build/default/production/_ext/1360937237/ethernet.o
 .MIPS.abiflags
                0x0000000000000000       0x18 build/default/production/_ext/1360937237/ethernet.o
 .text          0x0000000000000000        0x0 /tmp/ccncmXzQ.o
 .data          0x0000000000000000        0x0 /tmp/ccncmXzQ.o
 .bss           0x0000000000000000        0x0 /tmp/ccncmXzQ.o
 .reginfo       0x0000000000000000       0x18 /tmp/ccncmXzQ.o
 .MIPS.abiflags
                0x0000000000000000       0x18 /tmp/ccncmXzQ.o
 .text          0x0000000000000000        0x0 /tmp/cc5ufJAa.o
 .data          0x0000000000000000        0x0 /tmp/cc5ufJAa.o
 .bss           0x0000000000000000        0x0 /tmp/cc5ufJAa.o
 .reginfo       0x0000000000000000       0x18 /tmp/cc5ufJAa.o
 .MIPS.abiflags
                0x0000000000000000       0x18 /tmp/cc5ufJAa.o
 .text          0x0000000000000000        0x0 /tmp/ccG3yx4C.o
 .data          0x0000000000000000        0x0 /tmp/ccG3yx4C.o
 .bss           0x0000000000000000        0x0 /tmp/ccG3yx4C.o
 .reginfo       0x0000000000000000       0x18 /tmp/ccG3yx4C.o
 .MIPS.abiflags
                0x0000000000000000       0x18 /tmp/ccG3yx4C.o
 .discard       0x0000000000000000       0xd0 /tmp/ccG3yx4C.o
 .data          0x0000000000000000        0x0 /opt/microchip/xc32/v4.60/bin/bin/../../lib/gcc/pic32mx/8.3.1/../../../../pic32mx/lib/pic32_software_reset.o
 .bss           0x0000000000000000        0x0 /opt/microchip/xc32/v4.60/bin/bin/../../lib/gcc/pic32mx/8.3.1/../../../../pic32mx/lib/pic32_software_reset.o
 .reginfo       0x0000000000000000       0x18 /opt/microchip/xc32/v4.60/bin/bin/../../lib/gcc/pic32mx/8.3.1/../../../../pic32mx/lib/pic32_software_reset.o
 .MIPS.abiflags
                0x0000000000000000       0x18 /opt/microchip/xc32/v4.60/bin/bin/../../lib/gcc/pic32mx/8.3.1/../../../../pic32mx/lib/pic32_software_reset.o
 .xc_stack_usage.hdr
                0x0000000000000000        0xe /opt/microchip/xc32/v4.60/bin/bin/../../lib/gcc/pic32mx/8.3.1/../../../../pic32mx/lib/pic32_software_reset.o
 .xc_stack_usage
                0x0000000000000000       0x24 /opt/microchip/xc32/v4.60/bin/bin/../../lib/gcc/pic32mx/8.3.1/../../../../pic32mx/lib/pic32_software_reset.o
 .data          0x0000000000000000        0x0 /opt/microchip/xc32/v4.60/bin/bin/../../lib/gcc/pic32mx/8.3.1/libgcc.a(_udivdi3.o)
 .bss           0x0000000000000000        0x0 /opt/microchip/xc32/v4.60/bin/bin/../../lib/gcc/pic32mx/8.3.1/libgcc.a(_udivdi3.o)
 .reginfo       0x0000000000000000       0x18 /opt/microchip/xc32/v4.60/bin/bin/../../lib/gcc/pic32mx/8.3.1/libgcc.a(_udivdi3.o)
 .MIPS.abiflags
                0x0000000000000000       0x18 /opt/microchip/xc32/v4.60/bin/bin/../../lib/gcc/pic32mx/8.3.1/libgcc.a(_udivdi3.o)
 .xc_stack_usage
                0x0000000000000000       0x17 /opt/microchip/xc32/v4.60/bin/bin/../../lib/gcc/pic32mx/8.3.1/libgcc.a(_udivdi3.o)
 .xc_stack_usage.hdr
                0x0000000000000000        0xe /opt/microchip/xc32/v4.60/bin/bin/../../lib/gcc/pic32mx/8.3.1/libgcc.a(_udivdi3.o)
 .text          0x0000000000000000        0x0 /opt/microchip/xc32/v4.60/bin/bin/../../lib/gcc/pic32mx/8.3.1/../../../../pic32mx/lib/libpic32.a(default-on-reset.o)
 .data          0x0000000000000000        0x0 /opt/microchip/xc32/v4.60/bin/bin/../../lib/gcc/pic32mx/8.3.1/../../../../pic32mx/lib/libpic32.a(default-on-reset.o)
 .bss           0x0000000000000000        0x0 /opt/microchip/xc32/v4.60/bin/bin/../../lib/gcc/pic32mx/8.3.1/../../../../pic32mx/lib/libpic32.a(default-on-reset.o)
 .reginfo       0x0000000000000000       0x18 /opt/microchip/xc32/v4.60/bin/bin/../../lib/gcc/pic32mx/8.3.1/../../../../pic32mx/lib/libpic32.a(default-on-reset.o)
 .MIPS.abiflags
                0x0000000000000000       0x18 /opt/microchip/xc32/v4.60/bin/bin/../../lib/gcc/pic32mx/8.3.1/../../../../pic32mx/lib/libpic32.a(default-on-reset.o)
 .xc_stack_usage
                0x0000000000000000       0x17 /opt/microchip/xc32/v4.60/bin/bin/../../lib/gcc/pic32mx/8.3.1/../../../../pic32mx/lib/libpic32.a(default-on-reset.o)
 .xc_stack_usage.hdr
                0x0000000000000000        0xe /opt/microchip/xc32/v4.60/bin/bin/../../lib/gcc/pic32mx/8.3.1/../../../../pic32mx/lib/libpic32.a(default-on-reset.o)
 .text          0x0000000000000000        0x0 /opt/microchip/xc32/v4.60/bin/bin/../../lib/gcc/pic32mx/8.3.1/../../../../pic32mx/lib/libpic32.a(default-on-bootstrap.o)
 .data          0x0000000000000000        0x0 /opt/microchip/xc32/v4.60/bin/bin/../../lib/gcc/pic32mx/8.3.1/../../../../pic32mx/lib/libpic32.a(default-on-bootstrap.o)
 .bss           0x0000000000000000        0x0 /opt/microchip/xc32/v4.60/bin/bin/../../lib/gcc/pic32mx/8.3.1/../../../../pic32mx/lib/libpic32.a(default-on-bootstrap.o)
 .reginfo       0x0000000000000000       0x18 /opt/microchip/xc32/v4.60/bin/bin/../../lib/gcc/pic32mx/8.3.1/../../../../pic32mx/lib/libpic32.a(default-on-bootstrap.o)
 .MIPS.abiflags
                0x0000000000000000       0x18 /opt/microchip/xc32/v4.60/bin/bin/../../lib/gcc/pic32mx/8.3.1/../../../../pic32mx/lib/libpic32.a(default-on-bootstrap.o)
 .xc_stack_usage
                0x0000000000000000       0x1b /opt/microchip/xc32/v4.60/bin/bin/../../lib/gcc/pic32mx/8.3.1/../../../../pic32mx/lib/libpic32.a(default-on-bootstrap.o)
 .xc_stack_usage.hdr
                0x0000000000000000        0xe /opt/microchip/xc32/v4.60/bin/bin/../../lib/gcc/pic32mx/8.3.1/../../../../pic32mx/lib/libpic32.a(default-on-bootstrap.o)
 .data          0x0000000000000000        0x0 /opt/microchip/xc32/v4.60/bin/bin/../../lib/gcc/pic32mx/8.3.1/../../../../pic32mx/lib/libpic32.a(default-nmi-handler.o)
 .bss           0x0000000000000000        0x0 /opt/microchip/xc32/v4.60/bin/bin/../../lib/gcc/pic32mx/8.3.1/../../../../pic32mx/lib/libpic32.a(default-nmi-handler.o)
 .reginfo       0x0000000000000000       0x18 /opt/microchip/xc32/v4.60/bin/bin/../../lib/gcc/pic32mx/8.3.1/../../../../pic32mx/lib/libpic32.a(default-nmi-handler.o)
 .MIPS.abiflags
                0x0000000000000000       0x18 /opt/microchip/xc32/v4.60/bin/bin/../../lib/gcc/pic32mx/8.3.1/../../../../pic32mx/lib/libpic32.a(default-nmi-handler.o)
 .xc_stack_usage.hdr
                0x0000000000000000        0xe /opt/microchip/xc32/v4.60/bin/bin/../../lib/gcc/pic32mx/8.3.1/../../../../pic32mx/lib/libpic32.a(default-nmi-handler.o)
 .xc_stack_usage
                0x0000000000000000       0x1a /opt/microchip/xc32/v4.60/bin/bin/../../lib/gcc/pic32mx/8.3.1/../../../../pic32mx/lib/libpic32.a(default-nmi-handler.o)
 .text          0x0000000000000000        0x0 /opt/microchip/xc32/v4.60/bin/bin/../../lib/gcc/pic32mx/8.3.1/../../../../pic32mx/lib/libpic32.a(errno.o)
 .data          0x0000000000000000        0x0 /opt/microchip/xc32/v4.60/bin/bin/../../lib/gcc/pic32mx/8.3.1/../../../../pic32mx/lib/libpic32.a(errno.o)
 .bss           0x0000000000000000        0x0 /opt/microchip/xc32/v4.60/bin/bin/../../lib/gcc/pic32mx/8.3.1/../../../../pic32mx/lib/libpic32.a(errno.o)
 .reginfo       0x0000000000000000       0x18 /opt/microchip/xc32/v4.60/bin/bin/../../lib/gcc/pic32mx/8.3.1/../../../../pic32mx/lib/libpic32.a(errno.o)
 .MIPS.abiflags
                0x0000000000000000       0x18 /opt/microchip/xc32/v4.60/bin/bin/../../lib/gcc/pic32mx/8.3.1/../../../../pic32mx/lib/libpic32.a(errno.o)
 .xc_stack_usage.hdr
                0x0000000000000000        0xe /opt/microchip/xc32/v4.60/bin/bin/../../lib/gcc/pic32mx/8.3.1/../../../../pic32mx/lib/libpic32.a(errno.o)
 .data          0x0000000000000000        0x0 /opt/microchip/xc32/v4.60/bin/bin/../../lib/gcc/pic32mx/8.3.1/../../../../pic32mx/lib/libpic32.a(pic32_data_init_core.o)
 .bss           0x0000000000000000        0x0 /opt/microchip/xc32/v4.60/bin/bin/../../lib/gcc/pic32mx/8.3.1/../../../../pic32mx/lib/libpic32.a(pic32_data_init_core.o)
 .reginfo       0x0000000000000000       0x18 /opt/microchip/xc32/v4.60/bin/bin/../../lib/gcc/pic32mx/8.3.1/../../../../pic32mx/lib/libpic32.a(pic32_data_init_core.o)
 .MIPS.abiflags
                0x0000000000000000       0x18 /opt/microchip/xc32/v4.60/bin/bin/../../lib/gcc/pic32mx/8.3.1/../../../../pic32mx/lib/libpic32.a(pic32_data_init_core.o)
 .xc_stack_usage.hdr
                0x0000000000000000        0xe /opt/microchip/xc32/v4.60/bin/bin/../../lib/gcc/pic32mx/8.3.1/../../../../pic32mx/lib/libpic32.a(pic32_data_init_core.o)
 .xc_stack_usage
                0x0000000000000000       0x41 /opt/microchip/xc32/v4.60/bin/bin/../../lib/gcc/pic32mx/8.3.1/../../../../pic32mx/lib/libpic32.a(pic32_data_init_core.o)
 .text          0x0000000000000000        0x0 /opt/microchip/xc32/v4.60/bin/bin/../../lib/gcc/pic32mx/8.3.1/../../../../pic32mx/lib/libpic32.a(general-exception.o)
 .data          0x0000000000000000        0x0 /opt/microchip/xc32/v4.60/bin/bin/../../lib/gcc/pic32mx/8.3.1/../../../../pic32mx/lib/libpic32.a(general-exception.o)
 .bss           0x0000000000000000        0x0 /opt/microchip/xc32/v4.60/bin/bin/../../lib/gcc/pic32mx/8.3.1/../../../../pic32mx/lib/libpic32.a(general-exception.o)
 .reginfo       0x0000000000000000       0x18 /opt/microchip/xc32/v4.60/bin/bin/../../lib/gcc/pic32mx/8.3.1/../../../../pic32mx/lib/libpic32.a(general-exception.o)
 .MIPS.abiflags
                0x0000000000000000       0x18 /opt/microchip/xc32/v4.60/bin/bin/../../lib/gcc/pic32mx/8.3.1/../../../../pic32mx/lib/libpic32.a(general-exception.o)
 .xc_stack_usage.hdr
                0x0000000000000000        0xe /opt/microchip/xc32/v4.60/bin/bin/../../lib/gcc/pic32mx/8.3.1/../../../../pic32mx/lib/libpic32.a(general-exception.o)
 .xc_stack_usage
                0x0000000000000000       0x28 /opt/microchip/xc32/v4.60/bin/bin/../../lib/gcc/pic32mx/8.3.1/../../../../pic32mx/lib/libpic32.a(general-exception.o)
 .text          0x0000000000000000        0x0 /opt/microchip/xc32/v4.60/bin/bin/../../lib/gcc/pic32mx/8.3.1/../../../../pic32mx/lib/libpic32.a(vector2.o)
 .data          0x0000000000000000        0x0 /opt/microchip/xc32/v4.60/bin/bin/../../lib/gcc/pic32mx/8.3.1/../../../../pic32mx/lib/libpic32.a(vector2.o)
 .bss           0x0000000000000000        0x0 /opt/microchip/xc32/v4.60/bin/bin/../../lib/gcc/pic32mx/8.3.1/../../../../pic32mx/lib/libpic32.a(vector2.o)
 .reginfo       0x0000000000000000       0x18 /opt/microchip/xc32/v4.60/bin/bin/../../lib/gcc/pic32mx/8.3.1/../../../../pic32mx/lib/libpic32.a(vector2.o)
 .MIPS.abiflags
                0x0000000000000000       0x18 /opt/microchip/xc32/v4.60/bin/bin/../../lib/gcc/pic32mx/8.3.1/../../../../pic32mx/lib/libpic32.a(vector2.o)
 .xc_stack_usage.hdr
                0x0000000000000000        0xe /opt/microchip/xc32/v4.60/bin/bin/../../lib/gcc/pic32mx/8.3.1/../../../../pic32mx/lib/libpic32.a(vector2.o)
 .xc_stack_usage
                0x0000000000000000       0x21 /opt/microchip/xc32/v4.60/bin/bin/../../lib/gcc/pic32mx/8.3.1/../../../../pic32mx/lib/libpic32.a(vector2.o)
 .text          0x0000000000000000        0x0 /opt/microchip/xc32/v4.60/bin/bin/../../lib/gcc/pic32mx/8.3.1/../../../../pic32mx/lib/libpic32.a(vector3.o)
 .data          0x0000000000000000        0x0 /opt/microchip/xc32/v4.60/bin/bin/../../lib/gcc/pic32mx/8.3.1/../../../../pic32mx/lib/libpic32.a(vector3.o)
 .bss           0x0000000000000000        0x0 /opt/microchip/xc32/v4.60/bin/bin/../../lib/gcc/pic32mx/8.3.1/../../../../pic32mx/lib/libpic32.a(vector3.o)
 .reginfo       0x0000000000000000       0x18 /opt/microchip/xc32/v4.60/bin/bin/../../lib/gcc/pic32mx/8.3.1/../../../../pic32mx/lib/libpic32.a(vector3.o)
 .MIPS.abiflags
                0x0000000000000000       0x18 /opt/microchip/xc32/v4.60/bin/bin/../../lib/gcc/pic32mx/8.3.1/../../../../pic32mx/lib/libpic32.a(vector3.o)
 .xc_stack_usage.hdr
                0x0000000000000000        0xe /opt/microchip/xc32/v4.60/bin/bin/../../lib/gcc/pic32mx/8.3.1/../../../../pic32mx/lib/libpic32.a(vector3.o)
 .xc_stack_usage
                0x0000000000000000       0x21 /opt/microchip/xc32/v4.60/bin/bin/../../lib/gcc/pic32mx/8.3.1/../../../../pic32mx/lib/libpic32.a(vector3.o)
 .text          0x0000000000000000        0x0 /opt/microchip/xc32/v4.60/bin/bin/../../lib/gcc/pic32mx/8.3.1/../../../../pic32mx/lib/libpic32.a(vector5.o)
 .data          0x0000000000000000        0x0 /opt/microchip/xc32/v4.60/bin/bin/../../lib/gcc/pic32mx/8.3.1/../../../../pic32mx/lib/libpic32.a(vector5.o)
 .bss           0x0000000000000000        0x0 /opt/microchip/xc32/v4.60/bin/bin/../../lib/gcc/pic32mx/8.3.1/../../../../pic32mx/lib/libpic32.a(vector5.o)
 .reginfo       0x0000000000000000       0x18 /opt/microchip/xc32/v4.60/bin/bin/../../lib/gcc/pic32mx/8.3.1/../../../../pic32mx/lib/libpic32.a(vector5.o)
 .MIPS.abiflags
                0x0000000000000000       0x18 /opt/microchip/xc32/v4.60/bin/bin/../../lib/gcc/pic32mx/8.3.1/../../../../pic32mx/lib/libpic32.a(vector5.o)
 .xc_stack_usage.hdr
                0x0000000000000000        0xe /opt/microchip/xc32/v4.60/bin/bin/../../lib/gcc/pic32mx/8.3.1/../../../../pic32mx/lib/libpic32.a(vector5.o)
 .xc_stack_usage
                0x0000000000000000       0x21 /opt/microchip/xc32/v4.60/bin/bin/../../lib/gcc/pic32mx/8.3.1/../../../../pic32mx/lib/libpic32.a(vector5.o)
 .text          0x0000000000000000        0x0 /opt/microchip/xc32/v4.60/bin/bin/../../lib/gcc/pic32mx/8.3.1/../../../../pic32mx/lib/libpic32.a(vector6.o)
 .data          0x0000000000000000        0x0 /opt/microchip/xc32/v4.60/bin/bin/../../lib/gcc/pic32mx/8.3.1/../../../../pic32mx/lib/libpic32.a(vector6.o)
 .bss           0x0000000000000000        0x0 /opt/microchip/xc32/v4.60/bin/bin/../../lib/gcc/pic32mx/8.3.1/../../../../pic32mx/lib/libpic32.a(vector6.o)
 .reginfo       0x0000000000000000       0x18 /opt/microchip/xc32/v4.60/bin/bin/../../lib/gcc/pic32mx/8.3.1/../../../../pic32mx/lib/libpic32.a(vector6.o)
 .MIPS.abiflags
                0x0000000000000000       0x18 /opt/microchip/xc32/v4.60/bin/bin/../../lib/gcc/pic32mx/8.3.1/../../../../pic32mx/lib/libpic32.a(vector6.o)
 .xc_stack_usage.hdr
                0x0000000000000000        0xe /opt/microchip/xc32/v4.60/bin/bin/../../lib/gcc/pic32mx/8.3.1/../../../../pic32mx/lib/libpic32.a(vector6.o)
 .xc_stack_usage
                0x0000000000000000       0x21 /opt/microchip/xc32/v4.60/bin/bin/../../lib/gcc/pic32mx/8.3.1/../../../../pic32mx/lib/libpic32.a(vector6.o)
 .text          0x0000000000000000        0x0 /opt/microchip/xc32/v4.60/bin/bin/../../lib/gcc/pic32mx/8.3.1/../../../../pic32mx/lib/libpic32.a(vector7.o)
 .data          0x0000000000000000        0x0 /opt/microchip/xc32/v4.60/bin/bin/../../lib/gcc/pic32mx/8.3.1/../../../../pic32mx/lib/libpic32.a(vector7.o)
 .bss           0x0000000000000000        0x0 /opt/microchip/xc32/v4.60/bin/bin/../../lib/gcc/pic32mx/8.3.1/../../../../pic32mx/lib/libpic32.a(vector7.o)
 .reginfo       0x0000000000000000       0x18 /opt/microchip/xc32/v4.60/bin/bin/../../lib/gcc/pic32mx/8.3.1/../../../../pic32mx/lib/libpic32.a(vector7.o)
 .MIPS.abiflags
                0x0000000000000000       0x18 /opt/microchip/xc32/v4.60/bin/bin/../../lib/gcc/pic32mx/8.3.1/../../../../pic32mx/lib/libpic32.a(vector7.o)
 .xc_stack_usage.hdr
                0x0000000000000000        0xe /opt/microchip/xc32/v4.60/bin/bin/../../lib/gcc/pic32mx/8.3.1/../../../../pic32mx/lib/libpic32.a(vector7.o)
 .xc_stack_usage
                0x0000000000000000       0x21 /opt/microchip/xc32/v4.60/bin/bin/../../lib/gcc/pic32mx/8.3.1/../../../../pic32mx/lib/libpic32.a(vector7.o)
 .text          0x0000000000000000        0x0 /opt/microchip/xc32/v4.60/bin/bin/../../lib/gcc/pic32mx/8.3.1/../../../../pic32mx/lib/libpic32.a(vector8.o)
 .data          0x0000000000000000        0x0 /opt/microchip/xc32/v4.60/bin/bin/../../lib/gcc/pic32mx/8.3.1/../../../../pic32mx/lib/libpic32.a(vector8.o)
 .bss           0x0000000000000000        0x0 /opt/microchip/xc32/v4.60/bin/bin/../../lib/gcc/pic32mx/8.3.1/../../../../pic32mx/lib/libpic32.a(vector8.o)
 .reginfo       0x0000000000000000       0x18 /opt/microchip/xc32/v4.60/bin/bin/../../lib/gcc/pic32mx/8.3.1/../../../../pic32mx/lib/libpic32.a(vector8.o)
 .MIPS.abiflags
                0x0000000000000000       0x18 /opt/microchip/xc32/v4.60/bin/bin/../../lib/gcc/pic32mx/8.3.1/../../../../pic32mx/lib/libpic32.a(vector8.o)
 .xc_stack_usage.hdr
                0x0000000000000000        0xe /opt/microchip/xc32/v4.60/bin/bin/../../lib/gcc/pic32mx/8.3.1/../../../../pic32mx/lib/libpic32.a(vector8.o)
 .xc_stack_usage
                0x0000000000000000       0x21 /opt/microchip/xc32/v4.60/bin/bin/../../lib/gcc/pic32mx/8.3.1/../../../../pic32mx/lib/libpic32.a(vector8.o)
 .text          0x0000000000000000        0x0 /opt/microchip/xc32/v4.60/bin/bin/../../lib/gcc/pic32mx/8.3.1/../../../../pic32mx/lib/libpic32.a(vector9.o)
 .data          0x0000000000000000        0x0 /opt/microchip/xc32/v4.60/bin/bin/../../lib/gcc/pic32mx/8.3.1/../../../../pic32mx/lib/libpic32.a(vector9.o)
 .bss           0x0000000000000000        0x0 /opt/microchip/xc32/v4.60/bin/bin/../../lib/gcc/pic32mx/8.3.1/../../../../pic32mx/lib/libpic32.a(vector9.o)
 .reginfo       0x0000000000000000       0x18 /opt/microchip/xc32/v4.60/bin/bin/../../lib/gcc/pic32mx/8.3.1/../../../../pic32mx/lib/libpic32.a(vector9.o)
 .MIPS.abiflags
                0x0000000000000000       0x18 /opt/microchip/xc32/v4.60/bin/bin/../../lib/gcc/pic32mx/8.3.1/../../../../pic32mx/lib/libpic32.a(vector9.o)
 .xc_stack_usage.hdr
                0x0000000000000000        0xe /opt/microchip/xc32/v4.60/bin/bin/../../lib/gcc/pic32mx/8.3.1/../../../../pic32mx/lib/libpic32.a(vector9.o)
 .xc_stack_usage
                0x0000000000000000       0x21 /opt/microchip/xc32/v4.60/bin/bin/../../lib/gcc/pic32mx/8.3.1/../../../../pic32mx/lib/libpic32.a(vector9.o)
 .text          0x0000000000000000        0x0 /opt/microchip/xc32/v4.60/bin/bin/../../lib/gcc/pic32mx/8.3.1/../../../../pic32mx/lib/libpic32.a(vector10.o)
 .data          0x0000000000000000        0x0 /opt/microchip/xc32/v4.60/bin/bin/../../lib/gcc/pic32mx/8.3.1/../../../../pic32mx/lib/libpic32.a(vector10.o)
 .bss           0x0000000000000000        0x0 /opt/microchip/xc32/v4.60/bin/bin/../../lib/gcc/pic32mx/8.3.1/../../../../pic32mx/lib/libpic32.a(vector10.o)
 .reginfo       0x0000000000000000       0x18 /opt/microchip/xc32/v4.60/bin/bin/../../lib/gcc/pic32mx/8.3.1/../../../../pic32mx/lib/libpic32.a(vector10.o)
 .MIPS.abiflags
                0x0000000000000000       0x18 /opt/microchip/xc32/v4.60/bin/bin/../../lib/gcc/pic32mx/8.3.1/../../../../pic32mx/lib/libpic32.a(vector10.o)
 .xc_stack_usage.hdr
                0x0000000000000000        0xe /opt/microchip/xc32/v4.60/bin/bin/../../lib/gcc/pic32mx/8.3.1/../../../../pic32mx/lib/libpic32.a(vector10.o)
 .xc_stack_usage
                0x0000000000000000       0x22 /opt/microchip/xc32/v4.60/bin/bin/../../lib/gcc/pic32mx/8.3.1/../../../../pic32mx/lib/libpic32.a(vector10.o)
 .text          0x0000000000000000        0x0 /opt/microchip/xc32/v4.60/bin/bin/../../lib/gcc/pic32mx/8.3.1/../../../../pic32mx/lib/libpic32.a(vector11.o)
 .data          0x0000000000000000        0x0 /opt/microchip/xc32/v4.60/bin/bin/../../lib/gcc/pic32mx/8.3.1/../../../../pic32mx/lib/libpic32.a(vector11.o)
 .bss           0x0000000000000000        0x0 /opt/microchip/xc32/v4.60/bin/bin/../../lib/gcc/pic32mx/8.3.1/../../../../pic32mx/lib/libpic32.a(vector11.o)
 .reginfo       0x0000000000000000       0x18 /opt/microchip/xc32/v4.60/bin/bin/../../lib/gcc/pic32mx/8.3.1/../../../../pic32mx/lib/libpic32.a(vector11.o)
 .MIPS.abiflags
                0x0000000000000000       0x18 /opt/microchip/xc32/v4.60/bin/bin/../../lib/gcc/pic32mx/8.3.1/../../../../pic32mx/lib/libpic32.a(vector11.o)
 .xc_stack_usage.hdr
                0x0000000000000000        0xe /opt/microchip/xc32/v4.60/bin/bin/../../lib/gcc/pic32mx/8.3.1/../../../../pic32mx/lib/libpic32.a(vector11.o)
 .xc_stack_usage
                0x0000000000000000       0x22 /opt/microchip/xc32/v4.60/bin/bin/../../lib/gcc/pic32mx/8.3.1/../../../../pic32mx/lib/libpic32.a(vector11.o)
 .text          0x0000000000000000        0x0 /opt/microchip/xc32/v4.60/bin/bin/../../lib/gcc/pic32mx/8.3.1/../../../../pic32mx/lib/libpic32.a(vector12.o)
 .data          0x0000000000000000        0x0 /opt/microchip/xc32/v4.60/bin/bin/../../lib/gcc/pic32mx/8.3.1/../../../../pic32mx/lib/libpic32.a(vector12.o)
 .bss           0x0000000000000000        0x0 /opt/microchip/xc32/v4.60/bin/bin/../../lib/gcc/pic32mx/8.3.1/../../../../pic32mx/lib/libpic32.a(vector12.o)
 .reginfo       0x0000000000000000       0x18 /opt/microchip/xc32/v4.60/bin/bin/../../lib/gcc/pic32mx/8.3.1/../../../../pic32mx/lib/libpic32.a(vector12.o)
 .MIPS.abiflags
                0x0000000000000000       0x18 /opt/microchip/xc32/v4.60/bin/bin/../../lib/gcc/pic32mx/8.3.1/../../../../pic32mx/lib/libpic32.a(vector12.o)
 .xc_stack_usage.hdr
                0x0000000000000000        0xe /opt/microchip/xc32/v4.60/bin/bin/../../lib/gcc/pic32mx/8.3.1/../../../../pic32mx/lib/libpic32.a(vector12.o)
 .xc_stack_usage
                0x0000000000000000       0x22 /opt/microchip/xc32/v4.60/bin/bin/../../lib/gcc/pic32mx/8.3.1/../../../../pic32mx/lib/libpic32.a(vector12.o)
 .text          0x0000000000000000        0x0 /opt/microchip/xc32/v4.60/bin/bin/../../lib/gcc/pic32mx/8.3.1/../../../../pic32mx/lib/libpic32.a(vector13.o)
 .data          0x0000000000000000        0x0 /opt/microchip/xc32/v4.60/bin/bin/../../lib/gcc/pic32mx/8.3.1/../../../../pic32mx/lib/libpic32.a(vector13.o)
 .bss           0x0000000000000000        0x0 /opt/microchip/xc32/v4.60/bin/bin/../../lib/gcc/pic32mx/8.3.1/../../../../pic32mx/lib/libpic32.a(vector13.o)
 .reginfo       0x0000000000000000       0x18 /opt/microchip/xc32/v4.60/bin/bin/../../lib/gcc/pic32mx/8.3.1/../../../../pic32mx/lib/libpic32.a(vector13.o)
 .MIPS.abiflags
                0x0000000000000000       0x18 /opt/microchip/xc32/v4.60/bin/bin/../../lib/gcc/pic32mx/8.3.1/../../../../pic32mx/lib/libpic32.a(vector13.o)
 .xc_stack_usage.hdr
                0x0000000000000000        0xe /opt/microchip/xc32/v4.60/bin/bin/../../lib/gcc/pic32mx/8.3.1/../../../../pic32mx/lib/libpic32.a(vector13.o)
 .xc_stack_usage
                0x0000000000000000       0x22 /opt/microchip/xc32/v4.60/bin/bin/../../lib/gcc/pic32mx/8.3.1/../../../../pic32mx/lib/libpic32.a(vector13.o)
 .text          0x0000000000000000        0x0 /opt/microchip/xc32/v4.60/bin/bin/../../lib/gcc/pic32mx/8.3.1/../../../../pic32mx/lib/libpic32.a(vector14.o)
 .data          0x0000000000000000        0x0 /opt/microchip/xc32/v4.60/bin/bin/../../lib/gcc/pic32mx/8.3.1/../../../../pic32mx/lib/libpic32.a(vector14.o)
 .bss           0x0000000000000000        0x0 /opt/microchip/xc32/v4.60/bin/bin/../../lib/gcc/pic32mx/8.3.1/../../../../pic32mx/lib/libpic32.a(vector14.o)
 .reginfo       0x0000000000000000       0x18 /opt/microchip/xc32/v4.60/bin/bin/../../lib/gcc/pic32mx/8.3.1/../../../../pic32mx/lib/libpic32.a(vector14.o)
 .MIPS.abiflags
                0x0000000000000000       0x18 /opt/microchip/xc32/v4.60/bin/bin/../../lib/gcc/pic32mx/8.3.1/../../../../pic32mx/lib/libpic32.a(vector14.o)
 .xc_stack_usage.hdr
                0x0000000000000000        0xe /opt/microchip/xc32/v4.60/bin/bin/../../lib/gcc/pic32mx/8.3.1/../../../../pic32mx/lib/libpic32.a(vector14.o)
 .xc_stack_usage
                0x0000000000000000       0x22 /opt/microchip/xc32/v4.60/bin/bin/../../lib/gcc/pic32mx/8.3.1/../../../../pic32mx/lib/libpic32.a(vector14.o)
 .text          0x0000000000000000        0x0 /opt/microchip/xc32/v4.60/bin/bin/../../lib/gcc/pic32mx/8.3.1/../../../../pic32mx/lib/libpic32.a(vector15.o)
 .data          0x0000000000000000        0x0 /opt/microchip/xc32/v4.60/bin/bin/../../lib/gcc/pic32mx/8.3.1/../../../../pic32mx/lib/libpic32.a(vector15.o)
 .bss           0x0000000000000000        0x0 /opt/microchip/xc32/v4.60/bin/bin/../../lib/gcc/pic32mx/8.3.1/../../../../pic32mx/lib/libpic32.a(vector15.o)
 .reginfo       0x0000000000000000       0x18 /opt/microchip/xc32/v4.60/bin/bin/../../lib/gcc/pic32mx/8.3.1/../../../../pic32mx/lib/libpic32.a(vector15.o)
 .MIPS.abiflags
                0x0000000000000000       0x18 /opt/microchip/xc32/v4.60/bin/bin/../../lib/gcc/pic32mx/8.3.1/../../../../pic32mx/lib/libpic32.a(vector15.o)
 .xc_stack_usage.hdr
                0x0000000000000000        0xe /opt/microchip/xc32/v4.60/bin/bin/../../lib/gcc/pic32mx/8.3.1/../../../../pic32mx/lib/libpic32.a(vector15.o)
 .xc_stack_usage
                0x0000000000000000       0x22 /opt/microchip/xc32/v4.60/bin/bin/../../lib/gcc/pic32mx/8.3.1/../../../../pic32mx/lib/libpic32.a(vector15.o)
 .text          0x0000000000000000        0x0 /opt/microchip/xc32/v4.60/bin/bin/../../lib/gcc/pic32mx/8.3.1/../../../../pic32mx/lib/libpic32.a(vector16.o)
 .data          0x0000000000000000        0x0 /opt/microchip/xc32/v4.60/bin/bin/../../lib/gcc/pic32mx/8.3.1/../../../../pic32mx/lib/libpic32.a(vector16.o)
 .bss           0x0000000000000000        0x0 /opt/microchip/xc32/v4.60/bin/bin/../../lib/gcc/pic32mx/8.3.1/../../../../pic32mx/lib/libpic32.a(vector16.o)
 .reginfo       0x0000000000000000       0x18 /opt/microchip/xc32/v4.60/bin/bin/../../lib/gcc/pic32mx/8.3.1/../../../../pic32mx/lib/libpic32.a(vector16.o)
 .MIPS.abiflags
                0x0000000000000000       0x18 /opt/microchip/xc32/v4.60/bin/bin/../../lib/gcc/pic32mx/8.3.1/../../../../pic32mx/lib/libpic32.a(vector16.o)
 .xc_stack_usage.hdr
                0x0000000000000000        0xe /opt/microchip/xc32/v4.60/bin/bin/../../lib/gcc/pic32mx/8.3.1/../../../../pic32mx/lib/libpic32.a(vector16.o)
 .xc_stack_usage
                0x0000000000000000       0x22 /opt/microchip/xc32/v4.60/bin/bin/../../lib/gcc/pic32mx/8.3.1/../../../../pic32mx/lib/libpic32.a(vector16.o)
 .text          0x0000000000000000        0x0 /opt/microchip/xc32/v4.60/bin/bin/../../lib/gcc/pic32mx/8.3.1/../../../../pic32mx/lib/libpic32.a(vector17.o)
 .data          0x0000000000000000        0x0 /opt/microchip/xc32/v4.60/bin/bin/../../lib/gcc/pic32mx/8.3.1/../../../../pic32mx/lib/libpic32.a(vector17.o)
 .bss           0x0000000000000000        0x0 /opt/microchip/xc32/v4.60/bin/bin/../../lib/gcc/pic32mx/8.3.1/../../../../pic32mx/lib/libpic32.a(vector17.o)
 .reginfo       0x0000000000000000       0x18 /opt/microchip/xc32/v4.60/bin/bin/../../lib/gcc/pic32mx/8.3.1/../../../../pic32mx/lib/libpic32.a(vector17.o)
 .MIPS.abiflags
                0x0000000000000000       0x18 /opt/microchip/xc32/v4.60/bin/bin/../../lib/gcc/pic32mx/8.3.1/../../../../pic32mx/lib/libpic32.a(vector17.o)
 .xc_stack_usage.hdr
                0x0000000000000000        0xe /opt/microchip/xc32/v4.60/bin/bin/../../lib/gcc/pic32mx/8.3.1/../../../../pic32mx/lib/libpic32.a(vector17.o)
 .xc_stack_usage
                0x0000000000000000       0x22 /opt/microchip/xc32/v4.60/bin/bin/../../lib/gcc/pic32mx/8.3.1/../../../../pic32mx/lib/libpic32.a(vector17.o)
 .text          0x0000000000000000        0x0 /opt/microchip/xc32/v4.60/bin/bin/../../lib/gcc/pic32mx/8.3.1/../../../../pic32mx/lib/libpic32.a(vector18.o)
 .data          0x0000000000000000        0x0 /opt/microchip/xc32/v4.60/bin/bin/../../lib/gcc/pic32mx/8.3.1/../../../../pic32mx/lib/libpic32.a(vector18.o)
 .bss           0x0000000000000000        0x0 /opt/microchip/xc32/v4.60/bin/bin/../../lib/gcc/pic32mx/8.3.1/../../../../pic32mx/lib/libpic32.a(vector18.o)
 .reginfo       0x0000000000000000       0x18 /opt/microchip/xc32/v4.60/bin/bin/../../lib/gcc/pic32mx/8.3.1/../../../../pic32mx/lib/libpic32.a(vector18.o)
 .MIPS.abiflags
                0x0000000000000000       0x18 /opt/microchip/xc32/v4.60/bin/bin/../../lib/gcc/pic32mx/8.3.1/../../../../pic32mx/lib/libpic32.a(vector18.o)
 .xc_stack_usage.hdr
                0x0000000000000000        0xe /opt/microchip/xc32/v4.60/bin/bin/../../lib/gcc/pic32mx/8.3.1/../../../../pic32mx/lib/libpic32.a(vector18.o)
 .xc_stack_usage
                0x0000000000000000       0x22 /opt/microchip/xc32/v4.60/bin/bin/../../lib/gcc/pic32mx/8.3.1/../../../../pic32mx/lib/libpic32.a(vector18.o)
 .text          0x0000000000000000        0x0 /opt/microchip/xc32/v4.60/bin/bin/../../lib/gcc/pic32mx/8.3.1/../../../../pic32mx/lib/libpic32.a(vector19.o)
 .data          0x0000000000000000        0x0 /opt/microchip/xc32/v4.60/bin/bin/../../lib/gcc/pic32mx/8.3.1/../../../../pic32mx/lib/libpic32.a(vector19.o)
 .bss           0x0000000000000000        0x0 /opt/microchip/xc32/v4.60/bin/bin/../../lib/gcc/pic32mx/8.3.1/../../../../pic32mx/lib/libpic32.a(vector19.o)
 .reginfo       0x0000000000000000       0x18 /opt/microchip/xc32/v4.60/bin/bin/../../lib/gcc/pic32mx/8.3.1/../../../../pic32mx/lib/libpic32.a(vector19.o)
 .MIPS.abiflags
                0x0000000000000000       0x18 /opt/microchip/xc32/v4.60/bin/bin/../../lib/gcc/pic32mx/8.3.1/../../../../pic32mx/lib/libpic32.a(vector19.o)
 .xc_stack_usage.hdr
                0x0000000000000000        0xe /opt/microchip/xc32/v4.60/bin/bin/../../lib/gcc/pic32mx/8.3.1/../../../../pic32mx/lib/libpic32.a(vector19.o)
 .xc_stack_usage
                0x0000000000000000       0x22 /opt/microchip/xc32/v4.60/bin/bin/../../lib/gcc/pic32mx/8.3.1/../../../../pic32mx/lib/libpic32.a(vector19.o)
 .text          0x0000000000000000        0x0 /opt/microchip/xc32/v4.60/bin/bin/../../lib/gcc/pic32mx/8.3.1/../../../../pic32mx/lib/libpic32.a(vector20.o)
 .data          0x0000000000000000        0x0 /opt/microchip/xc32/v4.60/bin/bin/../../lib/gcc/pic32mx/8.3.1/../../../../pic32mx/lib/libpic32.a(vector20.o)
 .bss           0x0000000000000000        0x0 /opt/microchip/xc32/v4.60/bin/bin/../../lib/gcc/pic32mx/8.3.1/../../../../pic32mx/lib/libpic32.a(vector20.o)
 .reginfo       0x0000000000000000       0x18 /opt/microchip/xc32/v4.60/bin/bin/../../lib/gcc/pic32mx/8.3.1/../../../../pic32mx/lib/libpic32.a(vector20.o)
 .MIPS.abiflags
                0x0000000000000000       0x18 /opt/microchip/xc32/v4.60/bin/bin/../../lib/gcc/pic32mx/8.3.1/../../../../pic32mx/lib/libpic32.a(vector20.o)
 .xc_stack_usage.hdr
                0x0000000000000000        0xe /opt/microchip/xc32/v4.60/bin/bin/../../lib/gcc/pic32mx/8.3.1/../../../../pic32mx/lib/libpic32.a(vector20.o)
 .xc_stack_usage
                0x0000000000000000       0x22 /opt/microchip/xc32/v4.60/bin/bin/../../lib/gcc/pic32mx/8.3.1/../../../../pic32mx/lib/libpic32.a(vector20.o)
 .text          0x0000000000000000        0x0 /opt/microchip/xc32/v4.60/bin/bin/../../lib/gcc/pic32mx/8.3.1/../../../../pic32mx/lib/libpic32.a(vector21.o)
 .data          0x0000000000000000        0x0 /opt/microchip/xc32/v4.60/bin/bin/../../lib/gcc/pic32mx/8.3.1/../../../../pic32mx/lib/libpic32.a(vector21.o)
 .bss           0x0000000000000000        0x0 /opt/microchip/xc32/v4.60/bin/bin/../../lib/gcc/pic32mx/8.3.1/../../../../pic32mx/lib/libpic32.a(vector21.o)
 .reginfo       0x0000000000000000       0x18 /opt/microchip/xc32/v4.60/bin/bin/../../lib/gcc/pic32mx/8.3.1/../../../../pic32mx/lib/libpic32.a(vector21.o)
 .MIPS.abiflags
                0x0000000000000000       0x18 /opt/microchip/xc32/v4.60/bin/bin/../../lib/gcc/pic32mx/8.3.1/../../../../pic32mx/lib/libpic32.a(vector21.o)
 .xc_stack_usage.hdr
                0x0000000000000000        0xe /opt/microchip/xc32/v4.60/bin/bin/../../lib/gcc/pic32mx/8.3.1/../../../../pic32mx/lib/libpic32.a(vector21.o)
 .xc_stack_usage
                0x0000000000000000       0x22 /opt/microchip/xc32/v4.60/bin/bin/../../lib/gcc/pic32mx/8.3.1/../../../../pic32mx/lib/libpic32.a(vector21.o)
 .text          0x0000000000000000        0x0 /opt/microchip/xc32/v4.60/bin/bin/../../lib/gcc/pic32mx/8.3.1/../../../../pic32mx/lib/libpic32.a(vector22.o)
 .data          0x0000000000000000        0x0 /opt/microchip/xc32/v4.60/bin/bin/../../lib/gcc/pic32mx/8.3.1/../../../../pic32mx/lib/libpic32.a(vector22.o)
 .bss           0x0000000000000000        0x0 /opt/microchip/xc32/v4.60/bin/bin/../../lib/gcc/pic32mx/8.3.1/../../../../pic32mx/lib/libpic32.a(vector22.o)
 .reginfo       0x0000000000000000       0x18 /opt/microchip/xc32/v4.60/bin/bin/../../lib/gcc/pic32mx/8.3.1/../../../../pic32mx/lib/libpic32.a(vector22.o)
 .MIPS.abiflags
                0x0000000000000000       0x18 /opt/microchip/xc32/v4.60/bin/bin/../../lib/gcc/pic32mx/8.3.1/../../../../pic32mx/lib/libpic32.a(vector22.o)
 .xc_stack_usage.hdr
                0x0000000000000000        0xe /opt/microchip/xc32/v4.60/bin/bin/../../lib/gcc/pic32mx/8.3.1/../../../../pic32mx/lib/libpic32.a(vector22.o)
 .xc_stack_usage
                0x0000000000000000       0x22 /opt/microchip/xc32/v4.60/bin/bin/../../lib/gcc/pic32mx/8.3.1/../../../../pic32mx/lib/libpic32.a(vector22.o)
 .text          0x0000000000000000        0x0 /opt/microchip/xc32/v4.60/bin/bin/../../lib/gcc/pic32mx/8.3.1/../../../../pic32mx/lib/libpic32.a(vector23.o)
 .data          0x0000000000000000        0x0 /opt/microchip/xc32/v4.60/bin/bin/../../lib/gcc/pic32mx/8.3.1/../../../../pic32mx/lib/libpic32.a(vector23.o)
 .bss           0x0000000000000000        0x0 /opt/microchip/xc32/v4.60/bin/bin/../../lib/gcc/pic32mx/8.3.1/../../../../pic32mx/lib/libpic32.a(vector23.o)
 .reginfo       0x0000000000000000       0x18 /opt/microchip/xc32/v4.60/bin/bin/../../lib/gcc/pic32mx/8.3.1/../../../../pic32mx/lib/libpic32.a(vector23.o)
 .MIPS.abiflags
                0x0000000000000000       0x18 /opt/microchip/xc32/v4.60/bin/bin/../../lib/gcc/pic32mx/8.3.1/../../../../pic32mx/lib/libpic32.a(vector23.o)
 .xc_stack_usage.hdr
                0x0000000000000000        0xe /opt/microchip/xc32/v4.60/bin/bin/../../lib/gcc/pic32mx/8.3.1/../../../../pic32mx/lib/libpic32.a(vector23.o)
 .xc_stack_usage
                0x0000000000000000       0x22 /opt/microchip/xc32/v4.60/bin/bin/../../lib/gcc/pic32mx/8.3.1/../../../../pic32mx/lib/libpic32.a(vector23.o)
 .text          0x0000000000000000        0x0 /opt/microchip/xc32/v4.60/bin/bin/../../lib/gcc/pic32mx/8.3.1/../../../../pic32mx/lib/libpic32.a(vector24.o)
 .data          0x0000000000000000        0x0 /opt/microchip/xc32/v4.60/bin/bin/../../lib/gcc/pic32mx/8.3.1/../../../../pic32mx/lib/libpic32.a(vector24.o)
 .bss           0x0000000000000000        0x0 /opt/microchip/xc32/v4.60/bin/bin/../../lib/gcc/pic32mx/8.3.1/../../../../pic32mx/lib/libpic32.a(vector24.o)
 .reginfo       0x0000000000000000       0x18 /opt/microchip/xc32/v4.60/bin/bin/../../lib/gcc/pic32mx/8.3.1/../../../../pic32mx/lib/libpic32.a(vector24.o)
 .MIPS.abiflags
                0x0000000000000000       0x18 /opt/microchip/xc32/v4.60/bin/bin/../../lib/gcc/pic32mx/8.3.1/../../../../pic32mx/lib/libpic32.a(vector24.o)
 .xc_stack_usage.hdr
                0x0000000000000000        0xe /opt/microchip/xc32/v4.60/bin/bin/../../lib/gcc/pic32mx/8.3.1/../../../../pic32mx/lib/libpic32.a(vector24.o)
 .xc_stack_usage
                0x0000000000000000       0x22 /opt/microchip/xc32/v4.60/bin/bin/../../lib/gcc/pic32mx/8.3.1/../../../../pic32mx/lib/libpic32.a(vector24.o)
 .text          0x0000000000000000        0x0 /opt/microchip/xc32/v4.60/bin/bin/../../lib/gcc/pic32mx/8.3.1/../../../../pic32mx/lib/libpic32.a(vector25.o)
 .data          0x0000000000000000        0x0 /opt/microchip/xc32/v4.60/bin/bin/../../lib/gcc/pic32mx/8.3.1/../../../../pic32mx/lib/libpic32.a(vector25.o)
 .bss           0x0000000000000000        0x0 /opt/microchip/xc32/v4.60/bin/bin/../../lib/gcc/pic32mx/8.3.1/../../../../pic32mx/lib/libpic32.a(vector25.o)
 .reginfo       0x0000000000000000       0x18 /opt/microchip/xc32/v4.60/bin/bin/../../lib/gcc/pic32mx/8.3.1/../../../../pic32mx/lib/libpic32.a(vector25.o)
 .MIPS.abiflags
                0x0000000000000000       0x18 /opt/microchip/xc32/v4.60/bin/bin/../../lib/gcc/pic32mx/8.3.1/../../../../pic32mx/lib/libpic32.a(vector25.o)
 .xc_stack_usage.hdr
                0x0000000000000000        0xe /opt/microchip/xc32/v4.60/bin/bin/../../lib/gcc/pic32mx/8.3.1/../../../../pic32mx/lib/libpic32.a(vector25.o)
 .xc_stack_usage
                0x0000000000000000       0x22 /opt/microchip/xc32/v4.60/bin/bin/../../lib/gcc/pic32mx/8.3.1/../../../../pic32mx/lib/libpic32.a(vector25.o)
 .text          0x0000000000000000        0x0 /opt/microchip/xc32/v4.60/bin/bin/../../lib/gcc/pic32mx/8.3.1/../../../../pic32mx/lib/libpic32.a(vector26.o)
 .data          0x0000000000000000        0x0 /opt/microchip/xc32/v4.60/bin/bin/../../lib/gcc/pic32mx/8.3.1/../../../../pic32mx/lib/libpic32.a(vector26.o)
 .bss           0x0000000000000000        0x0 /opt/microchip/xc32/v4.60/bin/bin/../../lib/gcc/pic32mx/8.3.1/../../../../pic32mx/lib/libpic32.a(vector26.o)
 .reginfo       0x0000000000000000       0x18 /opt/microchip/xc32/v4.60/bin/bin/../../lib/gcc/pic32mx/8.3.1/../../../../pic32mx/lib/libpic32.a(vector26.o)
 .MIPS.abiflags
                0x0000000000000000       0x18 /opt/microchip/xc32/v4.60/bin/bin/../../lib/gcc/pic32mx/8.3.1/../../../../pic32mx/lib/libpic32.a(vector26.o)
 .xc_stack_usage.hdr
                0x0000000000000000        0xe /opt/microchip/xc32/v4.60/bin/bin/../../lib/gcc/pic32mx/8.3.1/../../../../pic32mx/lib/libpic32.a(vector26.o)
 .xc_stack_usage
                0x0000000000000000       0x22 /opt/microchip/xc32/v4.60/bin/bin/../../lib/gcc/pic32mx/8.3.1/../../../../pic32mx/lib/libpic32.a(vector26.o)
 .text          0x0000000000000000        0x0 /opt/microchip/xc32/v4.60/bin/bin/../../lib/gcc/pic32mx/8.3.1/../../../../pic32mx/lib/libpic32.a(vector27.o)
 .data          0x0000000000000000        0x0 /opt/microchip/xc32/v4.60/bin/bin/../../lib/gcc/pic32mx/8.3.1/../../../../pic32mx/lib/libpic32.a(vector27.o)
 .bss           0x0000000000000000        0x0 /opt/microchip/xc32/v4.60/bin/bin/../../lib/gcc/pic32mx/8.3.1/../../../../pic32mx/lib/libpic32.a(vector27.o)
 .reginfo       0x0000000000000000       0x18 /opt/microchip/xc32/v4.60/bin/bin/../../lib/gcc/pic32mx/8.3.1/../../../../pic32mx/lib/libpic32.a(vector27.o)
 .MIPS.abiflags
                0x0000000000000000       0x18 /opt/microchip/xc32/v4.60/bin/bin/../../lib/gcc/pic32mx/8.3.1/../../../../pic32mx/lib/libpic32.a(vector27.o)
 .xc_stack_usage.hdr
                0x0000000000000000        0xe /opt/microchip/xc32/v4.60/bin/bin/../../lib/gcc/pic32mx/8.3.1/../../../../pic32mx/lib/libpic32.a(vector27.o)
 .xc_stack_usage
                0x0000000000000000       0x22 /opt/microchip/xc32/v4.60/bin/bin/../../lib/gcc/pic32mx/8.3.1/../../../../pic32mx/lib/libpic32.a(vector27.o)
 .text          0x0000000000000000        0x0 /opt/microchip/xc32/v4.60/bin/bin/../../lib/gcc/pic32mx/8.3.1/../../../../pic32mx/lib/libpic32.a(vector28.o)
 .data          0x0000000000000000        0x0 /opt/microchip/xc32/v4.60/bin/bin/../../lib/gcc/pic32mx/8.3.1/../../../../pic32mx/lib/libpic32.a(vector28.o)
 .bss           0x0000000000000000        0x0 /opt/microchip/xc32/v4.60/bin/bin/../../lib/gcc/pic32mx/8.3.1/../../../../pic32mx/lib/libpic32.a(vector28.o)
 .reginfo       0x0000000000000000       0x18 /opt/microchip/xc32/v4.60/bin/bin/../../lib/gcc/pic32mx/8.3.1/../../../../pic32mx/lib/libpic32.a(vector28.o)
 .MIPS.abiflags
                0x0000000000000000       0x18 /opt/microchip/xc32/v4.60/bin/bin/../../lib/gcc/pic32mx/8.3.1/../../../../pic32mx/lib/libpic32.a(vector28.o)
 .xc_stack_usage.hdr
                0x0000000000000000        0xe /opt/microchip/xc32/v4.60/bin/bin/../../lib/gcc/pic32mx/8.3.1/../../../../pic32mx/lib/libpic32.a(vector28.o)
 .xc_stack_usage
                0x0000000000000000       0x22 /opt/microchip/xc32/v4.60/bin/bin/../../lib/gcc/pic32mx/8.3.1/../../../../pic32mx/lib/libpic32.a(vector28.o)
 .text          0x0000000000000000        0x0 /opt/microchip/xc32/v4.60/bin/bin/../../lib/gcc/pic32mx/8.3.1/../../../../pic32mx/lib/libpic32.a(vector29.o)
 .data          0x0000000000000000        0x0 /opt/microchip/xc32/v4.60/bin/bin/../../lib/gcc/pic32mx/8.3.1/../../../../pic32mx/lib/libpic32.a(vector29.o)
 .bss           0x0000000000000000        0x0 /opt/microchip/xc32/v4.60/bin/bin/../../lib/gcc/pic32mx/8.3.1/../../../../pic32mx/lib/libpic32.a(vector29.o)
 .reginfo       0x0000000000000000       0x18 /opt/microchip/xc32/v4.60/bin/bin/../../lib/gcc/pic32mx/8.3.1/../../../../pic32mx/lib/libpic32.a(vector29.o)
 .MIPS.abiflags
                0x0000000000000000       0x18 /opt/microchip/xc32/v4.60/bin/bin/../../lib/gcc/pic32mx/8.3.1/../../../../pic32mx/lib/libpic32.a(vector29.o)
 .xc_stack_usage.hdr
                0x0000000000000000        0xe /opt/microchip/xc32/v4.60/bin/bin/../../lib/gcc/pic32mx/8.3.1/../../../../pic32mx/lib/libpic32.a(vector29.o)
 .xc_stack_usage
                0x0000000000000000       0x22 /opt/microchip/xc32/v4.60/bin/bin/../../lib/gcc/pic32mx/8.3.1/../../../../pic32mx/lib/libpic32.a(vector29.o)
 .text          0x0000000000000000        0x0 /opt/microchip/xc32/v4.60/bin/bin/../../lib/gcc/pic32mx/8.3.1/../../../../pic32mx/lib/libpic32.a(vector30.o)
 .data          0x0000000000000000        0x0 /opt/microchip/xc32/v4.60/bin/bin/../../lib/gcc/pic32mx/8.3.1/../../../../pic32mx/lib/libpic32.a(vector30.o)
 .bss           0x0000000000000000        0x0 /opt/microchip/xc32/v4.60/bin/bin/../../lib/gcc/pic32mx/8.3.1/../../../../pic32mx/lib/libpic32.a(vector30.o)
 .reginfo       0x0000000000000000       0x18 /opt/microchip/xc32/v4.60/bin/bin/../../lib/gcc/pic32mx/8.3.1/../../../../pic32mx/lib/libpic32.a(vector30.o)
 .MIPS.abiflags
                0x0000000000000000       0x18 /opt/microchip/xc32/v4.60/bin/bin/../../lib/gcc/pic32mx/8.3.1/../../../../pic32mx/lib/libpic32.a(vector30.o)
 .xc_stack_usage.hdr
                0x0000000000000000        0xe /opt/microchip/xc32/v4.60/bin/bin/../../lib/gcc/pic32mx/8.3.1/../../../../pic32mx/lib/libpic32.a(vector30.o)
 .xc_stack_usage
                0x0000000000000000       0x22 /opt/microchip/xc32/v4.60/bin/bin/../../lib/gcc/pic32mx/8.3.1/../../../../pic32mx/lib/libpic32.a(vector30.o)
 .text          0x0000000000000000        0x0 /opt/microchip/xc32/v4.60/bin/bin/../../lib/gcc/pic32mx/8.3.1/../../../../pic32mx/lib/libpic32.a(vector31.o)
 .data          0x0000000000000000        0x0 /opt/microchip/xc32/v4.60/bin/bin/../../lib/gcc/pic32mx/8.3.1/../../../../pic32mx/lib/libpic32.a(vector31.o)
 .bss           0x0000000000000000        0x0 /opt/microchip/xc32/v4.60/bin/bin/../../lib/gcc/pic32mx/8.3.1/../../../../pic32mx/lib/libpic32.a(vector31.o)
 .reginfo       0x0000000000000000       0x18 /opt/microchip/xc32/v4.60/bin/bin/../../lib/gcc/pic32mx/8.3.1/../../../../pic32mx/lib/libpic32.a(vector31.o)
 .MIPS.abiflags
                0x0000000000000000       0x18 /opt/microchip/xc32/v4.60/bin/bin/../../lib/gcc/pic32mx/8.3.1/../../../../pic32mx/lib/libpic32.a(vector31.o)
 .xc_stack_usage.hdr
                0x0000000000000000        0xe /opt/microchip/xc32/v4.60/bin/bin/../../lib/gcc/pic32mx/8.3.1/../../../../pic32mx/lib/libpic32.a(vector31.o)
 .xc_stack_usage
                0x0000000000000000       0x22 /opt/microchip/xc32/v4.60/bin/bin/../../lib/gcc/pic32mx/8.3.1/../../../../pic32mx/lib/libpic32.a(vector31.o)
 .text          0x0000000000000000        0x0 /opt/microchip/xc32/v4.60/bin/bin/../../lib/gcc/pic32mx/8.3.1/../../../../pic32mx/lib/libpic32.a(vector33.o)
 .data          0x0000000000000000        0x0 /opt/microchip/xc32/v4.60/bin/bin/../../lib/gcc/pic32mx/8.3.1/../../../../pic32mx/lib/libpic32.a(vector33.o)
 .bss           0x0000000000000000        0x0 /opt/microchip/xc32/v4.60/bin/bin/../../lib/gcc/pic32mx/8.3.1/../../../../pic32mx/lib/libpic32.a(vector33.o)
 .reginfo       0x0000000000000000       0x18 /opt/microchip/xc32/v4.60/bin/bin/../../lib/gcc/pic32mx/8.3.1/../../../../pic32mx/lib/libpic32.a(vector33.o)
 .MIPS.abiflags
                0x0000000000000000       0x18 /opt/microchip/xc32/v4.60/bin/bin/../../lib/gcc/pic32mx/8.3.1/../../../../pic32mx/lib/libpic32.a(vector33.o)
 .xc_stack_usage.hdr
                0x0000000000000000        0xe /opt/microchip/xc32/v4.60/bin/bin/../../lib/gcc/pic32mx/8.3.1/../../../../pic32mx/lib/libpic32.a(vector33.o)
 .xc_stack_usage
                0x0000000000000000       0x22 /opt/microchip/xc32/v4.60/bin/bin/../../lib/gcc/pic32mx/8.3.1/../../../../pic32mx/lib/libpic32.a(vector33.o)
 .text          0x0000000000000000        0x0 /opt/microchip/xc32/v4.60/bin/bin/../../lib/gcc/pic32mx/8.3.1/../../../../pic32mx/lib/libpic32.a(vector34.o)
 .data          0x0000000000000000        0x0 /opt/microchip/xc32/v4.60/bin/bin/../../lib/gcc/pic32mx/8.3.1/../../../../pic32mx/lib/libpic32.a(vector34.o)
 .bss           0x0000000000000000        0x0 /opt/microchip/xc32/v4.60/bin/bin/../../lib/gcc/pic32mx/8.3.1/../../../../pic32mx/lib/libpic32.a(vector34.o)
 .reginfo       0x0000000000000000       0x18 /opt/microchip/xc32/v4.60/bin/bin/../../lib/gcc/pic32mx/8.3.1/../../../../pic32mx/lib/libpic32.a(vector34.o)
 .MIPS.abiflags
                0x0000000000000000       0x18 /opt/microchip/xc32/v4.60/bin/bin/../../lib/gcc/pic32mx/8.3.1/../../../../pic32mx/lib/libpic32.a(vector34.o)
 .xc_stack_usage.hdr
                0x0000000000000000        0xe /opt/microchip/xc32/v4.60/bin/bin/../../lib/gcc/pic32mx/8.3.1/../../../../pic32mx/lib/libpic32.a(vector34.o)
 .xc_stack_usage
                0x0000000000000000       0x22 /opt/microchip/xc32/v4.60/bin/bin/../../lib/gcc/pic32mx/8.3.1/../../../../pic32mx/lib/libpic32.a(vector34.o)
 .text          0x0000000000000000        0x0 /opt/microchip/xc32/v4.60/bin/bin/../../lib/gcc/pic32mx/8.3.1/../../../../pic32mx/lib/libpic32.a(vector35.o)
 .data          0x0000000000000000        0x0 /opt/microchip/xc32/v4.60/bin/bin/../../lib/gcc/pic32mx/8.3.1/../../../../pic32mx/lib/libpic32.a(vector35.o)
 .bss           0x0000000000000000        0x0 /opt/microchip/xc32/v4.60/bin/bin/../../lib/gcc/pic32mx/8.3.1/../../../../pic32mx/lib/libpic32.a(vector35.o)
 .reginfo       0x0000000000000000       0x18 /opt/microchip/xc32/v4.60/bin/bin/../../lib/gcc/pic32mx/8.3.1/../../../../pic32mx/lib/libpic32.a(vector35.o)
 .MIPS.abiflags
                0x0000000000000000       0x18 /opt/microchip/xc32/v4.60/bin/bin/../../lib/gcc/pic32mx/8.3.1/../../../../pic32mx/lib/libpic32.a(vector35.o)
 .xc_stack_usage.hdr
                0x0000000000000000        0xe /opt/microchip/xc32/v4.60/bin/bin/../../lib/gcc/pic32mx/8.3.1/../../../../pic32mx/lib/libpic32.a(vector35.o)
 .xc_stack_usage
                0x0000000000000000       0x22 /opt/microchip/xc32/v4.60/bin/bin/../../lib/gcc/pic32mx/8.3.1/../../../../pic32mx/lib/libpic32.a(vector35.o)
 .text          0x0000000000000000        0x0 /opt/microchip/xc32/v4.60/bin/bin/../../lib/gcc/pic32mx/8.3.1/../../../../pic32mx/lib/libpic32.a(vector36.o)
 .data          0x0000000000000000        0x0 /opt/microchip/xc32/v4.60/bin/bin/../../lib/gcc/pic32mx/8.3.1/../../../../pic32mx/lib/libpic32.a(vector36.o)
 .bss           0x0000000000000000        0x0 /opt/microchip/xc32/v4.60/bin/bin/../../lib/gcc/pic32mx/8.3.1/../../../../pic32mx/lib/libpic32.a(vector36.o)
 .reginfo       0x0000000000000000       0x18 /opt/microchip/xc32/v4.60/bin/bin/../../lib/gcc/pic32mx/8.3.1/../../../../pic32mx/lib/libpic32.a(vector36.o)
 .MIPS.abiflags
                0x0000000000000000       0x18 /opt/microchip/xc32/v4.60/bin/bin/../../lib/gcc/pic32mx/8.3.1/../../../../pic32mx/lib/libpic32.a(vector36.o)
 .xc_stack_usage.hdr
                0x0000000000000000        0xe /opt/microchip/xc32/v4.60/bin/bin/../../lib/gcc/pic32mx/8.3.1/../../../../pic32mx/lib/libpic32.a(vector36.o)
 .xc_stack_usage
                0x0000000000000000       0x22 /opt/microchip/xc32/v4.60/bin/bin/../../lib/gcc/pic32mx/8.3.1/../../../../pic32mx/lib/libpic32.a(vector36.o)
 .text          0x0000000000000000        0x0 /opt/microchip/xc32/v4.60/bin/bin/../../lib/gcc/pic32mx/8.3.1/../../../../pic32mx/lib/libpic32.a(vector37.o)
 .data          0x0000000000000000        0x0 /opt/microchip/xc32/v4.60/bin/bin/../../lib/gcc/pic32mx/8.3.1/../../../../pic32mx/lib/libpic32.a(vector37.o)
 .bss           0x0000000000000000        0x0 /opt/microchip/xc32/v4.60/bin/bin/../../lib/gcc/pic32mx/8.3.1/../../../../pic32mx/lib/libpic32.a(vector37.o)
 .reginfo       0x0000000000000000       0x18 /opt/microchip/xc32/v4.60/bin/bin/../../lib/gcc/pic32mx/8.3.1/../../../../pic32mx/lib/libpic32.a(vector37.o)
 .MIPS.abiflags
                0x0000000000000000       0x18 /opt/microchip/xc32/v4.60/bin/bin/../../lib/gcc/pic32mx/8.3.1/../../../../pic32mx/lib/libpic32.a(vector37.o)
 .xc_stack_usage.hdr
                0x0000000000000000        0xe /opt/microchip/xc32/v4.60/bin/bin/../../lib/gcc/pic32mx/8.3.1/../../../../pic32mx/lib/libpic32.a(vector37.o)
 .xc_stack_usage
                0x0000000000000000       0x22 /opt/microchip/xc32/v4.60/bin/bin/../../lib/gcc/pic32mx/8.3.1/../../../../pic32mx/lib/libpic32.a(vector37.o)
 .text          0x0000000000000000        0x0 /opt/microchip/xc32/v4.60/bin/bin/../../lib/gcc/pic32mx/8.3.1/../../../../pic32mx/lib/libpic32.a(vector38.o)
 .data          0x0000000000000000        0x0 /opt/microchip/xc32/v4.60/bin/bin/../../lib/gcc/pic32mx/8.3.1/../../../../pic32mx/lib/libpic32.a(vector38.o)
 .bss           0x0000000000000000        0x0 /opt/microchip/xc32/v4.60/bin/bin/../../lib/gcc/pic32mx/8.3.1/../../../../pic32mx/lib/libpic32.a(vector38.o)
 .reginfo       0x0000000000000000       0x18 /opt/microchip/xc32/v4.60/bin/bin/../../lib/gcc/pic32mx/8.3.1/../../../../pic32mx/lib/libpic32.a(vector38.o)
 .MIPS.abiflags
                0x0000000000000000       0x18 /opt/microchip/xc32/v4.60/bin/bin/../../lib/gcc/pic32mx/8.3.1/../../../../pic32mx/lib/libpic32.a(vector38.o)
 .xc_stack_usage.hdr
                0x0000000000000000        0xe /opt/microchip/xc32/v4.60/bin/bin/../../lib/gcc/pic32mx/8.3.1/../../../../pic32mx/lib/libpic32.a(vector38.o)
 .xc_stack_usage
                0x0000000000000000       0x22 /opt/microchip/xc32/v4.60/bin/bin/../../lib/gcc/pic32mx/8.3.1/../../../../pic32mx/lib/libpic32.a(vector38.o)
 .text          0x0000000000000000        0x0 /opt/microchip/xc32/v4.60/bin/bin/../../lib/gcc/pic32mx/8.3.1/../../../../pic32mx/lib/libpic32.a(vector39.o)
 .data          0x0000000000000000        0x0 /opt/microchip/xc32/v4.60/bin/bin/../../lib/gcc/pic32mx/8.3.1/../../../../pic32mx/lib/libpic32.a(vector39.o)
 .bss           0x0000000000000000        0x0 /opt/microchip/xc32/v4.60/bin/bin/../../lib/gcc/pic32mx/8.3.1/../../../../pic32mx/lib/libpic32.a(vector39.o)
 .reginfo       0x0000000000000000       0x18 /opt/microchip/xc32/v4.60/bin/bin/../../lib/gcc/pic32mx/8.3.1/../../../../pic32mx/lib/libpic32.a(vector39.o)
 .MIPS.abiflags
                0x0000000000000000       0x18 /opt/microchip/xc32/v4.60/bin/bin/../../lib/gcc/pic32mx/8.3.1/../../../../pic32mx/lib/libpic32.a(vector39.o)
 .xc_stack_usage.hdr
                0x0000000000000000        0xe /opt/microchip/xc32/v4.60/bin/bin/../../lib/gcc/pic32mx/8.3.1/../../../../pic32mx/lib/libpic32.a(vector39.o)
 .xc_stack_usage
                0x0000000000000000       0x22 /opt/microchip/xc32/v4.60/bin/bin/../../lib/gcc/pic32mx/8.3.1/../../../../pic32mx/lib/libpic32.a(vector39.o)
 .text          0x0000000000000000        0x0 /opt/microchip/xc32/v4.60/bin/bin/../../lib/gcc/pic32mx/8.3.1/../../../../pic32mx/lib/libpic32.a(vector40.o)
 .data          0x0000000000000000        0x0 /opt/microchip/xc32/v4.60/bin/bin/../../lib/gcc/pic32mx/8.3.1/../../../../pic32mx/lib/libpic32.a(vector40.o)
 .bss           0x0000000000000000        0x0 /opt/microchip/xc32/v4.60/bin/bin/../../lib/gcc/pic32mx/8.3.1/../../../../pic32mx/lib/libpic32.a(vector40.o)
 .reginfo       0x0000000000000000       0x18 /opt/microchip/xc32/v4.60/bin/bin/../../lib/gcc/pic32mx/8.3.1/../../../../pic32mx/lib/libpic32.a(vector40.o)
 .MIPS.abiflags
                0x0000000000000000       0x18 /opt/microchip/xc32/v4.60/bin/bin/../../lib/gcc/pic32mx/8.3.1/../../../../pic32mx/lib/libpic32.a(vector40.o)
 .xc_stack_usage.hdr
                0x0000000000000000        0xe /opt/microchip/xc32/v4.60/bin/bin/../../lib/gcc/pic32mx/8.3.1/../../../../pic32mx/lib/libpic32.a(vector40.o)
 .xc_stack_usage
                0x0000000000000000       0x22 /opt/microchip/xc32/v4.60/bin/bin/../../lib/gcc/pic32mx/8.3.1/../../../../pic32mx/lib/libpic32.a(vector40.o)
 .text          0x0000000000000000        0x0 /opt/microchip/xc32/v4.60/bin/bin/../../lib/gcc/pic32mx/8.3.1/../../../../pic32mx/lib/libpic32.a(vector41.o)
 .data          0x0000000000000000        0x0 /opt/microchip/xc32/v4.60/bin/bin/../../lib/gcc/pic32mx/8.3.1/../../../../pic32mx/lib/libpic32.a(vector41.o)
 .bss           0x0000000000000000        0x0 /opt/microchip/xc32/v4.60/bin/bin/../../lib/gcc/pic32mx/8.3.1/../../../../pic32mx/lib/libpic32.a(vector41.o)
 .reginfo       0x0000000000000000       0x18 /opt/microchip/xc32/v4.60/bin/bin/../../lib/gcc/pic32mx/8.3.1/../../../../pic32mx/lib/libpic32.a(vector41.o)
 .MIPS.abiflags
                0x0000000000000000       0x18 /opt/microchip/xc32/v4.60/bin/bin/../../lib/gcc/pic32mx/8.3.1/../../../../pic32mx/lib/libpic32.a(vector41.o)
 .xc_stack_usage.hdr
                0x0000000000000000        0xe /opt/microchip/xc32/v4.60/bin/bin/../../lib/gcc/pic32mx/8.3.1/../../../../pic32mx/lib/libpic32.a(vector41.o)
 .xc_stack_usage
                0x0000000000000000       0x22 /opt/microchip/xc32/v4.60/bin/bin/../../lib/gcc/pic32mx/8.3.1/../../../../pic32mx/lib/libpic32.a(vector41.o)
 .text          0x0000000000000000        0x0 /opt/microchip/xc32/v4.60/bin/bin/../../lib/gcc/pic32mx/8.3.1/../../../../pic32mx/lib/libpic32.a(vector42.o)
 .data          0x0000000000000000        0x0 /opt/microchip/xc32/v4.60/bin/bin/../../lib/gcc/pic32mx/8.3.1/../../../../pic32mx/lib/libpic32.a(vector42.o)
 .bss           0x0000000000000000        0x0 /opt/microchip/xc32/v4.60/bin/bin/../../lib/gcc/pic32mx/8.3.1/../../../../pic32mx/lib/libpic32.a(vector42.o)
 .reginfo       0x0000000000000000       0x18 /opt/microchip/xc32/v4.60/bin/bin/../../lib/gcc/pic32mx/8.3.1/../../../../pic32mx/lib/libpic32.a(vector42.o)
 .MIPS.abiflags
                0x0000000000000000       0x18 /opt/microchip/xc32/v4.60/bin/bin/../../lib/gcc/pic32mx/8.3.1/../../../../pic32mx/lib/libpic32.a(vector42.o)
 .xc_stack_usage.hdr
                0x0000000000000000        0xe /opt/microchip/xc32/v4.60/bin/bin/../../lib/gcc/pic32mx/8.3.1/../../../../pic32mx/lib/libpic32.a(vector42.o)
 .xc_stack_usage
                0x0000000000000000       0x22 /opt/microchip/xc32/v4.60/bin/bin/../../lib/gcc/pic32mx/8.3.1/../../../../pic32mx/lib/libpic32.a(vector42.o)
 .text          0x0000000000000000        0x0 /opt/microchip/xc32/v4.60/bin/bin/../../lib/gcc/pic32mx/8.3.1/../../../../pic32mx/lib/libpic32.a(vector43.o)
 .data          0x0000000000000000        0x0 /opt/microchip/xc32/v4.60/bin/bin/../../lib/gcc/pic32mx/8.3.1/../../../../pic32mx/lib/libpic32.a(vector43.o)
 .bss           0x0000000000000000        0x0 /opt/microchip/xc32/v4.60/bin/bin/../../lib/gcc/pic32mx/8.3.1/../../../../pic32mx/lib/libpic32.a(vector43.o)
 .reginfo       0x0000000000000000       0x18 /opt/microchip/xc32/v4.60/bin/bin/../../lib/gcc/pic32mx/8.3.1/../../../../pic32mx/lib/libpic32.a(vector43.o)
 .MIPS.abiflags
                0x0000000000000000       0x18 /opt/microchip/xc32/v4.60/bin/bin/../../lib/gcc/pic32mx/8.3.1/../../../../pic32mx/lib/libpic32.a(vector43.o)
 .xc_stack_usage.hdr
                0x0000000000000000        0xe /opt/microchip/xc32/v4.60/bin/bin/../../lib/gcc/pic32mx/8.3.1/../../../../pic32mx/lib/libpic32.a(vector43.o)
 .xc_stack_usage
                0x0000000000000000       0x22 /opt/microchip/xc32/v4.60/bin/bin/../../lib/gcc/pic32mx/8.3.1/../../../../pic32mx/lib/libpic32.a(vector43.o)
 .text          0x0000000000000000        0x0 /opt/microchip/xc32/v4.60/bin/bin/../../lib/gcc/pic32mx/8.3.1/../../../../pic32mx/lib/libpic32.a(vector44.o)
 .data          0x0000000000000000        0x0 /opt/microchip/xc32/v4.60/bin/bin/../../lib/gcc/pic32mx/8.3.1/../../../../pic32mx/lib/libpic32.a(vector44.o)
 .bss           0x0000000000000000        0x0 /opt/microchip/xc32/v4.60/bin/bin/../../lib/gcc/pic32mx/8.3.1/../../../../pic32mx/lib/libpic32.a(vector44.o)
 .reginfo       0x0000000000000000       0x18 /opt/microchip/xc32/v4.60/bin/bin/../../lib/gcc/pic32mx/8.3.1/../../../../pic32mx/lib/libpic32.a(vector44.o)
 .MIPS.abiflags
                0x0000000000000000       0x18 /opt/microchip/xc32/v4.60/bin/bin/../../lib/gcc/pic32mx/8.3.1/../../../../pic32mx/lib/libpic32.a(vector44.o)
 .xc_stack_usage.hdr
                0x0000000000000000        0xe /opt/microchip/xc32/v4.60/bin/bin/../../lib/gcc/pic32mx/8.3.1/../../../../pic32mx/lib/libpic32.a(vector44.o)
 .xc_stack_usage
                0x0000000000000000       0x22 /opt/microchip/xc32/v4.60/bin/bin/../../lib/gcc/pic32mx/8.3.1/../../../../pic32mx/lib/libpic32.a(vector44.o)
 .text          0x0000000000000000        0x0 /opt/microchip/xc32/v4.60/bin/bin/../../lib/gcc/pic32mx/8.3.1/../../../../pic32mx/lib/libpic32.a(vector45.o)
 .data          0x0000000000000000        0x0 /opt/microchip/xc32/v4.60/bin/bin/../../lib/gcc/pic32mx/8.3.1/../../../../pic32mx/lib/libpic32.a(vector45.o)
 .bss           0x0000000000000000        0x0 /opt/microchip/xc32/v4.60/bin/bin/../../lib/gcc/pic32mx/8.3.1/../../../../pic32mx/lib/libpic32.a(vector45.o)
 .reginfo       0x0000000000000000       0x18 /opt/microchip/xc32/v4.60/bin/bin/../../lib/gcc/pic32mx/8.3.1/../../../../pic32mx/lib/libpic32.a(vector45.o)
 .MIPS.abiflags
                0x0000000000000000       0x18 /opt/microchip/xc32/v4.60/bin/bin/../../lib/gcc/pic32mx/8.3.1/../../../../pic32mx/lib/libpic32.a(vector45.o)
 .xc_stack_usage.hdr
                0x0000000000000000        0xe /opt/microchip/xc32/v4.60/bin/bin/../../lib/gcc/pic32mx/8.3.1/../../../../pic32mx/lib/libpic32.a(vector45.o)
 .xc_stack_usage
                0x0000000000000000       0x22 /opt/microchip/xc32/v4.60/bin/bin/../../lib/gcc/pic32mx/8.3.1/../../../../pic32mx/lib/libpic32.a(vector45.o)
 .text          0x0000000000000000        0x0 /opt/microchip/xc32/v4.60/bin/bin/../../lib/gcc/pic32mx/8.3.1/../../../../pic32mx/lib/libpic32.a(vector46.o)
 .data          0x0000000000000000        0x0 /opt/microchip/xc32/v4.60/bin/bin/../../lib/gcc/pic32mx/8.3.1/../../../../pic32mx/lib/libpic32.a(vector46.o)
 .bss           0x0000000000000000        0x0 /opt/microchip/xc32/v4.60/bin/bin/../../lib/gcc/pic32mx/8.3.1/../../../../pic32mx/lib/libpic32.a(vector46.o)
 .reginfo       0x0000000000000000       0x18 /opt/microchip/xc32/v4.60/bin/bin/../../lib/gcc/pic32mx/8.3.1/../../../../pic32mx/lib/libpic32.a(vector46.o)
 .MIPS.abiflags
                0x0000000000000000       0x18 /opt/microchip/xc32/v4.60/bin/bin/../../lib/gcc/pic32mx/8.3.1/../../../../pic32mx/lib/libpic32.a(vector46.o)
 .xc_stack_usage.hdr
                0x0000000000000000        0xe /opt/microchip/xc32/v4.60/bin/bin/../../lib/gcc/pic32mx/8.3.1/../../../../pic32mx/lib/libpic32.a(vector46.o)
 .xc_stack_usage
                0x0000000000000000       0x22 /opt/microchip/xc32/v4.60/bin/bin/../../lib/gcc/pic32mx/8.3.1/../../../../pic32mx/lib/libpic32.a(vector46.o)
 .text          0x0000000000000000        0x0 /opt/microchip/xc32/v4.60/bin/bin/../../lib/gcc/pic32mx/8.3.1/../../../../pic32mx/lib/libpic32.a(vector47.o)
 .data          0x0000000000000000        0x0 /opt/microchip/xc32/v4.60/bin/bin/../../lib/gcc/pic32mx/8.3.1/../../../../pic32mx/lib/libpic32.a(vector47.o)
 .bss           0x0000000000000000        0x0 /opt/microchip/xc32/v4.60/bin/bin/../../lib/gcc/pic32mx/8.3.1/../../../../pic32mx/lib/libpic32.a(vector47.o)
 .reginfo       0x0000000000000000       0x18 /opt/microchip/xc32/v4.60/bin/bin/../../lib/gcc/pic32mx/8.3.1/../../../../pic32mx/lib/libpic32.a(vector47.o)
 .MIPS.abiflags
                0x0000000000000000       0x18 /opt/microchip/xc32/v4.60/bin/bin/../../lib/gcc/pic32mx/8.3.1/../../../../pic32mx/lib/libpic32.a(vector47.o)
 .xc_stack_usage.hdr
                0x0000000000000000        0xe /opt/microchip/xc32/v4.60/bin/bin/../../lib/gcc/pic32mx/8.3.1/../../../../pic32mx/lib/libpic32.a(vector47.o)
 .xc_stack_usage
                0x0000000000000000       0x22 /opt/microchip/xc32/v4.60/bin/bin/../../lib/gcc/pic32mx/8.3.1/../../../../pic32mx/lib/libpic32.a(vector47.o)
 .text          0x0000000000000000        0x0 /opt/microchip/xc32/v4.60/bin/bin/../../lib/gcc/pic32mx/8.3.1/../../../../pic32mx/lib/libpic32.a(vector49.o)
 .data          0x0000000000000000        0x0 /opt/microchip/xc32/v4.60/bin/bin/../../lib/gcc/pic32mx/8.3.1/../../../../pic32mx/lib/libpic32.a(vector49.o)
 .bss           0x0000000000000000        0x0 /opt/microchip/xc32/v4.60/bin/bin/../../lib/gcc/pic32mx/8.3.1/../../../../pic32mx/lib/libpic32.a(vector49.o)
 .reginfo       0x0000000000000000       0x18 /opt/microchip/xc32/v4.60/bin/bin/../../lib/gcc/pic32mx/8.3.1/../../../../pic32mx/lib/libpic32.a(vector49.o)
 .MIPS.abiflags
                0x0000000000000000       0x18 /opt/microchip/xc32/v4.60/bin/bin/../../lib/gcc/pic32mx/8.3.1/../../../../pic32mx/lib/libpic32.a(vector49.o)
 .xc_stack_usage.hdr
                0x0000000000000000        0xe /opt/microchip/xc32/v4.60/bin/bin/../../lib/gcc/pic32mx/8.3.1/../../../../pic32mx/lib/libpic32.a(vector49.o)
 .xc_stack_usage
                0x0000000000000000       0x22 /opt/microchip/xc32/v4.60/bin/bin/../../lib/gcc/pic32mx/8.3.1/../../../../pic32mx/lib/libpic32.a(vector49.o)
 .text          0x0000000000000000        0x0 /opt/microchip/xc32/v4.60/bin/bin/../../lib/gcc/pic32mx/8.3.1/../../../../pic32mx/lib/libpic32.a(vector50.o)
 .data          0x0000000000000000        0x0 /opt/microchip/xc32/v4.60/bin/bin/../../lib/gcc/pic32mx/8.3.1/../../../../pic32mx/lib/libpic32.a(vector50.o)
 .bss           0x0000000000000000        0x0 /opt/microchip/xc32/v4.60/bin/bin/../../lib/gcc/pic32mx/8.3.1/../../../../pic32mx/lib/libpic32.a(vector50.o)
 .reginfo       0x0000000000000000       0x18 /opt/microchip/xc32/v4.60/bin/bin/../../lib/gcc/pic32mx/8.3.1/../../../../pic32mx/lib/libpic32.a(vector50.o)
 .MIPS.abiflags
                0x0000000000000000       0x18 /opt/microchip/xc32/v4.60/bin/bin/../../lib/gcc/pic32mx/8.3.1/../../../../pic32mx/lib/libpic32.a(vector50.o)
 .xc_stack_usage.hdr
                0x0000000000000000        0xe /opt/microchip/xc32/v4.60/bin/bin/../../lib/gcc/pic32mx/8.3.1/../../../../pic32mx/lib/libpic32.a(vector50.o)
 .xc_stack_usage
                0x0000000000000000       0x22 /opt/microchip/xc32/v4.60/bin/bin/../../lib/gcc/pic32mx/8.3.1/../../../../pic32mx/lib/libpic32.a(vector50.o)
 .text          0x0000000000000000        0x0 /opt/microchip/xc32/v4.60/bin/bin/../../lib/gcc/pic32mx/8.3.1/../../../../pic32mx/lib/libpic32.a(vector51.o)
 .data          0x0000000000000000        0x0 /opt/microchip/xc32/v4.60/bin/bin/../../lib/gcc/pic32mx/8.3.1/../../../../pic32mx/lib/libpic32.a(vector51.o)
 .bss           0x0000000000000000        0x0 /opt/microchip/xc32/v4.60/bin/bin/../../lib/gcc/pic32mx/8.3.1/../../../../pic32mx/lib/libpic32.a(vector51.o)
 .reginfo       0x0000000000000000       0x18 /opt/microchip/xc32/v4.60/bin/bin/../../lib/gcc/pic32mx/8.3.1/../../../../pic32mx/lib/libpic32.a(vector51.o)
 .MIPS.abiflags
                0x0000000000000000       0x18 /opt/microchip/xc32/v4.60/bin/bin/../../lib/gcc/pic32mx/8.3.1/../../../../pic32mx/lib/libpic32.a(vector51.o)
 .xc_stack_usage.hdr
                0x0000000000000000        0xe /opt/microchip/xc32/v4.60/bin/bin/../../lib/gcc/pic32mx/8.3.1/../../../../pic32mx/lib/libpic32.a(vector51.o)
 .xc_stack_usage
                0x0000000000000000       0x22 /opt/microchip/xc32/v4.60/bin/bin/../../lib/gcc/pic32mx/8.3.1/../../../../pic32mx/lib/libpic32.a(vector51.o)
 .text          0x0000000000000000        0x0 /opt/microchip/xc32/v4.60/bin/bin/../../lib/gcc/pic32mx/8.3.1/../../../../pic32mx/lib/libpic32.a(defaultinterrupt.o)
 .data          0x0000000000000000        0x0 /opt/microchip/xc32/v4.60/bin/bin/../../lib/gcc/pic32mx/8.3.1/../../../../pic32mx/lib/libpic32.a(defaultinterrupt.o)
 .bss           0x0000000000000000        0x0 /opt/microchip/xc32/v4.60/bin/bin/../../lib/gcc/pic32mx/8.3.1/../../../../pic32mx/lib/libpic32.a(defaultinterrupt.o)
 .reginfo       0x0000000000000000       0x18 /opt/microchip/xc32/v4.60/bin/bin/../../lib/gcc/pic32mx/8.3.1/../../../../pic32mx/lib/libpic32.a(defaultinterrupt.o)
 .MIPS.abiflags
                0x0000000000000000       0x18 /opt/microchip/xc32/v4.60/bin/bin/../../lib/gcc/pic32mx/8.3.1/../../../../pic32mx/lib/libpic32.a(defaultinterrupt.o)
 .xc_stack_usage
                0x0000000000000000       0x1f /opt/microchip/xc32/v4.60/bin/bin/../../lib/gcc/pic32mx/8.3.1/../../../../pic32mx/lib/libpic32.a(defaultinterrupt.o)
 .xc_stack_usage.hdr
                0x0000000000000000        0xe /opt/microchip/xc32/v4.60/bin/bin/../../lib/gcc/pic32mx/8.3.1/../../../../pic32mx/lib/libpic32.a(defaultinterrupt.o)
 .text          0x0000000000000000        0x0 /opt/microchip/xc32/v4.60/bin/bin/../../lib/gcc/pic32mx/8.3.1/../../../../pic32mx/lib/libc-size-musl.a(memcmp.o)
 .data          0x0000000000000000        0x0 /opt/microchip/xc32/v4.60/bin/bin/../../lib/gcc/pic32mx/8.3.1/../../../../pic32mx/lib/libc-size-musl.a(memcmp.o)
 .bss           0x0000000000000000        0x0 /opt/microchip/xc32/v4.60/bin/bin/../../lib/gcc/pic32mx/8.3.1/../../../../pic32mx/lib/libc-size-musl.a(memcmp.o)
 .reginfo       0x0000000000000000       0x18 /opt/microchip/xc32/v4.60/bin/bin/../../lib/gcc/pic32mx/8.3.1/../../../../pic32mx/lib/libc-size-musl.a(memcmp.o)
 .MIPS.abiflags
                0x0000000000000000       0x18 /opt/microchip/xc32/v4.60/bin/bin/../../lib/gcc/pic32mx/8.3.1/../../../../pic32mx/lib/libc-size-musl.a(memcmp.o)
 .xc_stack_usage
                0x0000000000000000       0x14 /opt/microchip/xc32/v4.60/bin/bin/../../lib/gcc/pic32mx/8.3.1/../../../../pic32mx/lib/libc-size-musl.a(memcmp.o)
 .xc_stack_usage.hdr
                0x0000000000000000        0xe /opt/microchip/xc32/v4.60/bin/bin/../../lib/gcc/pic32mx/8.3.1/../../../../pic32mx/lib/libc-size-musl.a(memcmp.o)
 .note.GNU-stack
                0x0000000000000000        0x0 /opt/microchip/xc32/v4.60/bin/bin/../../lib/gcc/pic32mx/8.3.1/../../../../pic32mx/lib/libc-size-musl.a(memcmp.o)
 .text          0x0000000000000000        0x0 /opt/microchip/xc32/v4.60/bin/bin/../../lib/gcc/pic32mx/8.3.1/../../../../pic32mx/lib/libc-size-musl.a(memcpy.o)
 .data          0x0000000000000000        0x0 /opt/microchip/xc32/v4.60/bin/bin/../../lib/gcc/pic32mx/8.3.1/../../../../pic32mx/lib/libc-size-musl.a(memcpy.o)
 .bss           0x0000000000000000        0x0 /opt/microchip/xc32/v4.60/bin/bin/../../lib/gcc/pic32mx/8.3.1/../../../../pic32mx/lib/libc-size-musl.a(memcpy.o)
 .reginfo       0x0000000000000000       0x18 /opt/microchip/xc32/v4.60/bin/bin/../../lib/gcc/pic32mx/8.3.1/../../../../pic32mx/lib/libc-size-musl.a(memcpy.o)
 .MIPS.abiflags
                0x0000000000000000       0x18 /opt/microchip/xc32/v4.60/bin/bin/../../lib/gcc/pic32mx/8.3.1/../../../../pic32mx/lib/libc-size-musl.a(memcpy.o)
 .xc_stack_usage
                0x0000000000000000       0x14 /opt/microchip/xc32/v4.60/bin/bin/../../lib/gcc/pic32mx/8.3.1/../../../../pic32mx/lib/libc-size-musl.a(memcpy.o)
 .xc_stack_usage.hdr
                0x0000000000000000        0xe /opt/microchip/xc32/v4.60/bin/bin/../../lib/gcc/pic32mx/8.3.1/../../../../pic32mx/lib/libc-size-musl.a(memcpy.o)
 .note.GNU-stack
                0x0000000000000000        0x0 /opt/microchip/xc32/v4.60/bin/bin/../../lib/gcc/pic32mx/8.3.1/../../../../pic32mx/lib/libc-size-musl.a(memcpy.o)
 .text          0x0000000000000000        0x0 /opt/microchip/xc32/v4.60/bin/bin/../../lib/gcc/pic32mx/8.3.1/../../../../pic32mx/lib/libc-size-musl.a(memset.o)
 .data          0x0000000000000000        0x0 /opt/microchip/xc32/v4.60/bin/bin/../../lib/gcc/pic32mx/8.3.1/../../../../pic32mx/lib/libc-size-musl.a(memset.o)
 .bss           0x0000000000000000        0x0 /opt/microchip/xc32/v4.60/bin/bin/../../lib/gcc/pic32mx/8.3.1/../../../../pic32mx/lib/libc-size-musl.a(memset.o)
 .reginfo       0x0000000000000000       0x18 /opt/microchip/xc32/v4.60/bin/bin/../../lib/gcc/pic32mx/8.3.1/../../../../pic32mx/lib/libc-size-musl.a(memset.o)
 .MIPS.abiflags
                0x0000000000000000       0x18 /opt/microchip/xc32/v4.60/bin/bin/../../lib/gcc/pic32mx/8.3.1/../../../../pic32mx/lib/libc-size-musl.a(memset.o)
 .xc_stack_usage
                0x0000000000000000       0x14 /opt/microchip/xc32/v4.60/bin/bin/../../lib/gcc/pic32mx/8.3.1/../../../../pic32mx/lib/libc-size-musl.a(memset.o)
 .xc_stack_usage.hdr
                0x0000000000000000        0xe /opt/microchip/xc32/v4.60/bin/bin/../../lib/gcc/pic32mx/8.3.1/../../../../pic32mx/lib/libc-size-musl.a(memset.o)
 .note.GNU-stack
                0x0000000000000000        0x0 /opt/microchip/xc32/v4.60/bin/bin/../../lib/gcc/pic32mx/8.3.1/../../../../pic32mx/lib/libc-size-musl.a(memset.o)
 .text          0x0000000000000000        0x0 /opt/microchip/xc32/v4.60/bin/bin/../../lib/gcc/pic32mx/8.3.1/../../../../pic32mx/lib/libc-size-musl.a(strlen.o)
 .data          0x0000000000000000        0x0 /opt/microchip/xc32/v4.60/bin/bin/../../lib/gcc/pic32mx/8.3.1/../../../../pic32mx/lib/libc-size-musl.a(strlen.o)
 .bss           0x0000000000000000        0x0 /opt/microchip/xc32/v4.60/bin/bin/../../lib/gcc/pic32mx/8.3.1/../../../../pic32mx/lib/libc-size-musl.a(strlen.o)
 .reginfo       0x0000000000000000       0x18 /opt/microchip/xc32/v4.60/bin/bin/../../lib/gcc/pic32mx/8.3.1/../../../../pic32mx/lib/libc-size-musl.a(strlen.o)
 .MIPS.abiflags
                0x0000000000000000       0x18 /opt/microchip/xc32/v4.60/bin/bin/../../lib/gcc/pic32mx/8.3.1/../../../../pic32mx/lib/libc-size-musl.a(strlen.o)
 .xc_stack_usage
                0x0000000000000000       0x14 /opt/microchip/xc32/v4.60/bin/bin/../../lib/gcc/pic32mx/8.3.1/../../../../pic32mx/lib/libc-size-musl.a(strlen.o)
 .xc_stack_usage.hdr
                0x0000000000000000        0xe /opt/microchip/xc32/v4.60/bin/bin/../../lib/gcc/pic32mx/8.3.1/../../../../pic32mx/lib/libc-size-musl.a(strlen.o)
 .note.GNU-stack
                0x0000000000000000        0x0 /opt/microchip/xc32/v4.60/bin/bin/../../lib/gcc/pic32mx/8.3.1/../../../../pic32mx/lib/libc-size-musl.a(strlen.o)
 .text          0x0000000000000000        0x0 /opt/microchip/xc32/v4.60/bin/bin/../../lib/gcc/pic32mx/8.3.1/../../../../pic32mx/lib/libc-size-musl.a(strchr.o)
 .data          0x0000000000000000        0x0 /opt/microchip/xc32/v4.60/bin/bin/../../lib/gcc/pic32mx/8.3.1/../../../../pic32mx/lib/libc-size-musl.a(strchr.o)
 .bss           0x0000000000000000        0x0 /opt/microchip/xc32/v4.60/bin/bin/../../lib/gcc/pic32mx/8.3.1/../../../../pic32mx/lib/libc-size-musl.a(strchr.o)
 .reginfo       0x0000000000000000       0x18 /opt/microchip/xc32/v4.60/bin/bin/../../lib/gcc/pic32mx/8.3.1/../../../../pic32mx/lib/libc-size-musl.a(strchr.o)
 .MIPS.abiflags
                0x0000000000000000       0x18 /opt/microchip/xc32/v4.60/bin/bin/../../lib/gcc/pic32mx/8.3.1/../../../../pic32mx/lib/libc-size-musl.a(strchr.o)
 .xc_stack_usage
                0x0000000000000000       0x14 /opt/microchip/xc32/v4.60/bin/bin/../../lib/gcc/pic32mx/8.3.1/../../../../pic32mx/lib/libc-size-musl.a(strchr.o)
 .xc_stack_usage.hdr
                0x0000000000000000        0xe /opt/microchip/xc32/v4.60/bin/bin/../../lib/gcc/pic32mx/8.3.1/../../../../pic32mx/lib/libc-size-musl.a(strchr.o)
 .note.GNU-stack
                0x0000000000000000        0x0 /opt/microchip/xc32/v4.60/bin/bin/../../lib/gcc/pic32mx/8.3.1/../../../../pic32mx/lib/libc-size-musl.a(strchr.o)
 .text          0x0000000000000000        0x0 /opt/microchip/xc32/v4.60/bin/bin/../../lib/gcc/pic32mx/8.3.1/../../../../pic32mx/lib/libc-size-musl.a(strchrnul.o)
 .data          0x0000000000000000        0x0 /opt/microchip/xc32/v4.60/bin/bin/../../lib/gcc/pic32mx/8.3.1/../../../../pic32mx/lib/libc-size-musl.a(strchrnul.o)
 .bss           0x0000000000000000        0x0 /opt/microchip/xc32/v4.60/bin/bin/../../lib/gcc/pic32mx/8.3.1/../../../../pic32mx/lib/libc-size-musl.a(strchrnul.o)
 .reginfo       0x0000000000000000       0x18 /opt/microchip/xc32/v4.60/bin/bin/../../lib/gcc/pic32mx/8.3.1/../../../../pic32mx/lib/libc-size-musl.a(strchrnul.o)
 .MIPS.abiflags
                0x0000000000000000       0x18 /opt/microchip/xc32/v4.60/bin/bin/../../lib/gcc/pic32mx/8.3.1/../../../../pic32mx/lib/libc-size-musl.a(strchrnul.o)
 .xc_stack_usage
                0x0000000000000000       0x19 /opt/microchip/xc32/v4.60/bin/bin/../../lib/gcc/pic32mx/8.3.1/../../../../pic32mx/lib/libc-size-musl.a(strchrnul.o)
 .xc_stack_usage.hdr
                0x0000000000000000        0xe /opt/microchip/xc32/v4.60/bin/bin/../../lib/gcc/pic32mx/8.3.1/../../../../pic32mx/lib/libc-size-musl.a(strchrnul.o)
 .note.GNU-stack
                0x0000000000000000        0x0 /opt/microchip/xc32/v4.60/bin/bin/../../lib/gcc/pic32mx/8.3.1/../../../../pic32mx/lib/libc-size-musl.a(strchrnul.o)
 .text          0x0000000000000000        0x0 /opt/microchip/xc32/v4.60/bin/bin/../../lib/gcc/pic32mx/8.3.1/../../../../pic32mx/lib/libc-size-musl.a(strcmp.o)
 .data          0x0000000000000000        0x0 /opt/microchip/xc32/v4.60/bin/bin/../../lib/gcc/pic32mx/8.3.1/../../../../pic32mx/lib/libc-size-musl.a(strcmp.o)
 .bss           0x0000000000000000        0x0 /opt/microchip/xc32/v4.60/bin/bin/../../lib/gcc/pic32mx/8.3.1/../../../../pic32mx/lib/libc-size-musl.a(strcmp.o)
 .reginfo       0x0000000000000000       0x18 /opt/microchip/xc32/v4.60/bin/bin/../../lib/gcc/pic32mx/8.3.1/../../../../pic32mx/lib/libc-size-musl.a(strcmp.o)
 .MIPS.abiflags
                0x0000000000000000       0x18 /opt/microchip/xc32/v4.60/bin/bin/../../lib/gcc/pic32mx/8.3.1/../../../../pic32mx/lib/libc-size-musl.a(strcmp.o)
 .xc_stack_usage
                0x0000000000000000       0x14 /opt/microchip/xc32/v4.60/bin/bin/../../lib/gcc/pic32mx/8.3.1/../../../../pic32mx/lib/libc-size-musl.a(strcmp.o)
 .xc_stack_usage.hdr
                0x0000000000000000        0xe /opt/microchip/xc32/v4.60/bin/bin/../../lib/gcc/pic32mx/8.3.1/../../../../pic32mx/lib/libc-size-musl.a(strcmp.o)
 .note.GNU-stack
                0x0000000000000000        0x0 /opt/microchip/xc32/v4.60/bin/bin/../../lib/gcc/pic32mx/8.3.1/../../../../pic32mx/lib/libc-size-musl.a(strcmp.o)
 .text          0x0000000000000000        0x0 /opt/microchip/xc32/v4.60/bin/bin/../../lib/gcc/pic32mx/8.3.1/../../../../pic32mx/lib/libc-size-musl.a(strcpy.o)
 .data          0x0000000000000000        0x0 /opt/microchip/xc32/v4.60/bin/bin/../../lib/gcc/pic32mx/8.3.1/../../../../pic32mx/lib/libc-size-musl.a(strcpy.o)
 .bss           0x0000000000000000        0x0 /opt/microchip/xc32/v4.60/bin/bin/../../lib/gcc/pic32mx/8.3.1/../../../../pic32mx/lib/libc-size-musl.a(strcpy.o)
 .reginfo       0x0000000000000000       0x18 /opt/microchip/xc32/v4.60/bin/bin/../../lib/gcc/pic32mx/8.3.1/../../../../pic32mx/lib/libc-size-musl.a(strcpy.o)
 .MIPS.abiflags
                0x0000000000000000       0x18 /opt/microchip/xc32/v4.60/bin/bin/../../lib/gcc/pic32mx/8.3.1/../../../../pic32mx/lib/libc-size-musl.a(strcpy.o)
 .xc_stack_usage
                0x0000000000000000       0x14 /opt/microchip/xc32/v4.60/bin/bin/../../lib/gcc/pic32mx/8.3.1/../../../../pic32mx/lib/libc-size-musl.a(strcpy.o)
 .xc_stack_usage.hdr
                0x0000000000000000        0xe /opt/microchip/xc32/v4.60/bin/bin/../../lib/gcc/pic32mx/8.3.1/../../../../pic32mx/lib/libc-size-musl.a(strcpy.o)
 .note.GNU-stack
                0x0000000000000000        0x0 /opt/microchip/xc32/v4.60/bin/bin/../../lib/gcc/pic32mx/8.3.1/../../../../pic32mx/lib/libc-size-musl.a(strcpy.o)
 .text          0x0000000000000000        0x0 /opt/microchip/xc32/v4.60/bin/bin/../../lib/gcc/pic32mx/8.3.1/../../../../pic32mx/lib/libc-size-musl.a(strncmp.o)
 .data          0x0000000000000000        0x0 /opt/microchip/xc32/v4.60/bin/bin/../../lib/gcc/pic32mx/8.3.1/../../../../pic32mx/lib/libc-size-musl.a(strncmp.o)
 .bss           0x0000000000000000        0x0 /opt/microchip/xc32/v4.60/bin/bin/../../lib/gcc/pic32mx/8.3.1/../../../../pic32mx/lib/libc-size-musl.a(strncmp.o)
 .reginfo       0x0000000000000000       0x18 /opt/microchip/xc32/v4.60/bin/bin/../../lib/gcc/pic32mx/8.3.1/../../../../pic32mx/lib/libc-size-musl.a(strncmp.o)
 .MIPS.abiflags
                0x0000000000000000       0x18 /opt/microchip/xc32/v4.60/bin/bin/../../lib/gcc/pic32mx/8.3.1/../../../../pic32mx/lib/libc-size-musl.a(strncmp.o)
 .xc_stack_usage
                0x0000000000000000       0x15 /opt/microchip/xc32/v4.60/bin/bin/../../lib/gcc/pic32mx/8.3.1/../../../../pic32mx/lib/libc-size-musl.a(strncmp.o)
 .xc_stack_usage.hdr
                0x0000000000000000        0xe /opt/microchip/xc32/v4.60/bin/bin/../../lib/gcc/pic32mx/8.3.1/../../../../pic32mx/lib/libc-size-musl.a(strncmp.o)
 .note.GNU-stack
                0x0000000000000000        0x0 /opt/microchip/xc32/v4.60/bin/bin/../../lib/gcc/pic32mx/8.3.1/../../../../pic32mx/lib/libc-size-musl.a(strncmp.o)
 .text          0x0000000000000000        0x0 /opt/microchip/xc32/v4.60/bin/bin/../../lib/gcc/pic32mx/8.3.1/../../../../pic32mx/lib/libc-size-musl.a(strncpy.o)
 .data          0x0000000000000000        0x0 /opt/microchip/xc32/v4.60/bin/bin/../../lib/gcc/pic32mx/8.3.1/../../../../pic32mx/lib/libc-size-musl.a(strncpy.o)
 .bss           0x0000000000000000        0x0 /opt/microchip/xc32/v4.60/bin/bin/../../lib/gcc/pic32mx/8.3.1/../../../../pic32mx/lib/libc-size-musl.a(strncpy.o)
 .reginfo       0x0000000000000000       0x18 /opt/microchip/xc32/v4.60/bin/bin/../../lib/gcc/pic32mx/8.3.1/../../../../pic32mx/lib/libc-size-musl.a(strncpy.o)
 .MIPS.abiflags
                0x0000000000000000       0x18 /opt/microchip/xc32/v4.60/bin/bin/../../lib/gcc/pic32mx/8.3.1/../../../../pic32mx/lib/libc-size-musl.a(strncpy.o)
 .xc_stack_usage
                0x0000000000000000       0x15 /opt/microchip/xc32/v4.60/bin/bin/../../lib/gcc/pic32mx/8.3.1/../../../../pic32mx/lib/libc-size-musl.a(strncpy.o)
 .xc_stack_usage.hdr
                0x0000000000000000        0xe /opt/microchip/xc32/v4.60/bin/bin/../../lib/gcc/pic32mx/8.3.1/../../../../pic32mx/lib/libc-size-musl.a(strncpy.o)
 .note.GNU-stack
                0x0000000000000000        0x0 /opt/microchip/xc32/v4.60/bin/bin/../../lib/gcc/pic32mx/8.3.1/../../../../pic32mx/lib/libc-size-musl.a(strncpy.o)
 .text          0x0000000000000000        0x0 /opt/microchip/xc32/v4.60/bin/bin/../../lib/gcc/pic32mx/8.3.1/../../../../pic32mx/lib/libc-size-musl.a(strrchr.o)
 .data          0x0000000000000000        0x0 /opt/microchip/xc32/v4.60/bin/bin/../../lib/gcc/pic32mx/8.3.1/../../../../pic32mx/lib/libc-size-musl.a(strrchr.o)
 .bss           0x0000000000000000        0x0 /opt/microchip/xc32/v4.60/bin/bin/../../lib/gcc/pic32mx/8.3.1/../../../../pic32mx/lib/libc-size-musl.a(strrchr.o)
 .reginfo       0x0000000000000000       0x18 /opt/microchip/xc32/v4.60/bin/bin/../../lib/gcc/pic32mx/8.3.1/../../../../pic32mx/lib/libc-size-musl.a(strrchr.o)
 .MIPS.abiflags
                0x0000000000000000       0x18 /opt/microchip/xc32/v4.60/bin/bin/../../lib/gcc/pic32mx/8.3.1/../../../../pic32mx/lib/libc-size-musl.a(strrchr.o)
 .xc_stack_usage
                0x0000000000000000       0x15 /opt/microchip/xc32/v4.60/bin/bin/../../lib/gcc/pic32mx/8.3.1/../../../../pic32mx/lib/libc-size-musl.a(strrchr.o)
 .xc_stack_usage.hdr
                0x0000000000000000        0xe /opt/microchip/xc32/v4.60/bin/bin/../../lib/gcc/pic32mx/8.3.1/../../../../pic32mx/lib/libc-size-musl.a(strrchr.o)
 .note.GNU-stack
                0x0000000000000000        0x0 /opt/microchip/xc32/v4.60/bin/bin/../../lib/gcc/pic32mx/8.3.1/../../../../pic32mx/lib/libc-size-musl.a(strrchr.o)
 .text          0x0000000000000000        0x0 /opt/microchip/xc32/v4.60/bin/bin/../../lib/gcc/pic32mx/8.3.1/../../../../pic32mx/lib/libc-size-musl.a(strtok.o)
 .data          0x0000000000000000        0x0 /opt/microchip/xc32/v4.60/bin/bin/../../lib/gcc/pic32mx/8.3.1/../../../../pic32mx/lib/libc-size-musl.a(strtok.o)
 .reginfo       0x0000000000000000       0x18 /opt/microchip/xc32/v4.60/bin/bin/../../lib/gcc/pic32mx/8.3.1/../../../../pic32mx/lib/libc-size-musl.a(strtok.o)
 .MIPS.abiflags
                0x0000000000000000       0x18 /opt/microchip/xc32/v4.60/bin/bin/../../lib/gcc/pic32mx/8.3.1/../../../../pic32mx/lib/libc-size-musl.a(strtok.o)
 .xc_stack_usage
                0x0000000000000000       0x14 /opt/microchip/xc32/v4.60/bin/bin/../../lib/gcc/pic32mx/8.3.1/../../../../pic32mx/lib/libc-size-musl.a(strtok.o)
 .xc_stack_usage.hdr
                0x0000000000000000        0xe /opt/microchip/xc32/v4.60/bin/bin/../../lib/gcc/pic32mx/8.3.1/../../../../pic32mx/lib/libc-size-musl.a(strtok.o)
 .note.GNU-stack
                0x0000000000000000        0x0 /opt/microchip/xc32/v4.60/bin/bin/../../lib/gcc/pic32mx/8.3.1/../../../../pic32mx/lib/libc-size-musl.a(strtok.o)
 .text          0x0000000000000000        0x0 /opt/microchip/xc32/v4.60/bin/bin/../../lib/gcc/pic32mx/8.3.1/../../../../pic32mx/lib/libc-size-musl.a(memrchr.o)
 .data          0x0000000000000000        0x0 /opt/microchip/xc32/v4.60/bin/bin/../../lib/gcc/pic32mx/8.3.1/../../../../pic32mx/lib/libc-size-musl.a(memrchr.o)
 .bss           0x0000000000000000        0x0 /opt/microchip/xc32/v4.60/bin/bin/../../lib/gcc/pic32mx/8.3.1/../../../../pic32mx/lib/libc-size-musl.a(memrchr.o)
 .reginfo       0x0000000000000000       0x18 /opt/microchip/xc32/v4.60/bin/bin/../../lib/gcc/pic32mx/8.3.1/../../../../pic32mx/lib/libc-size-musl.a(memrchr.o)
 .MIPS.abiflags
                0x0000000000000000       0x18 /opt/microchip/xc32/v4.60/bin/bin/../../lib/gcc/pic32mx/8.3.1/../../../../pic32mx/lib/libc-size-musl.a(memrchr.o)
 .xc_stack_usage
                0x0000000000000000       0x17 /opt/microchip/xc32/v4.60/bin/bin/../../lib/gcc/pic32mx/8.3.1/../../../../pic32mx/lib/libc-size-musl.a(memrchr.o)
 .xc_stack_usage.hdr
                0x0000000000000000        0xe /opt/microchip/xc32/v4.60/bin/bin/../../lib/gcc/pic32mx/8.3.1/../../../../pic32mx/lib/libc-size-musl.a(memrchr.o)
 .note.GNU-stack
                0x0000000000000000        0x0 /opt/microchip/xc32/v4.60/bin/bin/../../lib/gcc/pic32mx/8.3.1/../../../../pic32mx/lib/libc-size-musl.a(memrchr.o)
 .text          0x0000000000000000        0x0 /opt/microchip/xc32/v4.60/bin/bin/../../lib/gcc/pic32mx/8.3.1/../../../../pic32mx/lib/libc-size-musl.a(stpcpy.o)
 .data          0x0000000000000000        0x0 /opt/microchip/xc32/v4.60/bin/bin/../../lib/gcc/pic32mx/8.3.1/../../../../pic32mx/lib/libc-size-musl.a(stpcpy.o)
 .bss           0x0000000000000000        0x0 /opt/microchip/xc32/v4.60/bin/bin/../../lib/gcc/pic32mx/8.3.1/../../../../pic32mx/lib/libc-size-musl.a(stpcpy.o)
 .reginfo       0x0000000000000000       0x18 /opt/microchip/xc32/v4.60/bin/bin/../../lib/gcc/pic32mx/8.3.1/../../../../pic32mx/lib/libc-size-musl.a(stpcpy.o)
 .MIPS.abiflags
                0x0000000000000000       0x18 /opt/microchip/xc32/v4.60/bin/bin/../../lib/gcc/pic32mx/8.3.1/../../../../pic32mx/lib/libc-size-musl.a(stpcpy.o)
 .xc_stack_usage
                0x0000000000000000       0x14 /opt/microchip/xc32/v4.60/bin/bin/../../lib/gcc/pic32mx/8.3.1/../../../../pic32mx/lib/libc-size-musl.a(stpcpy.o)
 .xc_stack_usage.hdr
                0x0000000000000000        0xe /opt/microchip/xc32/v4.60/bin/bin/../../lib/gcc/pic32mx/8.3.1/../../../../pic32mx/lib/libc-size-musl.a(stpcpy.o)
 .note.GNU-stack
                0x0000000000000000        0x0 /opt/microchip/xc32/v4.60/bin/bin/../../lib/gcc/pic32mx/8.3.1/../../../../pic32mx/lib/libc-size-musl.a(stpcpy.o)
 .text          0x0000000000000000        0x0 /opt/microchip/xc32/v4.60/bin/bin/../../lib/gcc/pic32mx/8.3.1/../../../../pic32mx/lib/libc-size-musl.a(stpncpy.o)
 .data          0x0000000000000000        0x0 /opt/microchip/xc32/v4.60/bin/bin/../../lib/gcc/pic32mx/8.3.1/../../../../pic32mx/lib/libc-size-musl.a(stpncpy.o)
 .bss           0x0000000000000000        0x0 /opt/microchip/xc32/v4.60/bin/bin/../../lib/gcc/pic32mx/8.3.1/../../../../pic32mx/lib/libc-size-musl.a(stpncpy.o)
 .reginfo       0x0000000000000000       0x18 /opt/microchip/xc32/v4.60/bin/bin/../../lib/gcc/pic32mx/8.3.1/../../../../pic32mx/lib/libc-size-musl.a(stpncpy.o)
 .MIPS.abiflags
                0x0000000000000000       0x18 /opt/microchip/xc32/v4.60/bin/bin/../../lib/gcc/pic32mx/8.3.1/../../../../pic32mx/lib/libc-size-musl.a(stpncpy.o)
 .xc_stack_usage
                0x0000000000000000       0x15 /opt/microchip/xc32/v4.60/bin/bin/../../lib/gcc/pic32mx/8.3.1/../../../../pic32mx/lib/libc-size-musl.a(stpncpy.o)
 .xc_stack_usage.hdr
                0x0000000000000000        0xe /opt/microchip/xc32/v4.60/bin/bin/../../lib/gcc/pic32mx/8.3.1/../../../../pic32mx/lib/libc-size-musl.a(stpncpy.o)
 .note.GNU-stack
                0x0000000000000000        0x0 /opt/microchip/xc32/v4.60/bin/bin/../../lib/gcc/pic32mx/8.3.1/../../../../pic32mx/lib/libc-size-musl.a(stpncpy.o)
 .text          0x0000000000000000        0x0 /opt/microchip/xc32/v4.60/bin/bin/../../lib/gcc/pic32mx/8.3.1/../../../../pic32mx/lib/libc-size-musl.a(strcspn.o)
 .data          0x0000000000000000        0x0 /opt/microchip/xc32/v4.60/bin/bin/../../lib/gcc/pic32mx/8.3.1/../../../../pic32mx/lib/libc-size-musl.a(strcspn.o)
 .bss           0x0000000000000000        0x0 /opt/microchip/xc32/v4.60/bin/bin/../../lib/gcc/pic32mx/8.3.1/../../../../pic32mx/lib/libc-size-musl.a(strcspn.o)
 .reginfo       0x0000000000000000       0x18 /opt/microchip/xc32/v4.60/bin/bin/../../lib/gcc/pic32mx/8.3.1/../../../../pic32mx/lib/libc-size-musl.a(strcspn.o)
 .MIPS.abiflags
                0x0000000000000000       0x18 /opt/microchip/xc32/v4.60/bin/bin/../../lib/gcc/pic32mx/8.3.1/../../../../pic32mx/lib/libc-size-musl.a(strcspn.o)
 .xc_stack_usage
                0x0000000000000000       0x15 /opt/microchip/xc32/v4.60/bin/bin/../../lib/gcc/pic32mx/8.3.1/../../../../pic32mx/lib/libc-size-musl.a(strcspn.o)
 .xc_stack_usage.hdr
                0x0000000000000000        0xe /opt/microchip/xc32/v4.60/bin/bin/../../lib/gcc/pic32mx/8.3.1/../../../../pic32mx/lib/libc-size-musl.a(strcspn.o)
 .note.GNU-stack
                0x0000000000000000        0x0 /opt/microchip/xc32/v4.60/bin/bin/../../lib/gcc/pic32mx/8.3.1/../../../../pic32mx/lib/libc-size-musl.a(strcspn.o)
 .text          0x0000000000000000        0x0 /opt/microchip/xc32/v4.60/bin/bin/../../lib/gcc/pic32mx/8.3.1/../../../../pic32mx/lib/libc-size-musl.a(strspn.o)
 .data          0x0000000000000000        0x0 /opt/microchip/xc32/v4.60/bin/bin/../../lib/gcc/pic32mx/8.3.1/../../../../pic32mx/lib/libc-size-musl.a(strspn.o)
 .bss           0x0000000000000000        0x0 /opt/microchip/xc32/v4.60/bin/bin/../../lib/gcc/pic32mx/8.3.1/../../../../pic32mx/lib/libc-size-musl.a(strspn.o)
 .reginfo       0x0000000000000000       0x18 /opt/microchip/xc32/v4.60/bin/bin/../../lib/gcc/pic32mx/8.3.1/../../../../pic32mx/lib/libc-size-musl.a(strspn.o)
 .MIPS.abiflags
                0x0000000000000000       0x18 /opt/microchip/xc32/v4.60/bin/bin/../../lib/gcc/pic32mx/8.3.1/../../../../pic32mx/lib/libc-size-musl.a(strspn.o)
 .xc_stack_usage
                0x0000000000000000       0x14 /opt/microchip/xc32/v4.60/bin/bin/../../lib/gcc/pic32mx/8.3.1/../../../../pic32mx/lib/libc-size-musl.a(strspn.o)
 .xc_stack_usage.hdr
                0x0000000000000000        0xe /opt/microchip/xc32/v4.60/bin/bin/../../lib/gcc/pic32mx/8.3.1/../../../../pic32mx/lib/libc-size-musl.a(strspn.o)
 .note.GNU-stack
                0x0000000000000000        0x0 /opt/microchip/xc32/v4.60/bin/bin/../../lib/gcc/pic32mx/8.3.1/../../../../pic32mx/lib/libc-size-musl.a(strspn.o)
 .text          0x0000000000000000        0x0 /opt/microchip/xc32/v4.60/bin/bin/../../lib/gcc/pic32mx/8.3.1/../../../../pic32mx/lib/liblmalloc-musl.a(lite_free.o)
 .data          0x0000000000000000        0x0 /opt/microchip/xc32/v4.60/bin/bin/../../lib/gcc/pic32mx/8.3.1/../../../../pic32mx/lib/liblmalloc-musl.a(lite_free.o)
 .reginfo       0x0000000000000000       0x18 /opt/microchip/xc32/v4.60/bin/bin/../../lib/gcc/pic32mx/8.3.1/../../../../pic32mx/lib/liblmalloc-musl.a(lite_free.o)
 .MIPS.abiflags
                0x0000000000000000       0x18 /opt/microchip/xc32/v4.60/bin/bin/../../lib/gcc/pic32mx/8.3.1/../../../../pic32mx/lib/liblmalloc-musl.a(lite_free.o)
 .xc_stack_usage
                0x0000000000000000       0x59 /opt/microchip/xc32/v4.60/bin/bin/../../lib/gcc/pic32mx/8.3.1/../../../../pic32mx/lib/liblmalloc-musl.a(lite_free.o)
 .xc_stack_usage.hdr
                0x0000000000000000        0xe /opt/microchip/xc32/v4.60/bin/bin/../../lib/gcc/pic32mx/8.3.1/../../../../pic32mx/lib/liblmalloc-musl.a(lite_free.o)
 .note.GNU-stack
                0x0000000000000000        0x0 /opt/microchip/xc32/v4.60/bin/bin/../../lib/gcc/pic32mx/8.3.1/../../../../pic32mx/lib/liblmalloc-musl.a(lite_free.o)
 .text          0x0000000000000000        0x0 /opt/microchip/xc32/v4.60/bin/bin/../../lib/gcc/pic32mx/8.3.1/../../../../pic32mx/lib/liblmalloc-musl.a(lite_malloc.o)
 .bss           0x0000000000000000        0x0 /opt/microchip/xc32/v4.60/bin/bin/../../lib/gcc/pic32mx/8.3.1/../../../../pic32mx/lib/liblmalloc-musl.a(lite_malloc.o)
 .reginfo       0x0000000000000000       0x18 /opt/microchip/xc32/v4.60/bin/bin/../../lib/gcc/pic32mx/8.3.1/../../../../pic32mx/lib/liblmalloc-musl.a(lite_malloc.o)
 .MIPS.abiflags
                0x0000000000000000       0x18 /opt/microchip/xc32/v4.60/bin/bin/../../lib/gcc/pic32mx/8.3.1/../../../../pic32mx/lib/liblmalloc-musl.a(lite_malloc.o)
 .xc_stack_usage
                0x0000000000000000       0x1d /opt/microchip/xc32/v4.60/bin/bin/../../lib/gcc/pic32mx/8.3.1/../../../../pic32mx/lib/liblmalloc-musl.a(lite_malloc.o)
 .xc_stack_usage.hdr
                0x0000000000000000        0xe /opt/microchip/xc32/v4.60/bin/bin/../../lib/gcc/pic32mx/8.3.1/../../../../pic32mx/lib/liblmalloc-musl.a(lite_malloc.o)
 .note.GNU-stack
                0x0000000000000000        0x0 /opt/microchip/xc32/v4.60/bin/bin/../../lib/gcc/pic32mx/8.3.1/../../../../pic32mx/lib/liblmalloc-musl.a(lite_malloc.o)
 .text          0x0000000000000000        0x0 /opt/microchip/xc32/v4.60/bin/bin/../../lib/gcc/pic32mx/8.3.1/../../../../pic32mx/lib/libc-musl.a(isalnum.o)
 .data          0x0000000000000000        0x0 /opt/microchip/xc32/v4.60/bin/bin/../../lib/gcc/pic32mx/8.3.1/../../../../pic32mx/lib/libc-musl.a(isalnum.o)
 .bss           0x0000000000000000        0x0 /opt/microchip/xc32/v4.60/bin/bin/../../lib/gcc/pic32mx/8.3.1/../../../../pic32mx/lib/libc-musl.a(isalnum.o)
 .reginfo       0x0000000000000000       0x18 /opt/microchip/xc32/v4.60/bin/bin/../../lib/gcc/pic32mx/8.3.1/../../../../pic32mx/lib/libc-musl.a(isalnum.o)
 .MIPS.abiflags
                0x0000000000000000       0x18 /opt/microchip/xc32/v4.60/bin/bin/../../lib/gcc/pic32mx/8.3.1/../../../../pic32mx/lib/libc-musl.a(isalnum.o)
 .xc_stack_usage
                0x0000000000000000       0x2e /opt/microchip/xc32/v4.60/bin/bin/../../lib/gcc/pic32mx/8.3.1/../../../../pic32mx/lib/libc-musl.a(isalnum.o)
 .text.__isalnum_l
                0x0000000000000000       0x1c /opt/microchip/xc32/v4.60/bin/bin/../../lib/gcc/pic32mx/8.3.1/../../../../pic32mx/lib/libc-musl.a(isalnum.o)
 .xc_stack_usage.hdr
                0x0000000000000000        0xe /opt/microchip/xc32/v4.60/bin/bin/../../lib/gcc/pic32mx/8.3.1/../../../../pic32mx/lib/libc-musl.a(isalnum.o)
 .note.GNU-stack
                0x0000000000000000        0x0 /opt/microchip/xc32/v4.60/bin/bin/../../lib/gcc/pic32mx/8.3.1/../../../../pic32mx/lib/libc-musl.a(isalnum.o)
 .text          0x0000000000000000        0x0 /opt/microchip/xc32/v4.60/bin/bin/../../lib/gcc/pic32mx/8.3.1/../../../../pic32mx/lib/libc-musl.a(isxdigit.o)
 .data          0x0000000000000000        0x0 /opt/microchip/xc32/v4.60/bin/bin/../../lib/gcc/pic32mx/8.3.1/../../../../pic32mx/lib/libc-musl.a(isxdigit.o)
 .bss           0x0000000000000000        0x0 /opt/microchip/xc32/v4.60/bin/bin/../../lib/gcc/pic32mx/8.3.1/../../../../pic32mx/lib/libc-musl.a(isxdigit.o)
 .reginfo       0x0000000000000000       0x18 /opt/microchip/xc32/v4.60/bin/bin/../../lib/gcc/pic32mx/8.3.1/../../../../pic32mx/lib/libc-musl.a(isxdigit.o)
 .MIPS.abiflags
                0x0000000000000000       0x18 /opt/microchip/xc32/v4.60/bin/bin/../../lib/gcc/pic32mx/8.3.1/../../../../pic32mx/lib/libc-musl.a(isxdigit.o)
 .xc_stack_usage
                0x0000000000000000       0x30 /opt/microchip/xc32/v4.60/bin/bin/../../lib/gcc/pic32mx/8.3.1/../../../../pic32mx/lib/libc-musl.a(isxdigit.o)
 .text.__isxdigit_l
                0x0000000000000000       0x1c /opt/microchip/xc32/v4.60/bin/bin/../../lib/gcc/pic32mx/8.3.1/../../../../pic32mx/lib/libc-musl.a(isxdigit.o)
 .xc_stack_usage.hdr
                0x0000000000000000        0xe /opt/microchip/xc32/v4.60/bin/bin/../../lib/gcc/pic32mx/8.3.1/../../../../pic32mx/lib/libc-musl.a(isxdigit.o)
 .note.GNU-stack
                0x0000000000000000        0x0 /opt/microchip/xc32/v4.60/bin/bin/../../lib/gcc/pic32mx/8.3.1/../../../../pic32mx/lib/libc-musl.a(isxdigit.o)
 .text          0x0000000000000000        0x0 /opt/microchip/xc32/v4.60/bin/bin/../../lib/gcc/pic32mx/8.3.1/../../../../pic32mx/lib/libc-musl.a(tolower.o)
 .data          0x0000000000000000        0x0 /opt/microchip/xc32/v4.60/bin/bin/../../lib/gcc/pic32mx/8.3.1/../../../../pic32mx/lib/libc-musl.a(tolower.o)
 .bss           0x0000000000000000        0x0 /opt/microchip/xc32/v4.60/bin/bin/../../lib/gcc/pic32mx/8.3.1/../../../../pic32mx/lib/libc-musl.a(tolower.o)
 .reginfo       0x0000000000000000       0x18 /opt/microchip/xc32/v4.60/bin/bin/../../lib/gcc/pic32mx/8.3.1/../../../../pic32mx/lib/libc-musl.a(tolower.o)
 .MIPS.abiflags
                0x0000000000000000       0x18 /opt/microchip/xc32/v4.60/bin/bin/../../lib/gcc/pic32mx/8.3.1/../../../../pic32mx/lib/libc-musl.a(tolower.o)
 .xc_stack_usage
                0x0000000000000000       0x2e /opt/microchip/xc32/v4.60/bin/bin/../../lib/gcc/pic32mx/8.3.1/../../../../pic32mx/lib/libc-musl.a(tolower.o)
 .text.__tolower_l
                0x0000000000000000       0x1c /opt/microchip/xc32/v4.60/bin/bin/../../lib/gcc/pic32mx/8.3.1/../../../../pic32mx/lib/libc-musl.a(tolower.o)
 .xc_stack_usage.hdr
                0x0000000000000000        0xe /opt/microchip/xc32/v4.60/bin/bin/../../lib/gcc/pic32mx/8.3.1/../../../../pic32mx/lib/libc-musl.a(tolower.o)
 .note.GNU-stack
                0x0000000000000000        0x0 /opt/microchip/xc32/v4.60/bin/bin/../../lib/gcc/pic32mx/8.3.1/../../../../pic32mx/lib/libc-musl.a(tolower.o)
 .text          0x0000000000000000        0x0 /opt/microchip/xc32/v4.60/bin/bin/../../lib/gcc/pic32mx/8.3.1/../../../../pic32mx/lib/libc-musl.a(toupper.o)
 .data          0x0000000000000000        0x0 /opt/microchip/xc32/v4.60/bin/bin/../../lib/gcc/pic32mx/8.3.1/../../../../pic32mx/lib/libc-musl.a(toupper.o)
 .bss           0x0000000000000000        0x0 /opt/microchip/xc32/v4.60/bin/bin/../../lib/gcc/pic32mx/8.3.1/../../../../pic32mx/lib/libc-musl.a(toupper.o)
 .reginfo       0x0000000000000000       0x18 /opt/microchip/xc32/v4.60/bin/bin/../../lib/gcc/pic32mx/8.3.1/../../../../pic32mx/lib/libc-musl.a(toupper.o)
 .MIPS.abiflags
                0x0000000000000000       0x18 /opt/microchip/xc32/v4.60/bin/bin/../../lib/gcc/pic32mx/8.3.1/../../../../pic32mx/lib/libc-musl.a(toupper.o)
 .xc_stack_usage
                0x0000000000000000       0x2e /opt/microchip/xc32/v4.60/bin/bin/../../lib/gcc/pic32mx/8.3.1/../../../../pic32mx/lib/libc-musl.a(toupper.o)
 .text.__toupper_l
                0x0000000000000000       0x1c /opt/microchip/xc32/v4.60/bin/bin/../../lib/gcc/pic32mx/8.3.1/../../../../pic32mx/lib/libc-musl.a(toupper.o)
 .xc_stack_usage.hdr
                0x0000000000000000        0xe /opt/microchip/xc32/v4.60/bin/bin/../../lib/gcc/pic32mx/8.3.1/../../../../pic32mx/lib/libc-musl.a(toupper.o)
 .note.GNU-stack
                0x0000000000000000        0x0 /opt/microchip/xc32/v4.60/bin/bin/../../lib/gcc/pic32mx/8.3.1/../../../../pic32mx/lib/libc-musl.a(toupper.o)
 .text          0x0000000000000000        0x0 /opt/microchip/xc32/v4.60/bin/bin/../../lib/gcc/pic32mx/8.3.1/../../../../pic32mx/lib/libc-musl.a(expand_heap.o)
 .data          0x0000000000000000        0x0 /opt/microchip/xc32/v4.60/bin/bin/../../lib/gcc/pic32mx/8.3.1/../../../../pic32mx/lib/libc-musl.a(expand_heap.o)
 .bss           0x0000000000000000        0x0 /opt/microchip/xc32/v4.60/bin/bin/../../lib/gcc/pic32mx/8.3.1/../../../../pic32mx/lib/libc-musl.a(expand_heap.o)
 .reginfo       0x0000000000000000       0x18 /opt/microchip/xc32/v4.60/bin/bin/../../lib/gcc/pic32mx/8.3.1/../../../../pic32mx/lib/libc-musl.a(expand_heap.o)
 .MIPS.abiflags
                0x0000000000000000       0x18 /opt/microchip/xc32/v4.60/bin/bin/../../lib/gcc/pic32mx/8.3.1/../../../../pic32mx/lib/libc-musl.a(expand_heap.o)
 .xc_stack_usage
                0x0000000000000000       0x1b /opt/microchip/xc32/v4.60/bin/bin/../../lib/gcc/pic32mx/8.3.1/../../../../pic32mx/lib/libc-musl.a(expand_heap.o)
 .xc_stack_usage.hdr
                0x0000000000000000        0xe /opt/microchip/xc32/v4.60/bin/bin/../../lib/gcc/pic32mx/8.3.1/../../../../pic32mx/lib/libc-musl.a(expand_heap.o)
 .note.GNU-stack
                0x0000000000000000        0x0 /opt/microchip/xc32/v4.60/bin/bin/../../lib/gcc/pic32mx/8.3.1/../../../../pic32mx/lib/libc-musl.a(expand_heap.o)
 .text          0x0000000000000000        0x0 /opt/microchip/xc32/v4.60/bin/bin/../../lib/gcc/pic32mx/8.3.1/../../../../pic32mx/lib/libc-musl.a(rand.o)
 .data          0x0000000000000000        0x0 /opt/microchip/xc32/v4.60/bin/bin/../../lib/gcc/pic32mx/8.3.1/../../../../pic32mx/lib/libc-musl.a(rand.o)
 .reginfo       0x0000000000000000       0x18 /opt/microchip/xc32/v4.60/bin/bin/../../lib/gcc/pic32mx/8.3.1/../../../../pic32mx/lib/libc-musl.a(rand.o)
 .MIPS.abiflags
                0x0000000000000000       0x18 /opt/microchip/xc32/v4.60/bin/bin/../../lib/gcc/pic32mx/8.3.1/../../../../pic32mx/lib/libc-musl.a(rand.o)
 .xc_stack_usage
                0x0000000000000000       0x25 /opt/microchip/xc32/v4.60/bin/bin/../../lib/gcc/pic32mx/8.3.1/../../../../pic32mx/lib/libc-musl.a(rand.o)
 .text.srand    0x0000000000000000       0x10 /opt/microchip/xc32/v4.60/bin/bin/../../lib/gcc/pic32mx/8.3.1/../../../../pic32mx/lib/libc-musl.a(rand.o)
 .xc_stack_usage.hdr
                0x0000000000000000        0xe /opt/microchip/xc32/v4.60/bin/bin/../../lib/gcc/pic32mx/8.3.1/../../../../pic32mx/lib/libc-musl.a(rand.o)
 .note.GNU-stack
                0x0000000000000000        0x0 /opt/microchip/xc32/v4.60/bin/bin/../../lib/gcc/pic32mx/8.3.1/../../../../pic32mx/lib/libc-musl.a(rand.o)
 .text          0x0000000000000000        0x0 /opt/microchip/xc32/v4.60/bin/bin/../../lib/gcc/pic32mx/8.3.1/../../../../pic32mx/lib/libc-musl.a(vsnprintf.o)
 .data          0x0000000000000000        0x0 /opt/microchip/xc32/v4.60/bin/bin/../../lib/gcc/pic32mx/8.3.1/../../../../pic32mx/lib/libc-musl.a(vsnprintf.o)
 .bss           0x0000000000000000        0x0 /opt/microchip/xc32/v4.60/bin/bin/../../lib/gcc/pic32mx/8.3.1/../../../../pic32mx/lib/libc-musl.a(vsnprintf.o)
 .reginfo       0x0000000000000000       0x18 /opt/microchip/xc32/v4.60/bin/bin/../../lib/gcc/pic32mx/8.3.1/../../../../pic32mx/lib/libc-musl.a(vsnprintf.o)
 .MIPS.abiflags
                0x0000000000000000       0x18 /opt/microchip/xc32/v4.60/bin/bin/../../lib/gcc/pic32mx/8.3.1/../../../../pic32mx/lib/libc-musl.a(vsnprintf.o)
 .xc_stack_usage
                0x0000000000000000       0x17 /opt/microchip/xc32/v4.60/bin/bin/../../lib/gcc/pic32mx/8.3.1/../../../../pic32mx/lib/libc-musl.a(vsnprintf.o)
 .xc_stack_usage.hdr
                0x0000000000000000        0xe /opt/microchip/xc32/v4.60/bin/bin/../../lib/gcc/pic32mx/8.3.1/../../../../pic32mx/lib/libc-musl.a(vsnprintf.o)
 .note.GNU-stack
                0x0000000000000000        0x0 /opt/microchip/xc32/v4.60/bin/bin/../../lib/gcc/pic32mx/8.3.1/../../../../pic32mx/lib/libc-musl.a(vsnprintf.o)
 .text          0x0000000000000000        0x0 /opt/microchip/xc32/v4.60/bin/bin/../../lib/gcc/pic32mx/8.3.1/../../../../pic32mx/lib/libc-musl.a(stdin.o)
 .reginfo       0x0000000000000000       0x18 /opt/microchip/xc32/v4.60/bin/bin/../../lib/gcc/pic32mx/8.3.1/../../../../pic32mx/lib/libc-musl.a(stdin.o)
 .MIPS.abiflags
                0x0000000000000000       0x18 /opt/microchip/xc32/v4.60/bin/bin/../../lib/gcc/pic32mx/8.3.1/../../../../pic32mx/lib/libc-musl.a(stdin.o)
 .xc_stack_usage
                0x0000000000000000       0x33 /opt/microchip/xc32/v4.60/bin/bin/../../lib/gcc/pic32mx/8.3.1/../../../../pic32mx/lib/libc-musl.a(stdin.o)
 .xc_stack_usage.hdr
                0x0000000000000000        0xe /opt/microchip/xc32/v4.60/bin/bin/../../lib/gcc/pic32mx/8.3.1/../../../../pic32mx/lib/libc-musl.a(stdin.o)
 .note.GNU-stack
                0x0000000000000000        0x0 /opt/microchip/xc32/v4.60/bin/bin/../../lib/gcc/pic32mx/8.3.1/../../../../pic32mx/lib/libc-musl.a(stdin.o)
 .text          0x0000000000000000        0x0 /opt/microchip/xc32/v4.60/bin/bin/../../lib/gcc/pic32mx/8.3.1/../../../../pic32mx/lib/libc-musl.a(stdout.o)
 .bss           0x0000000000000000        0x0 /opt/microchip/xc32/v4.60/bin/bin/../../lib/gcc/pic32mx/8.3.1/../../../../pic32mx/lib/libc-musl.a(stdout.o)
 .reginfo       0x0000000000000000       0x18 /opt/microchip/xc32/v4.60/bin/bin/../../lib/gcc/pic32mx/8.3.1/../../../../pic32mx/lib/libc-musl.a(stdout.o)
 .MIPS.abiflags
                0x0000000000000000       0x18 /opt/microchip/xc32/v4.60/bin/bin/../../lib/gcc/pic32mx/8.3.1/../../../../pic32mx/lib/libc-musl.a(stdout.o)
 .xc_stack_usage
                0x0000000000000000       0x51 /opt/microchip/xc32/v4.60/bin/bin/../../lib/gcc/pic32mx/8.3.1/../../../../pic32mx/lib/libc-musl.a(stdout.o)
 .text.__init_stdout
                0x0000000000000000       0x20 /opt/microchip/xc32/v4.60/bin/bin/../../lib/gcc/pic32mx/8.3.1/../../../../pic32mx/lib/libc-musl.a(stdout.o)
 .xc_stack_usage.hdr
                0x0000000000000000        0xe /opt/microchip/xc32/v4.60/bin/bin/../../lib/gcc/pic32mx/8.3.1/../../../../pic32mx/lib/libc-musl.a(stdout.o)
 .note.GNU-stack
                0x0000000000000000        0x0 /opt/microchip/xc32/v4.60/bin/bin/../../lib/gcc/pic32mx/8.3.1/../../../../pic32mx/lib/libc-musl.a(stdout.o)
 .text          0x0000000000000000        0x0 /opt/microchip/xc32/v4.60/bin/bin/../../lib/gcc/pic32mx/8.3.1/../../../../pic32mx/lib/libc-musl.a(setbuf.o)
 .data          0x0000000000000000        0x0 /opt/microchip/xc32/v4.60/bin/bin/../../lib/gcc/pic32mx/8.3.1/../../../../pic32mx/lib/libc-musl.a(setbuf.o)
 .bss           0x0000000000000000        0x0 /opt/microchip/xc32/v4.60/bin/bin/../../lib/gcc/pic32mx/8.3.1/../../../../pic32mx/lib/libc-musl.a(setbuf.o)
 .reginfo       0x0000000000000000       0x18 /opt/microchip/xc32/v4.60/bin/bin/../../lib/gcc/pic32mx/8.3.1/../../../../pic32mx/lib/libc-musl.a(setbuf.o)
 .MIPS.abiflags
                0x0000000000000000       0x18 /opt/microchip/xc32/v4.60/bin/bin/../../lib/gcc/pic32mx/8.3.1/../../../../pic32mx/lib/libc-musl.a(setbuf.o)
 .xc_stack_usage
                0x0000000000000000       0x14 /opt/microchip/xc32/v4.60/bin/bin/../../lib/gcc/pic32mx/8.3.1/../../../../pic32mx/lib/libc-musl.a(setbuf.o)
 .xc_stack_usage.hdr
                0x0000000000000000        0xe /opt/microchip/xc32/v4.60/bin/bin/../../lib/gcc/pic32mx/8.3.1/../../../../pic32mx/lib/libc-musl.a(setbuf.o)
 .note.GNU-stack
                0x0000000000000000        0x0 /opt/microchip/xc32/v4.60/bin/bin/../../lib/gcc/pic32mx/8.3.1/../../../../pic32mx/lib/libc-musl.a(setbuf.o)
 .text          0x0000000000000000        0x0 /opt/microchip/xc32/v4.60/bin/bin/../../lib/gcc/pic32mx/8.3.1/../../../../pic32mx/lib/libc-musl.a(sprintf.o)
 .data          0x0000000000000000        0x0 /opt/microchip/xc32/v4.60/bin/bin/../../lib/gcc/pic32mx/8.3.1/../../../../pic32mx/lib/libc-musl.a(sprintf.o)
 .bss           0x0000000000000000        0x0 /opt/microchip/xc32/v4.60/bin/bin/../../lib/gcc/pic32mx/8.3.1/../../../../pic32mx/lib/libc-musl.a(sprintf.o)
 .reginfo       0x0000000000000000       0x18 /opt/microchip/xc32/v4.60/bin/bin/../../lib/gcc/pic32mx/8.3.1/../../../../pic32mx/lib/libc-musl.a(sprintf.o)
 .MIPS.abiflags
                0x0000000000000000       0x18 /opt/microchip/xc32/v4.60/bin/bin/../../lib/gcc/pic32mx/8.3.1/../../../../pic32mx/lib/libc-musl.a(sprintf.o)
 .xc_stack_usage
                0x0000000000000000       0x15 /opt/microchip/xc32/v4.60/bin/bin/../../lib/gcc/pic32mx/8.3.1/../../../../pic32mx/lib/libc-musl.a(sprintf.o)
 .xc_stack_usage.hdr
                0x0000000000000000        0xe /opt/microchip/xc32/v4.60/bin/bin/../../lib/gcc/pic32mx/8.3.1/../../../../pic32mx/lib/libc-musl.a(sprintf.o)
 .note.GNU-stack
                0x0000000000000000        0x0 /opt/microchip/xc32/v4.60/bin/bin/../../lib/gcc/pic32mx/8.3.1/../../../../pic32mx/lib/libc-musl.a(sprintf.o)
 .text          0x0000000000000000        0x0 /opt/microchip/xc32/v4.60/bin/bin/../../lib/gcc/pic32mx/8.3.1/../../../../pic32mx/lib/libc-musl.a(vsprintf.o)
 .data          0x0000000000000000        0x0 /opt/microchip/xc32/v4.60/bin/bin/../../lib/gcc/pic32mx/8.3.1/../../../../pic32mx/lib/libc-musl.a(vsprintf.o)
 .bss           0x0000000000000000        0x0 /opt/microchip/xc32/v4.60/bin/bin/../../lib/gcc/pic32mx/8.3.1/../../../../pic32mx/lib/libc-musl.a(vsprintf.o)
 .reginfo       0x0000000000000000       0x18 /opt/microchip/xc32/v4.60/bin/bin/../../lib/gcc/pic32mx/8.3.1/../../../../pic32mx/lib/libc-musl.a(vsprintf.o)
 .MIPS.abiflags
                0x0000000000000000       0x18 /opt/microchip/xc32/v4.60/bin/bin/../../lib/gcc/pic32mx/8.3.1/../../../../pic32mx/lib/libc-musl.a(vsprintf.o)
 .xc_stack_usage
                0x0000000000000000       0x16 /opt/microchip/xc32/v4.60/bin/bin/../../lib/gcc/pic32mx/8.3.1/../../../../pic32mx/lib/libc-musl.a(vsprintf.o)
 .xc_stack_usage.hdr
                0x0000000000000000        0xe /opt/microchip/xc32/v4.60/bin/bin/../../lib/gcc/pic32mx/8.3.1/../../../../pic32mx/lib/libc-musl.a(vsprintf.o)
 .note.GNU-stack
                0x0000000000000000        0x0 /opt/microchip/xc32/v4.60/bin/bin/../../lib/gcc/pic32mx/8.3.1/../../../../pic32mx/lib/libc-musl.a(vsprintf.o)
 .text          0x0000000000000000        0x0 /opt/microchip/xc32/v4.60/bin/bin/../../lib/gcc/pic32mx/8.3.1/../../../../pic32mx/lib/libc-musl.a(strtol.o)
 .data          0x0000000000000000        0x0 /opt/microchip/xc32/v4.60/bin/bin/../../lib/gcc/pic32mx/8.3.1/../../../../pic32mx/lib/libc-musl.a(strtol.o)
 .bss           0x0000000000000000        0x0 /opt/microchip/xc32/v4.60/bin/bin/../../lib/gcc/pic32mx/8.3.1/../../../../pic32mx/lib/libc-musl.a(strtol.o)
 .reginfo       0x0000000000000000       0x18 /opt/microchip/xc32/v4.60/bin/bin/../../lib/gcc/pic32mx/8.3.1/../../../../pic32mx/lib/libc-musl.a(strtol.o)
 .MIPS.abiflags
                0x0000000000000000       0x18 /opt/microchip/xc32/v4.60/bin/bin/../../lib/gcc/pic32mx/8.3.1/../../../../pic32mx/lib/libc-musl.a(strtol.o)
 .xc_stack_usage
                0x0000000000000000       0x96 /opt/microchip/xc32/v4.60/bin/bin/../../lib/gcc/pic32mx/8.3.1/../../../../pic32mx/lib/libc-musl.a(strtol.o)
 .text.strtoull
                0x0000000000000000       0x2c /opt/microchip/xc32/v4.60/bin/bin/../../lib/gcc/pic32mx/8.3.1/../../../../pic32mx/lib/libc-musl.a(strtol.o)
 .text.strtoll  0x0000000000000000       0x2c /opt/microchip/xc32/v4.60/bin/bin/../../lib/gcc/pic32mx/8.3.1/../../../../pic32mx/lib/libc-musl.a(strtol.o)
 .text.strtoimax
                0x0000000000000000       0x1c /opt/microchip/xc32/v4.60/bin/bin/../../lib/gcc/pic32mx/8.3.1/../../../../pic32mx/lib/libc-musl.a(strtol.o)
 .text.strtoumax
                0x0000000000000000       0x1c /opt/microchip/xc32/v4.60/bin/bin/../../lib/gcc/pic32mx/8.3.1/../../../../pic32mx/lib/libc-musl.a(strtol.o)
 .xc_stack_usage.hdr
                0x0000000000000000        0xe /opt/microchip/xc32/v4.60/bin/bin/../../lib/gcc/pic32mx/8.3.1/../../../../pic32mx/lib/libc-musl.a(strtol.o)
 .note.GNU-stack
                0x0000000000000000        0x0 /opt/microchip/xc32/v4.60/bin/bin/../../lib/gcc/pic32mx/8.3.1/../../../../pic32mx/lib/libc-musl.a(strtol.o)
 .text          0x0000000000000000        0x0 /opt/microchip/xc32/v4.60/bin/bin/../../lib/gcc/pic32mx/8.3.1/../../../../pic32mx/lib/libc-musl.a(qsort.o)
 .data          0x0000000000000000        0x0 /opt/microchip/xc32/v4.60/bin/bin/../../lib/gcc/pic32mx/8.3.1/../../../../pic32mx/lib/libc-musl.a(qsort.o)
 .bss           0x0000000000000000        0x0 /opt/microchip/xc32/v4.60/bin/bin/../../lib/gcc/pic32mx/8.3.1/../../../../pic32mx/lib/libc-musl.a(qsort.o)
 .reginfo       0x0000000000000000       0x18 /opt/microchip/xc32/v4.60/bin/bin/../../lib/gcc/pic32mx/8.3.1/../../../../pic32mx/lib/libc-musl.a(qsort.o)
 .MIPS.abiflags
                0x0000000000000000       0x18 /opt/microchip/xc32/v4.60/bin/bin/../../lib/gcc/pic32mx/8.3.1/../../../../pic32mx/lib/libc-musl.a(qsort.o)
 .xc_stack_usage
                0x0000000000000000       0x81 /opt/microchip/xc32/v4.60/bin/bin/../../lib/gcc/pic32mx/8.3.1/../../../../pic32mx/lib/libc-musl.a(qsort.o)
 .xc_stack_usage.hdr
                0x0000000000000000        0xe /opt/microchip/xc32/v4.60/bin/bin/../../lib/gcc/pic32mx/8.3.1/../../../../pic32mx/lib/libc-musl.a(qsort.o)
 .note.GNU-stack
                0x0000000000000000        0x0 /opt/microchip/xc32/v4.60/bin/bin/../../lib/gcc/pic32mx/8.3.1/../../../../pic32mx/lib/libc-musl.a(qsort.o)
 .text          0x0000000000000000        0x0 /opt/microchip/xc32/v4.60/bin/bin/../../lib/gcc/pic32mx/8.3.1/../../../../pic32mx/lib/libc-musl.a(intscan.o)
 .data          0x0000000000000000        0x0 /opt/microchip/xc32/v4.60/bin/bin/../../lib/gcc/pic32mx/8.3.1/../../../../pic32mx/lib/libc-musl.a(intscan.o)
 .bss           0x0000000000000000        0x0 /opt/microchip/xc32/v4.60/bin/bin/../../lib/gcc/pic32mx/8.3.1/../../../../pic32mx/lib/libc-musl.a(intscan.o)
 .reginfo       0x0000000000000000       0x18 /opt/microchip/xc32/v4.60/bin/bin/../../lib/gcc/pic32mx/8.3.1/../../../../pic32mx/lib/libc-musl.a(intscan.o)
 .MIPS.abiflags
                0x0000000000000000       0x18 /opt/microchip/xc32/v4.60/bin/bin/../../lib/gcc/pic32mx/8.3.1/../../../../pic32mx/lib/libc-musl.a(intscan.o)
 .xc_stack_usage
                0x0000000000000000       0x17 /opt/microchip/xc32/v4.60/bin/bin/../../lib/gcc/pic32mx/8.3.1/../../../../pic32mx/lib/libc-musl.a(intscan.o)
 .xc_stack_usage.hdr
                0x0000000000000000        0xe /opt/microchip/xc32/v4.60/bin/bin/../../lib/gcc/pic32mx/8.3.1/../../../../pic32mx/lib/libc-musl.a(intscan.o)
 .note.GNU-stack
                0x0000000000000000        0x0 /opt/microchip/xc32/v4.60/bin/bin/../../lib/gcc/pic32mx/8.3.1/../../../../pic32mx/lib/libc-musl.a(intscan.o)
 .text          0x0000000000000000        0x0 /opt/microchip/xc32/v4.60/bin/bin/../../lib/gcc/pic32mx/8.3.1/../../../../pic32mx/lib/libc-musl.a(shgetc.o)
 .data          0x0000000000000000        0x0 /opt/microchip/xc32/v4.60/bin/bin/../../lib/gcc/pic32mx/8.3.1/../../../../pic32mx/lib/libc-musl.a(shgetc.o)
 .bss           0x0000000000000000        0x0 /opt/microchip/xc32/v4.60/bin/bin/../../lib/gcc/pic32mx/8.3.1/../../../../pic32mx/lib/libc-musl.a(shgetc.o)
 .reginfo       0x0000000000000000       0x18 /opt/microchip/xc32/v4.60/bin/bin/../../lib/gcc/pic32mx/8.3.1/../../../../pic32mx/lib/libc-musl.a(shgetc.o)
 .MIPS.abiflags
                0x0000000000000000       0x18 /opt/microchip/xc32/v4.60/bin/bin/../../lib/gcc/pic32mx/8.3.1/../../../../pic32mx/lib/libc-musl.a(shgetc.o)
 .xc_stack_usage
                0x0000000000000000       0x2b /opt/microchip/xc32/v4.60/bin/bin/../../lib/gcc/pic32mx/8.3.1/../../../../pic32mx/lib/libc-musl.a(shgetc.o)
 .xc_stack_usage.hdr
                0x0000000000000000        0xe /opt/microchip/xc32/v4.60/bin/bin/../../lib/gcc/pic32mx/8.3.1/../../../../pic32mx/lib/libc-musl.a(shgetc.o)
 .note.GNU-stack
                0x0000000000000000        0x0 /opt/microchip/xc32/v4.60/bin/bin/../../lib/gcc/pic32mx/8.3.1/../../../../pic32mx/lib/libc-musl.a(shgetc.o)
 .text          0x0000000000000000        0x0 /opt/microchip/xc32/v4.60/bin/bin/../../lib/gcc/pic32mx/8.3.1/../../../../pic32mx/lib/libc-musl.a(__uflow.o)
 .data          0x0000000000000000        0x0 /opt/microchip/xc32/v4.60/bin/bin/../../lib/gcc/pic32mx/8.3.1/../../../../pic32mx/lib/libc-musl.a(__uflow.o)
 .bss           0x0000000000000000        0x0 /opt/microchip/xc32/v4.60/bin/bin/../../lib/gcc/pic32mx/8.3.1/../../../../pic32mx/lib/libc-musl.a(__uflow.o)
 .reginfo       0x0000000000000000       0x18 /opt/microchip/xc32/v4.60/bin/bin/../../lib/gcc/pic32mx/8.3.1/../../../../pic32mx/lib/libc-musl.a(__uflow.o)
 .MIPS.abiflags
                0x0000000000000000       0x18 /opt/microchip/xc32/v4.60/bin/bin/../../lib/gcc/pic32mx/8.3.1/../../../../pic32mx/lib/libc-musl.a(__uflow.o)
 .xc_stack_usage
                0x0000000000000000       0x15 /opt/microchip/xc32/v4.60/bin/bin/../../lib/gcc/pic32mx/8.3.1/../../../../pic32mx/lib/libc-musl.a(__uflow.o)
 .xc_stack_usage.hdr
                0x0000000000000000        0xe /opt/microchip/xc32/v4.60/bin/bin/../../lib/gcc/pic32mx/8.3.1/../../../../pic32mx/lib/libc-musl.a(__uflow.o)
 .note.GNU-stack
                0x0000000000000000        0x0 /opt/microchip/xc32/v4.60/bin/bin/../../lib/gcc/pic32mx/8.3.1/../../../../pic32mx/lib/libc-musl.a(__uflow.o)
 .text          0x0000000000000000        0x0 /opt/microchip/xc32/v4.60/bin/bin/../../lib/gcc/pic32mx/8.3.1/../../../../pic32mx/lib/libc-musl.a(__io_init_needed.o)
 .data          0x0000000000000000        0x0 /opt/microchip/xc32/v4.60/bin/bin/../../lib/gcc/pic32mx/8.3.1/../../../../pic32mx/lib/libc-musl.a(__io_init_needed.o)
 .bss           0x0000000000000000        0x0 /opt/microchip/xc32/v4.60/bin/bin/../../lib/gcc/pic32mx/8.3.1/../../../../pic32mx/lib/libc-musl.a(__io_init_needed.o)
 .reginfo       0x0000000000000000       0x18 /opt/microchip/xc32/v4.60/bin/bin/../../lib/gcc/pic32mx/8.3.1/../../../../pic32mx/lib/libc-musl.a(__io_init_needed.o)
 .MIPS.abiflags
                0x0000000000000000       0x18 /opt/microchip/xc32/v4.60/bin/bin/../../lib/gcc/pic32mx/8.3.1/../../../../pic32mx/lib/libc-musl.a(__io_init_needed.o)
 .xc_stack_usage
                0x0000000000000000       0x40 /opt/microchip/xc32/v4.60/bin/bin/../../lib/gcc/pic32mx/8.3.1/../../../../pic32mx/lib/libc-musl.a(__io_init_needed.o)
 .xc_stack_usage.hdr
                0x0000000000000000        0xe /opt/microchip/xc32/v4.60/bin/bin/../../lib/gcc/pic32mx/8.3.1/../../../../pic32mx/lib/libc-musl.a(__io_init_needed.o)
 .note.GNU-stack
                0x0000000000000000        0x0 /opt/microchip/xc32/v4.60/bin/bin/../../lib/gcc/pic32mx/8.3.1/../../../../pic32mx/lib/libc-musl.a(__io_init_needed.o)
 .text          0x0000000000000000        0x0 /opt/microchip/xc32/v4.60/bin/bin/../../lib/gcc/pic32mx/8.3.1/../../../../pic32mx/lib/libc-musl.a(__io_rw_needed.o)
 .data          0x0000000000000000        0x0 /opt/microchip/xc32/v4.60/bin/bin/../../lib/gcc/pic32mx/8.3.1/../../../../pic32mx/lib/libc-musl.a(__io_rw_needed.o)
 .bss           0x0000000000000000        0x0 /opt/microchip/xc32/v4.60/bin/bin/../../lib/gcc/pic32mx/8.3.1/../../../../pic32mx/lib/libc-musl.a(__io_rw_needed.o)
 .reginfo       0x0000000000000000       0x18 /opt/microchip/xc32/v4.60/bin/bin/../../lib/gcc/pic32mx/8.3.1/../../../../pic32mx/lib/libc-musl.a(__io_rw_needed.o)
 .MIPS.abiflags
                0x0000000000000000       0x18 /opt/microchip/xc32/v4.60/bin/bin/../../lib/gcc/pic32mx/8.3.1/../../../../pic32mx/lib/libc-musl.a(__io_rw_needed.o)
 .xc_stack_usage
                0x0000000000000000       0x1c /opt/microchip/xc32/v4.60/bin/bin/../../lib/gcc/pic32mx/8.3.1/../../../../pic32mx/lib/libc-musl.a(__io_rw_needed.o)
 .xc_stack_usage.hdr
                0x0000000000000000        0xe /opt/microchip/xc32/v4.60/bin/bin/../../lib/gcc/pic32mx/8.3.1/../../../../pic32mx/lib/libc-musl.a(__io_rw_needed.o)
 .note.GNU-stack
                0x0000000000000000        0x0 /opt/microchip/xc32/v4.60/bin/bin/../../lib/gcc/pic32mx/8.3.1/../../../../pic32mx/lib/libc-musl.a(__io_rw_needed.o)
 .text          0x0000000000000000        0x0 /opt/microchip/xc32/v4.60/bin/bin/../../lib/gcc/pic32mx/8.3.1/../../../../pic32mx/lib/libc-musl.a(__out.o)
 .data          0x0000000000000000        0x0 /opt/microchip/xc32/v4.60/bin/bin/../../lib/gcc/pic32mx/8.3.1/../../../../pic32mx/lib/libc-musl.a(__out.o)
 .bss           0x0000000000000000        0x0 /opt/microchip/xc32/v4.60/bin/bin/../../lib/gcc/pic32mx/8.3.1/../../../../pic32mx/lib/libc-musl.a(__out.o)
 .reginfo       0x0000000000000000       0x18 /opt/microchip/xc32/v4.60/bin/bin/../../lib/gcc/pic32mx/8.3.1/../../../../pic32mx/lib/libc-musl.a(__out.o)
 .MIPS.abiflags
                0x0000000000000000       0x18 /opt/microchip/xc32/v4.60/bin/bin/../../lib/gcc/pic32mx/8.3.1/../../../../pic32mx/lib/libc-musl.a(__out.o)
 .xc_stack_usage
                0x0000000000000000       0x2d /opt/microchip/xc32/v4.60/bin/bin/../../lib/gcc/pic32mx/8.3.1/../../../../pic32mx/lib/libc-musl.a(__out.o)
 .xc_stack_usage.hdr
                0x0000000000000000        0xe /opt/microchip/xc32/v4.60/bin/bin/../../lib/gcc/pic32mx/8.3.1/../../../../pic32mx/lib/libc-musl.a(__out.o)
 .note.GNU-stack
                0x0000000000000000        0x0 /opt/microchip/xc32/v4.60/bin/bin/../../lib/gcc/pic32mx/8.3.1/../../../../pic32mx/lib/libc-musl.a(__out.o)
 .text          0x0000000000000000        0x0 /opt/microchip/xc32/v4.60/bin/bin/../../lib/gcc/pic32mx/8.3.1/../../../../pic32mx/lib/libc-musl.a(__stdio_close.o)
 .data          0x0000000000000000        0x0 /opt/microchip/xc32/v4.60/bin/bin/../../lib/gcc/pic32mx/8.3.1/../../../../pic32mx/lib/libc-musl.a(__stdio_close.o)
 .bss           0x0000000000000000        0x0 /opt/microchip/xc32/v4.60/bin/bin/../../lib/gcc/pic32mx/8.3.1/../../../../pic32mx/lib/libc-musl.a(__stdio_close.o)
 .reginfo       0x0000000000000000       0x18 /opt/microchip/xc32/v4.60/bin/bin/../../lib/gcc/pic32mx/8.3.1/../../../../pic32mx/lib/libc-musl.a(__stdio_close.o)
 .MIPS.abiflags
                0x0000000000000000       0x18 /opt/microchip/xc32/v4.60/bin/bin/../../lib/gcc/pic32mx/8.3.1/../../../../pic32mx/lib/libc-musl.a(__stdio_close.o)
 .xc_stack_usage
                0x0000000000000000       0x39 /opt/microchip/xc32/v4.60/bin/bin/../../lib/gcc/pic32mx/8.3.1/../../../../pic32mx/lib/libc-musl.a(__stdio_close.o)
 .text.__stdio_close
                0x0000000000000000       0xa0 /opt/microchip/xc32/v4.60/bin/bin/../../lib/gcc/pic32mx/8.3.1/../../../../pic32mx/lib/libc-musl.a(__stdio_close.o)
 .xc_stack_usage.hdr
                0x0000000000000000        0xe /opt/microchip/xc32/v4.60/bin/bin/../../lib/gcc/pic32mx/8.3.1/../../../../pic32mx/lib/libc-musl.a(__stdio_close.o)
 .note.GNU-stack
                0x0000000000000000        0x0 /opt/microchip/xc32/v4.60/bin/bin/../../lib/gcc/pic32mx/8.3.1/../../../../pic32mx/lib/libc-musl.a(__stdio_close.o)
 .text          0x0000000000000000        0x0 /opt/microchip/xc32/v4.60/bin/bin/../../lib/gcc/pic32mx/8.3.1/../../../../pic32mx/lib/libc-musl.a(__stdio_read.o)
 .data          0x0000000000000000        0x0 /opt/microchip/xc32/v4.60/bin/bin/../../lib/gcc/pic32mx/8.3.1/../../../../pic32mx/lib/libc-musl.a(__stdio_read.o)
 .bss           0x0000000000000000        0x0 /opt/microchip/xc32/v4.60/bin/bin/../../lib/gcc/pic32mx/8.3.1/../../../../pic32mx/lib/libc-musl.a(__stdio_read.o)
 .reginfo       0x0000000000000000       0x18 /opt/microchip/xc32/v4.60/bin/bin/../../lib/gcc/pic32mx/8.3.1/../../../../pic32mx/lib/libc-musl.a(__stdio_read.o)
 .MIPS.abiflags
                0x0000000000000000       0x18 /opt/microchip/xc32/v4.60/bin/bin/../../lib/gcc/pic32mx/8.3.1/../../../../pic32mx/lib/libc-musl.a(__stdio_read.o)
 .xc_stack_usage
                0x0000000000000000       0x1a /opt/microchip/xc32/v4.60/bin/bin/../../lib/gcc/pic32mx/8.3.1/../../../../pic32mx/lib/libc-musl.a(__stdio_read.o)
 .xc_stack_usage.hdr
                0x0000000000000000        0xe /opt/microchip/xc32/v4.60/bin/bin/../../lib/gcc/pic32mx/8.3.1/../../../../pic32mx/lib/libc-musl.a(__stdio_read.o)
 .note.GNU-stack
                0x0000000000000000        0x0 /opt/microchip/xc32/v4.60/bin/bin/../../lib/gcc/pic32mx/8.3.1/../../../../pic32mx/lib/libc-musl.a(__stdio_read.o)
 .text          0x0000000000000000        0x0 /opt/microchip/xc32/v4.60/bin/bin/../../lib/gcc/pic32mx/8.3.1/../../../../pic32mx/lib/libc-musl.a(__towrite_rw.o)
 .data          0x0000000000000000        0x0 /opt/microchip/xc32/v4.60/bin/bin/../../lib/gcc/pic32mx/8.3.1/../../../../pic32mx/lib/libc-musl.a(__towrite_rw.o)
 .bss           0x0000000000000000        0x0 /opt/microchip/xc32/v4.60/bin/bin/../../lib/gcc/pic32mx/8.3.1/../../../../pic32mx/lib/libc-musl.a(__towrite_rw.o)
 .reginfo       0x0000000000000000       0x18 /opt/microchip/xc32/v4.60/bin/bin/../../lib/gcc/pic32mx/8.3.1/../../../../pic32mx/lib/libc-musl.a(__towrite_rw.o)
 .MIPS.abiflags
                0x0000000000000000       0x18 /opt/microchip/xc32/v4.60/bin/bin/../../lib/gcc/pic32mx/8.3.1/../../../../pic32mx/lib/libc-musl.a(__towrite_rw.o)
 .xc_stack_usage
                0x0000000000000000       0x1a /opt/microchip/xc32/v4.60/bin/bin/../../lib/gcc/pic32mx/8.3.1/../../../../pic32mx/lib/libc-musl.a(__towrite_rw.o)
 .xc_stack_usage.hdr
                0x0000000000000000        0xe /opt/microchip/xc32/v4.60/bin/bin/../../lib/gcc/pic32mx/8.3.1/../../../../pic32mx/lib/libc-musl.a(__towrite_rw.o)
 .note.GNU-stack
                0x0000000000000000        0x0 /opt/microchip/xc32/v4.60/bin/bin/../../lib/gcc/pic32mx/8.3.1/../../../../pic32mx/lib/libc-musl.a(__towrite_rw.o)
 .text          0x0000000000000000        0x0 /opt/microchip/xc32/v4.60/bin/bin/../../lib/gcc/pic32mx/8.3.1/../../../../pic32mx/lib/libc-musl.a(setvbuf.o)
 .data          0x0000000000000000        0x0 /opt/microchip/xc32/v4.60/bin/bin/../../lib/gcc/pic32mx/8.3.1/../../../../pic32mx/lib/libc-musl.a(setvbuf.o)
 .bss           0x0000000000000000        0x0 /opt/microchip/xc32/v4.60/bin/bin/../../lib/gcc/pic32mx/8.3.1/../../../../pic32mx/lib/libc-musl.a(setvbuf.o)
 .reginfo       0x0000000000000000       0x18 /opt/microchip/xc32/v4.60/bin/bin/../../lib/gcc/pic32mx/8.3.1/../../../../pic32mx/lib/libc-musl.a(setvbuf.o)
 .MIPS.abiflags
                0x0000000000000000       0x18 /opt/microchip/xc32/v4.60/bin/bin/../../lib/gcc/pic32mx/8.3.1/../../../../pic32mx/lib/libc-musl.a(setvbuf.o)
 .xc_stack_usage
                0x0000000000000000       0x36 /opt/microchip/xc32/v4.60/bin/bin/../../lib/gcc/pic32mx/8.3.1/../../../../pic32mx/lib/libc-musl.a(setvbuf.o)
 .xc_stack_usage.hdr
                0x0000000000000000        0xe /opt/microchip/xc32/v4.60/bin/bin/../../lib/gcc/pic32mx/8.3.1/../../../../pic32mx/lib/libc-musl.a(setvbuf.o)
 .note.GNU-stack
                0x0000000000000000        0x0 /opt/microchip/xc32/v4.60/bin/bin/../../lib/gcc/pic32mx/8.3.1/../../../../pic32mx/lib/libc-musl.a(setvbuf.o)
 .text          0x0000000000000000        0x0 /opt/microchip/xc32/v4.60/bin/bin/../../lib/gcc/pic32mx/8.3.1/../../../../pic32mx/lib/libc-musl.a(vfprintf.o)
 .data          0x0000000000000000        0x0 /opt/microchip/xc32/v4.60/bin/bin/../../lib/gcc/pic32mx/8.3.1/../../../../pic32mx/lib/libc-musl.a(vfprintf.o)
 .bss           0x0000000000000000        0x0 /opt/microchip/xc32/v4.60/bin/bin/../../lib/gcc/pic32mx/8.3.1/../../../../pic32mx/lib/libc-musl.a(vfprintf.o)
 .reginfo       0x0000000000000000       0x18 /opt/microchip/xc32/v4.60/bin/bin/../../lib/gcc/pic32mx/8.3.1/../../../../pic32mx/lib/libc-musl.a(vfprintf.o)
 .MIPS.abiflags
                0x0000000000000000       0x18 /opt/microchip/xc32/v4.60/bin/bin/../../lib/gcc/pic32mx/8.3.1/../../../../pic32mx/lib/libc-musl.a(vfprintf.o)
 .xc_stack_usage
                0x0000000000000000       0x38 /opt/microchip/xc32/v4.60/bin/bin/../../lib/gcc/pic32mx/8.3.1/../../../../pic32mx/lib/libc-musl.a(vfprintf.o)
 .xc_stack_usage.hdr
                0x0000000000000000        0xe /opt/microchip/xc32/v4.60/bin/bin/../../lib/gcc/pic32mx/8.3.1/../../../../pic32mx/lib/libc-musl.a(vfprintf.o)
 .note.GNU-stack
                0x0000000000000000        0x0 /opt/microchip/xc32/v4.60/bin/bin/../../lib/gcc/pic32mx/8.3.1/../../../../pic32mx/lib/libc-musl.a(vfprintf.o)
 .text          0x0000000000000000        0x0 /opt/microchip/xc32/v4.60/bin/bin/../../lib/gcc/pic32mx/8.3.1/../../../../pic32mx/lib/libc-musl.a(readv.o)
 .data          0x0000000000000000        0x0 /opt/microchip/xc32/v4.60/bin/bin/../../lib/gcc/pic32mx/8.3.1/../../../../pic32mx/lib/libc-musl.a(readv.o)
 .bss           0x0000000000000000        0x0 /opt/microchip/xc32/v4.60/bin/bin/../../lib/gcc/pic32mx/8.3.1/../../../../pic32mx/lib/libc-musl.a(readv.o)
 .reginfo       0x0000000000000000       0x18 /opt/microchip/xc32/v4.60/bin/bin/../../lib/gcc/pic32mx/8.3.1/../../../../pic32mx/lib/libc-musl.a(readv.o)
 .MIPS.abiflags
                0x0000000000000000       0x18 /opt/microchip/xc32/v4.60/bin/bin/../../lib/gcc/pic32mx/8.3.1/../../../../pic32mx/lib/libc-musl.a(readv.o)
 .xc_stack_usage
                0x0000000000000000       0x15 /opt/microchip/xc32/v4.60/bin/bin/../../lib/gcc/pic32mx/8.3.1/../../../../pic32mx/lib/libc-musl.a(readv.o)
 .xc_stack_usage.hdr
                0x0000000000000000        0xe /opt/microchip/xc32/v4.60/bin/bin/../../lib/gcc/pic32mx/8.3.1/../../../../pic32mx/lib/libc-musl.a(readv.o)
 .note.GNU-stack
                0x0000000000000000        0x0 /opt/microchip/xc32/v4.60/bin/bin/../../lib/gcc/pic32mx/8.3.1/../../../../pic32mx/lib/libc-musl.a(readv.o)
 .text          0x0000000000000000        0x0 /opt/microchip/xc32/v4.60/bin/bin/../../lib/gcc/pic32mx/8.3.1/../../../../pic32mx/lib/libc-musl.a(__toread.o)
 .data          0x0000000000000000        0x0 /opt/microchip/xc32/v4.60/bin/bin/../../lib/gcc/pic32mx/8.3.1/../../../../pic32mx/lib/libc-musl.a(__toread.o)
 .bss           0x0000000000000000        0x0 /opt/microchip/xc32/v4.60/bin/bin/../../lib/gcc/pic32mx/8.3.1/../../../../pic32mx/lib/libc-musl.a(__toread.o)
 .reginfo       0x0000000000000000       0x18 /opt/microchip/xc32/v4.60/bin/bin/../../lib/gcc/pic32mx/8.3.1/../../../../pic32mx/lib/libc-musl.a(__toread.o)
 .MIPS.abiflags
                0x0000000000000000       0x18 /opt/microchip/xc32/v4.60/bin/bin/../../lib/gcc/pic32mx/8.3.1/../../../../pic32mx/lib/libc-musl.a(__toread.o)
 .xc_stack_usage
                0x0000000000000000       0x3d /opt/microchip/xc32/v4.60/bin/bin/../../lib/gcc/pic32mx/8.3.1/../../../../pic32mx/lib/libc-musl.a(__toread.o)
 .text.__toread_needs_stdio_exit
                0x0000000000000000       0x1c /opt/microchip/xc32/v4.60/bin/bin/../../lib/gcc/pic32mx/8.3.1/../../../../pic32mx/lib/libc-musl.a(__toread.o)
 .xc_stack_usage.hdr
                0x0000000000000000        0xe /opt/microchip/xc32/v4.60/bin/bin/../../lib/gcc/pic32mx/8.3.1/../../../../pic32mx/lib/libc-musl.a(__toread.o)
 .note.GNU-stack
                0x0000000000000000        0x0 /opt/microchip/xc32/v4.60/bin/bin/../../lib/gcc/pic32mx/8.3.1/../../../../pic32mx/lib/libc-musl.a(__toread.o)
 .text          0x0000000000000000        0x0 /opt/microchip/xc32/v4.60/bin/bin/../../lib/gcc/pic32mx/8.3.1/../../../../pic32mx/lib/libc-musl.a(__fopen_rw.o)
 .data          0x0000000000000000        0x0 /opt/microchip/xc32/v4.60/bin/bin/../../lib/gcc/pic32mx/8.3.1/../../../../pic32mx/lib/libc-musl.a(__fopen_rw.o)
 .bss           0x0000000000000000        0x0 /opt/microchip/xc32/v4.60/bin/bin/../../lib/gcc/pic32mx/8.3.1/../../../../pic32mx/lib/libc-musl.a(__fopen_rw.o)
 .reginfo       0x0000000000000000       0x18 /opt/microchip/xc32/v4.60/bin/bin/../../lib/gcc/pic32mx/8.3.1/../../../../pic32mx/lib/libc-musl.a(__fopen_rw.o)
 .MIPS.abiflags
                0x0000000000000000       0x18 /opt/microchip/xc32/v4.60/bin/bin/../../lib/gcc/pic32mx/8.3.1/../../../../pic32mx/lib/libc-musl.a(__fopen_rw.o)
 .xc_stack_usage
                0x0000000000000000       0x18 /opt/microchip/xc32/v4.60/bin/bin/../../lib/gcc/pic32mx/8.3.1/../../../../pic32mx/lib/libc-musl.a(__fopen_rw.o)
 .text.__fopen_rw
                0x0000000000000000       0x88 /opt/microchip/xc32/v4.60/bin/bin/../../lib/gcc/pic32mx/8.3.1/../../../../pic32mx/lib/libc-musl.a(__fopen_rw.o)
 .xc_stack_usage.hdr
                0x0000000000000000        0xe /opt/microchip/xc32/v4.60/bin/bin/../../lib/gcc/pic32mx/8.3.1/../../../../pic32mx/lib/libc-musl.a(__fopen_rw.o)
 .note.GNU-stack
                0x0000000000000000        0x0 /opt/microchip/xc32/v4.60/bin/bin/../../lib/gcc/pic32mx/8.3.1/../../../../pic32mx/lib/libc-musl.a(__fopen_rw.o)
 .text          0x0000000000000000        0x0 /opt/microchip/xc32/v4.60/bin/bin/../../lib/gcc/pic32mx/8.3.1/../../../../pic32mx/lib/libc-musl.a(__ftello_rw.o)
 .data          0x0000000000000000        0x0 /opt/microchip/xc32/v4.60/bin/bin/../../lib/gcc/pic32mx/8.3.1/../../../../pic32mx/lib/libc-musl.a(__ftello_rw.o)
 .bss           0x0000000000000000        0x0 /opt/microchip/xc32/v4.60/bin/bin/../../lib/gcc/pic32mx/8.3.1/../../../../pic32mx/lib/libc-musl.a(__ftello_rw.o)
 .reginfo       0x0000000000000000       0x18 /opt/microchip/xc32/v4.60/bin/bin/../../lib/gcc/pic32mx/8.3.1/../../../../pic32mx/lib/libc-musl.a(__ftello_rw.o)
 .MIPS.abiflags
                0x0000000000000000       0x18 /opt/microchip/xc32/v4.60/bin/bin/../../lib/gcc/pic32mx/8.3.1/../../../../pic32mx/lib/libc-musl.a(__ftello_rw.o)
 .xc_stack_usage
                0x0000000000000000       0x1d /opt/microchip/xc32/v4.60/bin/bin/../../lib/gcc/pic32mx/8.3.1/../../../../pic32mx/lib/libc-musl.a(__ftello_rw.o)
 .text.__ftello_adj_rw
                0x0000000000000000       0x48 /opt/microchip/xc32/v4.60/bin/bin/../../lib/gcc/pic32mx/8.3.1/../../../../pic32mx/lib/libc-musl.a(__ftello_rw.o)
 .xc_stack_usage.hdr
                0x0000000000000000        0xe /opt/microchip/xc32/v4.60/bin/bin/../../lib/gcc/pic32mx/8.3.1/../../../../pic32mx/lib/libc-musl.a(__ftello_rw.o)
 .note.GNU-stack
                0x0000000000000000        0x0 /opt/microchip/xc32/v4.60/bin/bin/../../lib/gcc/pic32mx/8.3.1/../../../../pic32mx/lib/libc-musl.a(__ftello_rw.o)
 .text          0x0000000000000000        0x0 /opt/microchip/xc32/v4.60/bin/bin/../../lib/gcc/pic32mx/8.3.1/../../../../pic32mx/lib/libc-musl.a(__init_stdio.o)
 .data          0x0000000000000000        0x0 /opt/microchip/xc32/v4.60/bin/bin/../../lib/gcc/pic32mx/8.3.1/../../../../pic32mx/lib/libc-musl.a(__init_stdio.o)
 .bss           0x0000000000000000        0x0 /opt/microchip/xc32/v4.60/bin/bin/../../lib/gcc/pic32mx/8.3.1/../../../../pic32mx/lib/libc-musl.a(__init_stdio.o)
 .reginfo       0x0000000000000000       0x18 /opt/microchip/xc32/v4.60/bin/bin/../../lib/gcc/pic32mx/8.3.1/../../../../pic32mx/lib/libc-musl.a(__init_stdio.o)
 .MIPS.abiflags
                0x0000000000000000       0x18 /opt/microchip/xc32/v4.60/bin/bin/../../lib/gcc/pic32mx/8.3.1/../../../../pic32mx/lib/libc-musl.a(__init_stdio.o)
 .xc_stack_usage
                0x0000000000000000       0x2f /opt/microchip/xc32/v4.60/bin/bin/../../lib/gcc/pic32mx/8.3.1/../../../../pic32mx/lib/libc-musl.a(__init_stdio.o)
 .text.__dummy  0x0000000000000000        0x8 /opt/microchip/xc32/v4.60/bin/bin/../../lib/gcc/pic32mx/8.3.1/../../../../pic32mx/lib/libc-musl.a(__init_stdio.o)
 .text.__init_stdio
                0x0000000000000000       0x2c /opt/microchip/xc32/v4.60/bin/bin/../../lib/gcc/pic32mx/8.3.1/../../../../pic32mx/lib/libc-musl.a(__init_stdio.o)
 .xc_stack_usage.hdr
                0x0000000000000000        0xe /opt/microchip/xc32/v4.60/bin/bin/../../lib/gcc/pic32mx/8.3.1/../../../../pic32mx/lib/libc-musl.a(__init_stdio.o)
 .note.GNU-stack
                0x0000000000000000        0x0 /opt/microchip/xc32/v4.60/bin/bin/../../lib/gcc/pic32mx/8.3.1/../../../../pic32mx/lib/libc-musl.a(__init_stdio.o)
 .text          0x0000000000000000        0x0 /opt/microchip/xc32/v4.60/bin/bin/../../lib/gcc/pic32mx/8.3.1/../../../../pic32mx/lib/libc-musl.a(__io_buf_needed.o)
 .data          0x0000000000000000        0x0 /opt/microchip/xc32/v4.60/bin/bin/../../lib/gcc/pic32mx/8.3.1/../../../../pic32mx/lib/libc-musl.a(__io_buf_needed.o)
 .bss           0x0000000000000000        0x0 /opt/microchip/xc32/v4.60/bin/bin/../../lib/gcc/pic32mx/8.3.1/../../../../pic32mx/lib/libc-musl.a(__io_buf_needed.o)
 .reginfo       0x0000000000000000       0x18 /opt/microchip/xc32/v4.60/bin/bin/../../lib/gcc/pic32mx/8.3.1/../../../../pic32mx/lib/libc-musl.a(__io_buf_needed.o)
 .MIPS.abiflags
                0x0000000000000000       0x18 /opt/microchip/xc32/v4.60/bin/bin/../../lib/gcc/pic32mx/8.3.1/../../../../pic32mx/lib/libc-musl.a(__io_buf_needed.o)
 .xc_stack_usage
                0x0000000000000000       0x1d /opt/microchip/xc32/v4.60/bin/bin/../../lib/gcc/pic32mx/8.3.1/../../../../pic32mx/lib/libc-musl.a(__io_buf_needed.o)
 .xc_stack_usage.hdr
                0x0000000000000000        0xe /opt/microchip/xc32/v4.60/bin/bin/../../lib/gcc/pic32mx/8.3.1/../../../../pic32mx/lib/libc-musl.a(__io_buf_needed.o)
 .note.GNU-stack
                0x0000000000000000        0x0 /opt/microchip/xc32/v4.60/bin/bin/../../lib/gcc/pic32mx/8.3.1/../../../../pic32mx/lib/libc-musl.a(__io_buf_needed.o)
 .text          0x0000000000000000        0x0 /opt/microchip/xc32/v4.60/bin/bin/../../lib/gcc/pic32mx/8.3.1/../../../../pic32mx/lib/libc-musl.a(__io_file_needed.o)
 .data          0x0000000000000000        0x0 /opt/microchip/xc32/v4.60/bin/bin/../../lib/gcc/pic32mx/8.3.1/../../../../pic32mx/lib/libc-musl.a(__io_file_needed.o)
 .bss           0x0000000000000000        0x0 /opt/microchip/xc32/v4.60/bin/bin/../../lib/gcc/pic32mx/8.3.1/../../../../pic32mx/lib/libc-musl.a(__io_file_needed.o)
 .reginfo       0x0000000000000000       0x18 /opt/microchip/xc32/v4.60/bin/bin/../../lib/gcc/pic32mx/8.3.1/../../../../pic32mx/lib/libc-musl.a(__io_file_needed.o)
 .MIPS.abiflags
                0x0000000000000000       0x18 /opt/microchip/xc32/v4.60/bin/bin/../../lib/gcc/pic32mx/8.3.1/../../../../pic32mx/lib/libc-musl.a(__io_file_needed.o)
 .xc_stack_usage
                0x0000000000000000       0x1e /opt/microchip/xc32/v4.60/bin/bin/../../lib/gcc/pic32mx/8.3.1/../../../../pic32mx/lib/libc-musl.a(__io_file_needed.o)
 .xc_stack_usage.hdr
                0x0000000000000000        0xe /opt/microchip/xc32/v4.60/bin/bin/../../lib/gcc/pic32mx/8.3.1/../../../../pic32mx/lib/libc-musl.a(__io_file_needed.o)
 .note.GNU-stack
                0x0000000000000000        0x0 /opt/microchip/xc32/v4.60/bin/bin/../../lib/gcc/pic32mx/8.3.1/../../../../pic32mx/lib/libc-musl.a(__io_file_needed.o)
 .text          0x0000000000000000        0x0 /opt/microchip/xc32/v4.60/bin/bin/../../lib/gcc/pic32mx/8.3.1/../../../../pic32mx/lib/libc-musl.a(__io_fmt_needed.o)
 .data          0x0000000000000000        0x0 /opt/microchip/xc32/v4.60/bin/bin/../../lib/gcc/pic32mx/8.3.1/../../../../pic32mx/lib/libc-musl.a(__io_fmt_needed.o)
 .bss           0x0000000000000000        0x0 /opt/microchip/xc32/v4.60/bin/bin/../../lib/gcc/pic32mx/8.3.1/../../../../pic32mx/lib/libc-musl.a(__io_fmt_needed.o)
 .reginfo       0x0000000000000000       0x18 /opt/microchip/xc32/v4.60/bin/bin/../../lib/gcc/pic32mx/8.3.1/../../../../pic32mx/lib/libc-musl.a(__io_fmt_needed.o)
 .MIPS.abiflags
                0x0000000000000000       0x18 /opt/microchip/xc32/v4.60/bin/bin/../../lib/gcc/pic32mx/8.3.1/../../../../pic32mx/lib/libc-musl.a(__io_fmt_needed.o)
 .xc_stack_usage
                0x0000000000000000       0x1d /opt/microchip/xc32/v4.60/bin/bin/../../lib/gcc/pic32mx/8.3.1/../../../../pic32mx/lib/libc-musl.a(__io_fmt_needed.o)
 .xc_stack_usage.hdr
                0x0000000000000000        0xe /opt/microchip/xc32/v4.60/bin/bin/../../lib/gcc/pic32mx/8.3.1/../../../../pic32mx/lib/libc-musl.a(__io_fmt_needed.o)
 .note.GNU-stack
                0x0000000000000000        0x0 /opt/microchip/xc32/v4.60/bin/bin/../../lib/gcc/pic32mx/8.3.1/../../../../pic32mx/lib/libc-musl.a(__io_fmt_needed.o)
 .text          0x0000000000000000        0x0 /opt/microchip/xc32/v4.60/bin/bin/../../lib/gcc/pic32mx/8.3.1/../../../../pic32mx/lib/libc-musl.a(__io_std_needed.o)
 .data          0x0000000000000000        0x0 /opt/microchip/xc32/v4.60/bin/bin/../../lib/gcc/pic32mx/8.3.1/../../../../pic32mx/lib/libc-musl.a(__io_std_needed.o)
 .bss           0x0000000000000000        0x0 /opt/microchip/xc32/v4.60/bin/bin/../../lib/gcc/pic32mx/8.3.1/../../../../pic32mx/lib/libc-musl.a(__io_std_needed.o)
 .reginfo       0x0000000000000000       0x18 /opt/microchip/xc32/v4.60/bin/bin/../../lib/gcc/pic32mx/8.3.1/../../../../pic32mx/lib/libc-musl.a(__io_std_needed.o)
 .MIPS.abiflags
                0x0000000000000000       0x18 /opt/microchip/xc32/v4.60/bin/bin/../../lib/gcc/pic32mx/8.3.1/../../../../pic32mx/lib/libc-musl.a(__io_std_needed.o)
 .xc_stack_usage
                0x0000000000000000       0x1d /opt/microchip/xc32/v4.60/bin/bin/../../lib/gcc/pic32mx/8.3.1/../../../../pic32mx/lib/libc-musl.a(__io_std_needed.o)
 .xc_stack_usage.hdr
                0x0000000000000000        0xe /opt/microchip/xc32/v4.60/bin/bin/../../lib/gcc/pic32mx/8.3.1/../../../../pic32mx/lib/libc-musl.a(__io_std_needed.o)
 .note.GNU-stack
                0x0000000000000000        0x0 /opt/microchip/xc32/v4.60/bin/bin/../../lib/gcc/pic32mx/8.3.1/../../../../pic32mx/lib/libc-musl.a(__io_std_needed.o)
 .text          0x0000000000000000        0x0 /opt/microchip/xc32/v4.60/bin/bin/../../lib/gcc/pic32mx/8.3.1/../../../../pic32mx/lib/libc-musl.a(__pop_float.o)
 .data          0x0000000000000000        0x0 /opt/microchip/xc32/v4.60/bin/bin/../../lib/gcc/pic32mx/8.3.1/../../../../pic32mx/lib/libc-musl.a(__pop_float.o)
 .bss           0x0000000000000000        0x0 /opt/microchip/xc32/v4.60/bin/bin/../../lib/gcc/pic32mx/8.3.1/../../../../pic32mx/lib/libc-musl.a(__pop_float.o)
 .reginfo       0x0000000000000000       0x18 /opt/microchip/xc32/v4.60/bin/bin/../../lib/gcc/pic32mx/8.3.1/../../../../pic32mx/lib/libc-musl.a(__pop_float.o)
 .MIPS.abiflags
                0x0000000000000000       0x18 /opt/microchip/xc32/v4.60/bin/bin/../../lib/gcc/pic32mx/8.3.1/../../../../pic32mx/lib/libc-musl.a(__pop_float.o)
 .xc_stack_usage
                0x0000000000000000       0x19 /opt/microchip/xc32/v4.60/bin/bin/../../lib/gcc/pic32mx/8.3.1/../../../../pic32mx/lib/libc-musl.a(__pop_float.o)
 .xc_stack_usage.hdr
                0x0000000000000000        0xe /opt/microchip/xc32/v4.60/bin/bin/../../lib/gcc/pic32mx/8.3.1/../../../../pic32mx/lib/libc-musl.a(__pop_float.o)
 .note.GNU-stack
                0x0000000000000000        0x0 /opt/microchip/xc32/v4.60/bin/bin/../../lib/gcc/pic32mx/8.3.1/../../../../pic32mx/lib/libc-musl.a(__pop_float.o)
 .text          0x0000000000000000        0x0 /opt/microchip/xc32/v4.60/bin/bin/../../lib/gcc/pic32mx/8.3.1/../../../../pic32mx/lib/libc-musl.a(__pop_int.o)
 .data          0x0000000000000000        0x0 /opt/microchip/xc32/v4.60/bin/bin/../../lib/gcc/pic32mx/8.3.1/../../../../pic32mx/lib/libc-musl.a(__pop_int.o)
 .bss           0x0000000000000000        0x0 /opt/microchip/xc32/v4.60/bin/bin/../../lib/gcc/pic32mx/8.3.1/../../../../pic32mx/lib/libc-musl.a(__pop_int.o)
 .reginfo       0x0000000000000000       0x18 /opt/microchip/xc32/v4.60/bin/bin/../../lib/gcc/pic32mx/8.3.1/../../../../pic32mx/lib/libc-musl.a(__pop_int.o)
 .MIPS.abiflags
                0x0000000000000000       0x18 /opt/microchip/xc32/v4.60/bin/bin/../../lib/gcc/pic32mx/8.3.1/../../../../pic32mx/lib/libc-musl.a(__pop_int.o)
 .xc_stack_usage
                0x0000000000000000       0x17 /opt/microchip/xc32/v4.60/bin/bin/../../lib/gcc/pic32mx/8.3.1/../../../../pic32mx/lib/libc-musl.a(__pop_int.o)
 .xc_stack_usage.hdr
                0x0000000000000000        0xe /opt/microchip/xc32/v4.60/bin/bin/../../lib/gcc/pic32mx/8.3.1/../../../../pic32mx/lib/libc-musl.a(__pop_int.o)
 .note.GNU-stack
                0x0000000000000000        0x0 /opt/microchip/xc32/v4.60/bin/bin/../../lib/gcc/pic32mx/8.3.1/../../../../pic32mx/lib/libc-musl.a(__pop_int.o)
 .text          0x0000000000000000        0x0 /opt/microchip/xc32/v4.60/bin/bin/../../lib/gcc/pic32mx/8.3.1/../../../../pic32mx/lib/libc-musl.a(__pop_ptr.o)
 .data          0x0000000000000000        0x0 /opt/microchip/xc32/v4.60/bin/bin/../../lib/gcc/pic32mx/8.3.1/../../../../pic32mx/lib/libc-musl.a(__pop_ptr.o)
 .bss           0x0000000000000000        0x0 /opt/microchip/xc32/v4.60/bin/bin/../../lib/gcc/pic32mx/8.3.1/../../../../pic32mx/lib/libc-musl.a(__pop_ptr.o)
 .reginfo       0x0000000000000000       0x18 /opt/microchip/xc32/v4.60/bin/bin/../../lib/gcc/pic32mx/8.3.1/../../../../pic32mx/lib/libc-musl.a(__pop_ptr.o)
 .MIPS.abiflags
                0x0000000000000000       0x18 /opt/microchip/xc32/v4.60/bin/bin/../../lib/gcc/pic32mx/8.3.1/../../../../pic32mx/lib/libc-musl.a(__pop_ptr.o)
 .xc_stack_usage
                0x0000000000000000       0x17 /opt/microchip/xc32/v4.60/bin/bin/../../lib/gcc/pic32mx/8.3.1/../../../../pic32mx/lib/libc-musl.a(__pop_ptr.o)
 .xc_stack_usage.hdr
                0x0000000000000000        0xe /opt/microchip/xc32/v4.60/bin/bin/../../lib/gcc/pic32mx/8.3.1/../../../../pic32mx/lib/libc-musl.a(__pop_ptr.o)
 .note.GNU-stack
                0x0000000000000000        0x0 /opt/microchip/xc32/v4.60/bin/bin/../../lib/gcc/pic32mx/8.3.1/../../../../pic32mx/lib/libc-musl.a(__pop_ptr.o)
 .text          0x0000000000000000        0x0 /opt/microchip/xc32/v4.60/bin/bin/../../lib/gcc/pic32mx/8.3.1/../../../../pic32mx/lib/libc-musl.a(__printf_core.o)
 .data          0x0000000000000000        0x0 /opt/microchip/xc32/v4.60/bin/bin/../../lib/gcc/pic32mx/8.3.1/../../../../pic32mx/lib/libc-musl.a(__printf_core.o)
 .bss           0x0000000000000000        0x0 /opt/microchip/xc32/v4.60/bin/bin/../../lib/gcc/pic32mx/8.3.1/../../../../pic32mx/lib/libc-musl.a(__printf_core.o)
 .reginfo       0x0000000000000000       0x18 /opt/microchip/xc32/v4.60/bin/bin/../../lib/gcc/pic32mx/8.3.1/../../../../pic32mx/lib/libc-musl.a(__printf_core.o)
 .MIPS.abiflags
                0x0000000000000000       0x18 /opt/microchip/xc32/v4.60/bin/bin/../../lib/gcc/pic32mx/8.3.1/../../../../pic32mx/lib/libc-musl.a(__printf_core.o)
 .xc_stack_usage
                0x0000000000000000       0xaf /opt/microchip/xc32/v4.60/bin/bin/../../lib/gcc/pic32mx/8.3.1/../../../../pic32mx/lib/libc-musl.a(__printf_core.o)
 .text.__string_out
                0x0000000000000000       0x60 /opt/microchip/xc32/v4.60/bin/bin/../../lib/gcc/pic32mx/8.3.1/../../../../pic32mx/lib/libc-musl.a(__printf_core.o)
 .text.__dummy_fmt3
                0x0000000000000000        0x8 /opt/microchip/xc32/v4.60/bin/bin/../../lib/gcc/pic32mx/8.3.1/../../../../pic32mx/lib/libc-musl.a(__printf_core.o)
 .text.__dummy_fmt4
                0x0000000000000000        0x8 /opt/microchip/xc32/v4.60/bin/bin/../../lib/gcc/pic32mx/8.3.1/../../../../pic32mx/lib/libc-musl.a(__printf_core.o)
 .text.__dummy_fmts
                0x0000000000000000        0x8 /opt/microchip/xc32/v4.60/bin/bin/../../lib/gcc/pic32mx/8.3.1/../../../../pic32mx/lib/libc-musl.a(__printf_core.o)
 .xc_stack_usage.hdr
                0x0000000000000000        0xe /opt/microchip/xc32/v4.60/bin/bin/../../lib/gcc/pic32mx/8.3.1/../../../../pic32mx/lib/libc-musl.a(__printf_core.o)
 .note.GNU-stack
                0x0000000000000000        0x0 /opt/microchip/xc32/v4.60/bin/bin/../../lib/gcc/pic32mx/8.3.1/../../../../pic32mx/lib/libc-musl.a(__printf_core.o)
 .text          0x0000000000000000        0x0 /opt/microchip/xc32/v4.60/bin/bin/../../lib/gcc/pic32mx/8.3.1/../../../../pic32mx/lib/libc-musl.a(__putc.o)
 .data          0x0000000000000000        0x0 /opt/microchip/xc32/v4.60/bin/bin/../../lib/gcc/pic32mx/8.3.1/../../../../pic32mx/lib/libc-musl.a(__putc.o)
 .bss           0x0000000000000000        0x0 /opt/microchip/xc32/v4.60/bin/bin/../../lib/gcc/pic32mx/8.3.1/../../../../pic32mx/lib/libc-musl.a(__putc.o)
 .reginfo       0x0000000000000000       0x18 /opt/microchip/xc32/v4.60/bin/bin/../../lib/gcc/pic32mx/8.3.1/../../../../pic32mx/lib/libc-musl.a(__putc.o)
 .MIPS.abiflags
                0x0000000000000000       0x18 /opt/microchip/xc32/v4.60/bin/bin/../../lib/gcc/pic32mx/8.3.1/../../../../pic32mx/lib/libc-musl.a(__putc.o)
 .xc_stack_usage
                0x0000000000000000       0x14 /opt/microchip/xc32/v4.60/bin/bin/../../lib/gcc/pic32mx/8.3.1/../../../../pic32mx/lib/libc-musl.a(__putc.o)
 .text.__putc   0x0000000000000000       0x70 /opt/microchip/xc32/v4.60/bin/bin/../../lib/gcc/pic32mx/8.3.1/../../../../pic32mx/lib/libc-musl.a(__putc.o)
 .xc_stack_usage.hdr
                0x0000000000000000        0xe /opt/microchip/xc32/v4.60/bin/bin/../../lib/gcc/pic32mx/8.3.1/../../../../pic32mx/lib/libc-musl.a(__putc.o)
 .note.GNU-stack
                0x0000000000000000        0x0 /opt/microchip/xc32/v4.60/bin/bin/../../lib/gcc/pic32mx/8.3.1/../../../../pic32mx/lib/libc-musl.a(__putc.o)
 .text          0x0000000000000000        0x0 /opt/microchip/xc32/v4.60/bin/bin/../../lib/gcc/pic32mx/8.3.1/../../../../pic32mx/lib/libc-musl.a(__stderr.o)
 .data          0x0000000000000000       0x60 /opt/microchip/xc32/v4.60/bin/bin/../../lib/gcc/pic32mx/8.3.1/../../../../pic32mx/lib/libc-musl.a(__stderr.o)
 .bss           0x0000000000000000        0x0 /opt/microchip/xc32/v4.60/bin/bin/../../lib/gcc/pic32mx/8.3.1/../../../../pic32mx/lib/libc-musl.a(__stderr.o)
 .reginfo       0x0000000000000000       0x18 /opt/microchip/xc32/v4.60/bin/bin/../../lib/gcc/pic32mx/8.3.1/../../../../pic32mx/lib/libc-musl.a(__stderr.o)
 .MIPS.abiflags
                0x0000000000000000       0x18 /opt/microchip/xc32/v4.60/bin/bin/../../lib/gcc/pic32mx/8.3.1/../../../../pic32mx/lib/libc-musl.a(__stderr.o)
 .xc_stack_usage
                0x0000000000000000       0x50 /opt/microchip/xc32/v4.60/bin/bin/../../lib/gcc/pic32mx/8.3.1/../../../../pic32mx/lib/libc-musl.a(__stderr.o)
 .text.__dummy  0x0000000000000000        0x8 /opt/microchip/xc32/v4.60/bin/bin/../../lib/gcc/pic32mx/8.3.1/../../../../pic32mx/lib/libc-musl.a(__stderr.o)
 .text.__get_stderr
                0x0000000000000000        0xc /opt/microchip/xc32/v4.60/bin/bin/../../lib/gcc/pic32mx/8.3.1/../../../../pic32mx/lib/libc-musl.a(__stderr.o)
 .xc_stack_usage.hdr
                0x0000000000000000        0xe /opt/microchip/xc32/v4.60/bin/bin/../../lib/gcc/pic32mx/8.3.1/../../../../pic32mx/lib/libc-musl.a(__stderr.o)
 .note.GNU-stack
                0x0000000000000000        0x0 /opt/microchip/xc32/v4.60/bin/bin/../../lib/gcc/pic32mx/8.3.1/../../../../pic32mx/lib/libc-musl.a(__stderr.o)
 .text          0x0000000000000000        0x0 /opt/microchip/xc32/v4.60/bin/bin/../../lib/gcc/pic32mx/8.3.1/../../../../pic32mx/lib/libc-musl.a(__stdio_exit.o)
 .data          0x0000000000000000        0x0 /opt/microchip/xc32/v4.60/bin/bin/../../lib/gcc/pic32mx/8.3.1/../../../../pic32mx/lib/libc-musl.a(__stdio_exit.o)
 .bss           0x0000000000000000        0x4 /opt/microchip/xc32/v4.60/bin/bin/../../lib/gcc/pic32mx/8.3.1/../../../../pic32mx/lib/libc-musl.a(__stdio_exit.o)
 .reginfo       0x0000000000000000       0x18 /opt/microchip/xc32/v4.60/bin/bin/../../lib/gcc/pic32mx/8.3.1/../../../../pic32mx/lib/libc-musl.a(__stdio_exit.o)
 .MIPS.abiflags
                0x0000000000000000       0x18 /opt/microchip/xc32/v4.60/bin/bin/../../lib/gcc/pic32mx/8.3.1/../../../../pic32mx/lib/libc-musl.a(__stdio_exit.o)
 .xc_stack_usage
                0x0000000000000000       0x45 /opt/microchip/xc32/v4.60/bin/bin/../../lib/gcc/pic32mx/8.3.1/../../../../pic32mx/lib/libc-musl.a(__stdio_exit.o)
 .text.__dummy  0x0000000000000000        0x8 /opt/microchip/xc32/v4.60/bin/bin/../../lib/gcc/pic32mx/8.3.1/../../../../pic32mx/lib/libc-musl.a(__stdio_exit.o)
 .text.__dummy1
                0x0000000000000000        0x8 /opt/microchip/xc32/v4.60/bin/bin/../../lib/gcc/pic32mx/8.3.1/../../../../pic32mx/lib/libc-musl.a(__stdio_exit.o)
 .text.__stdio_exit
                0x0000000000000000       0x4c /opt/microchip/xc32/v4.60/bin/bin/../../lib/gcc/pic32mx/8.3.1/../../../../pic32mx/lib/libc-musl.a(__stdio_exit.o)
 .xc_stack_usage.hdr
                0x0000000000000000        0xe /opt/microchip/xc32/v4.60/bin/bin/../../lib/gcc/pic32mx/8.3.1/../../../../pic32mx/lib/libc-musl.a(__stdio_exit.o)
 .note.GNU-stack
                0x0000000000000000        0x0 /opt/microchip/xc32/v4.60/bin/bin/../../lib/gcc/pic32mx/8.3.1/../../../../pic32mx/lib/libc-musl.a(__stdio_exit.o)
 .text          0x0000000000000000        0x0 /opt/microchip/xc32/v4.60/bin/bin/../../lib/gcc/pic32mx/8.3.1/../../../../pic32mx/lib/libc-musl.a(__stdio_write.o)
 .data          0x0000000000000000        0x0 /opt/microchip/xc32/v4.60/bin/bin/../../lib/gcc/pic32mx/8.3.1/../../../../pic32mx/lib/libc-musl.a(__stdio_write.o)
 .bss           0x0000000000000000        0x0 /opt/microchip/xc32/v4.60/bin/bin/../../lib/gcc/pic32mx/8.3.1/../../../../pic32mx/lib/libc-musl.a(__stdio_write.o)
 .reginfo       0x0000000000000000       0x18 /opt/microchip/xc32/v4.60/bin/bin/../../lib/gcc/pic32mx/8.3.1/../../../../pic32mx/lib/libc-musl.a(__stdio_write.o)
 .MIPS.abiflags
                0x0000000000000000       0x18 /opt/microchip/xc32/v4.60/bin/bin/../../lib/gcc/pic32mx/8.3.1/../../../../pic32mx/lib/libc-musl.a(__stdio_write.o)
 .xc_stack_usage
                0x0000000000000000       0x42 /opt/microchip/xc32/v4.60/bin/bin/../../lib/gcc/pic32mx/8.3.1/../../../../pic32mx/lib/libc-musl.a(__stdio_write.o)
 .xc_stack_usage.hdr
                0x0000000000000000        0xe /opt/microchip/xc32/v4.60/bin/bin/../../lib/gcc/pic32mx/8.3.1/../../../../pic32mx/lib/libc-musl.a(__stdio_write.o)
 .note.GNU-stack
                0x0000000000000000        0x0 /opt/microchip/xc32/v4.60/bin/bin/../../lib/gcc/pic32mx/8.3.1/../../../../pic32mx/lib/libc-musl.a(__stdio_write.o)
 .text          0x0000000000000000        0x0 /opt/microchip/xc32/v4.60/bin/bin/../../lib/gcc/pic32mx/8.3.1/../../../../pic32mx/lib/libc-musl.a(__stdout.o)
 .data          0x0000000000000000       0x60 /opt/microchip/xc32/v4.60/bin/bin/../../lib/gcc/pic32mx/8.3.1/../../../../pic32mx/lib/libc-musl.a(__stdout.o)
 .bss           0x0000000000000000        0x0 /opt/microchip/xc32/v4.60/bin/bin/../../lib/gcc/pic32mx/8.3.1/../../../../pic32mx/lib/libc-musl.a(__stdout.o)
 .reginfo       0x0000000000000000       0x18 /opt/microchip/xc32/v4.60/bin/bin/../../lib/gcc/pic32mx/8.3.1/../../../../pic32mx/lib/libc-musl.a(__stdout.o)
 .MIPS.abiflags
                0x0000000000000000       0x18 /opt/microchip/xc32/v4.60/bin/bin/../../lib/gcc/pic32mx/8.3.1/../../../../pic32mx/lib/libc-musl.a(__stdout.o)
 .xc_stack_usage
                0x0000000000000000       0x50 /opt/microchip/xc32/v4.60/bin/bin/../../lib/gcc/pic32mx/8.3.1/../../../../pic32mx/lib/libc-musl.a(__stdout.o)
 .text.__dummy  0x0000000000000000        0x8 /opt/microchip/xc32/v4.60/bin/bin/../../lib/gcc/pic32mx/8.3.1/../../../../pic32mx/lib/libc-musl.a(__stdout.o)
 .text.__get_stdout
                0x0000000000000000        0xc /opt/microchip/xc32/v4.60/bin/bin/../../lib/gcc/pic32mx/8.3.1/../../../../pic32mx/lib/libc-musl.a(__stdout.o)
 .xc_stack_usage.hdr
                0x0000000000000000        0xe /opt/microchip/xc32/v4.60/bin/bin/../../lib/gcc/pic32mx/8.3.1/../../../../pic32mx/lib/libc-musl.a(__stdout.o)
 .note.GNU-stack
                0x0000000000000000        0x0 /opt/microchip/xc32/v4.60/bin/bin/../../lib/gcc/pic32mx/8.3.1/../../../../pic32mx/lib/libc-musl.a(__stdout.o)
 .text          0x0000000000000000        0x0 /opt/microchip/xc32/v4.60/bin/bin/../../lib/gcc/pic32mx/8.3.1/../../../../pic32mx/lib/libc-musl.a(__towrite.o)
 .data          0x0000000000000000        0x0 /opt/microchip/xc32/v4.60/bin/bin/../../lib/gcc/pic32mx/8.3.1/../../../../pic32mx/lib/libc-musl.a(__towrite.o)
 .bss           0x0000000000000000        0x0 /opt/microchip/xc32/v4.60/bin/bin/../../lib/gcc/pic32mx/8.3.1/../../../../pic32mx/lib/libc-musl.a(__towrite.o)
 .reginfo       0x0000000000000000       0x18 /opt/microchip/xc32/v4.60/bin/bin/../../lib/gcc/pic32mx/8.3.1/../../../../pic32mx/lib/libc-musl.a(__towrite.o)
 .MIPS.abiflags
                0x0000000000000000       0x18 /opt/microchip/xc32/v4.60/bin/bin/../../lib/gcc/pic32mx/8.3.1/../../../../pic32mx/lib/libc-musl.a(__towrite.o)
 .xc_stack_usage
                0x0000000000000000       0x2c /opt/microchip/xc32/v4.60/bin/bin/../../lib/gcc/pic32mx/8.3.1/../../../../pic32mx/lib/libc-musl.a(__towrite.o)
 .text.__dummy  0x0000000000000000        0x8 /opt/microchip/xc32/v4.60/bin/bin/../../lib/gcc/pic32mx/8.3.1/../../../../pic32mx/lib/libc-musl.a(__towrite.o)
 .xc_stack_usage.hdr
                0x0000000000000000        0xe /opt/microchip/xc32/v4.60/bin/bin/../../lib/gcc/pic32mx/8.3.1/../../../../pic32mx/lib/libc-musl.a(__towrite.o)
 .note.GNU-stack
                0x0000000000000000        0x0 /opt/microchip/xc32/v4.60/bin/bin/../../lib/gcc/pic32mx/8.3.1/../../../../pic32mx/lib/libc-musl.a(__towrite.o)
 .text          0x0000000000000000        0x0 /opt/microchip/xc32/v4.60/bin/bin/../../lib/gcc/pic32mx/8.3.1/../../../../pic32mx/lib/libc-musl.a(putc.o)
 .data          0x0000000000000000        0x0 /opt/microchip/xc32/v4.60/bin/bin/../../lib/gcc/pic32mx/8.3.1/../../../../pic32mx/lib/libc-musl.a(putc.o)
 .bss           0x0000000000000000        0x0 /opt/microchip/xc32/v4.60/bin/bin/../../lib/gcc/pic32mx/8.3.1/../../../../pic32mx/lib/libc-musl.a(putc.o)
 .reginfo       0x0000000000000000       0x18 /opt/microchip/xc32/v4.60/bin/bin/../../lib/gcc/pic32mx/8.3.1/../../../../pic32mx/lib/libc-musl.a(putc.o)
 .MIPS.abiflags
                0x0000000000000000       0x18 /opt/microchip/xc32/v4.60/bin/bin/../../lib/gcc/pic32mx/8.3.1/../../../../pic32mx/lib/libc-musl.a(putc.o)
 .xc_stack_usage
                0x0000000000000000       0x4f /opt/microchip/xc32/v4.60/bin/bin/../../lib/gcc/pic32mx/8.3.1/../../../../pic32mx/lib/libc-musl.a(putc.o)
 .text.__putc_unbuffered
                0x0000000000000000       0x60 /opt/microchip/xc32/v4.60/bin/bin/../../lib/gcc/pic32mx/8.3.1/../../../../pic32mx/lib/libc-musl.a(putc.o)
 .text.putc     0x0000000000000000       0x1c /opt/microchip/xc32/v4.60/bin/bin/../../lib/gcc/pic32mx/8.3.1/../../../../pic32mx/lib/libc-musl.a(putc.o)
 .xc_stack_usage.hdr
                0x0000000000000000        0xe /opt/microchip/xc32/v4.60/bin/bin/../../lib/gcc/pic32mx/8.3.1/../../../../pic32mx/lib/libc-musl.a(putc.o)
 .note.GNU-stack
                0x0000000000000000        0x0 /opt/microchip/xc32/v4.60/bin/bin/../../lib/gcc/pic32mx/8.3.1/../../../../pic32mx/lib/libc-musl.a(putc.o)
 .text          0x0000000000000000        0x0 /opt/microchip/xc32/v4.60/bin/bin/../../lib/gcc/pic32mx/8.3.1/../../../../pic32mx/lib/libc-musl.a(atoi.o)
 .data          0x0000000000000000        0x0 /opt/microchip/xc32/v4.60/bin/bin/../../lib/gcc/pic32mx/8.3.1/../../../../pic32mx/lib/libc-musl.a(atoi.o)
 .bss           0x0000000000000000        0x0 /opt/microchip/xc32/v4.60/bin/bin/../../lib/gcc/pic32mx/8.3.1/../../../../pic32mx/lib/libc-musl.a(atoi.o)
 .reginfo       0x0000000000000000       0x18 /opt/microchip/xc32/v4.60/bin/bin/../../lib/gcc/pic32mx/8.3.1/../../../../pic32mx/lib/libc-musl.a(atoi.o)
 .MIPS.abiflags
                0x0000000000000000       0x18 /opt/microchip/xc32/v4.60/bin/bin/../../lib/gcc/pic32mx/8.3.1/../../../../pic32mx/lib/libc-musl.a(atoi.o)
 .xc_stack_usage
                0x0000000000000000       0x12 /opt/microchip/xc32/v4.60/bin/bin/../../lib/gcc/pic32mx/8.3.1/../../../../pic32mx/lib/libc-musl.a(atoi.o)
 .xc_stack_usage.hdr
                0x0000000000000000        0xe /opt/microchip/xc32/v4.60/bin/bin/../../lib/gcc/pic32mx/8.3.1/../../../../pic32mx/lib/libc-musl.a(atoi.o)
 .note.GNU-stack
                0x0000000000000000        0x0 /opt/microchip/xc32/v4.60/bin/bin/../../lib/gcc/pic32mx/8.3.1/../../../../pic32mx/lib/libc-musl.a(atoi.o)
 .text          0x0000000000000000        0x0 /opt/microchip/xc32/v4.60/bin/bin/../../lib/gcc/pic32mx/8.3.1/../../../../pic32mx/lib/libc-musl.a(writev.o)
 .data          0x0000000000000000        0x0 /opt/microchip/xc32/v4.60/bin/bin/../../lib/gcc/pic32mx/8.3.1/../../../../pic32mx/lib/libc-musl.a(writev.o)
 .bss           0x0000000000000000        0x0 /opt/microchip/xc32/v4.60/bin/bin/../../lib/gcc/pic32mx/8.3.1/../../../../pic32mx/lib/libc-musl.a(writev.o)
 .reginfo       0x0000000000000000       0x18 /opt/microchip/xc32/v4.60/bin/bin/../../lib/gcc/pic32mx/8.3.1/../../../../pic32mx/lib/libc-musl.a(writev.o)
 .MIPS.abiflags
                0x0000000000000000       0x18 /opt/microchip/xc32/v4.60/bin/bin/../../lib/gcc/pic32mx/8.3.1/../../../../pic32mx/lib/libc-musl.a(writev.o)
 .xc_stack_usage
                0x0000000000000000       0x16 /opt/microchip/xc32/v4.60/bin/bin/../../lib/gcc/pic32mx/8.3.1/../../../../pic32mx/lib/libc-musl.a(writev.o)
 .xc_stack_usage.hdr
                0x0000000000000000        0xe /opt/microchip/xc32/v4.60/bin/bin/../../lib/gcc/pic32mx/8.3.1/../../../../pic32mx/lib/libc-musl.a(writev.o)
 .note.GNU-stack
                0x0000000000000000        0x0 /opt/microchip/xc32/v4.60/bin/bin/../../lib/gcc/pic32mx/8.3.1/../../../../pic32mx/lib/libc-musl.a(writev.o)
 .text          0x0000000000000000        0x0 /opt/microchip/xc32/v4.60/bin/bin/../../lib/gcc/pic32mx/8.3.1/../../../../pic32mx/lib/libc-musl.a(__overflow.o)
 .data          0x0000000000000000        0x0 /opt/microchip/xc32/v4.60/bin/bin/../../lib/gcc/pic32mx/8.3.1/../../../../pic32mx/lib/libc-musl.a(__overflow.o)
 .bss           0x0000000000000000        0x0 /opt/microchip/xc32/v4.60/bin/bin/../../lib/gcc/pic32mx/8.3.1/../../../../pic32mx/lib/libc-musl.a(__overflow.o)
 .reginfo       0x0000000000000000       0x18 /opt/microchip/xc32/v4.60/bin/bin/../../lib/gcc/pic32mx/8.3.1/../../../../pic32mx/lib/libc-musl.a(__overflow.o)
 .MIPS.abiflags
                0x0000000000000000       0x18 /opt/microchip/xc32/v4.60/bin/bin/../../lib/gcc/pic32mx/8.3.1/../../../../pic32mx/lib/libc-musl.a(__overflow.o)
 .xc_stack_usage
                0x0000000000000000       0x18 /opt/microchip/xc32/v4.60/bin/bin/../../lib/gcc/pic32mx/8.3.1/../../../../pic32mx/lib/libc-musl.a(__overflow.o)
 .text.__overflow
                0x0000000000000000       0x94 /opt/microchip/xc32/v4.60/bin/bin/../../lib/gcc/pic32mx/8.3.1/../../../../pic32mx/lib/libc-musl.a(__overflow.o)
 .xc_stack_usage.hdr
                0x0000000000000000        0xe /opt/microchip/xc32/v4.60/bin/bin/../../lib/gcc/pic32mx/8.3.1/../../../../pic32mx/lib/libc-musl.a(__overflow.o)
 .note.GNU-stack
                0x0000000000000000        0x0 /opt/microchip/xc32/v4.60/bin/bin/../../lib/gcc/pic32mx/8.3.1/../../../../pic32mx/lib/libc-musl.a(__overflow.o)
 .text          0x0000000000000000        0x0 /opt/microchip/xc32/v4.60/bin/bin/../../lib/gcc/pic32mx/8.3.1/../../../../pic32mx/lib/libc-musl.a(__fclose.o)
 .data          0x0000000000000000        0x0 /opt/microchip/xc32/v4.60/bin/bin/../../lib/gcc/pic32mx/8.3.1/../../../../pic32mx/lib/libc-musl.a(__fclose.o)
 .bss           0x0000000000000000        0x0 /opt/microchip/xc32/v4.60/bin/bin/../../lib/gcc/pic32mx/8.3.1/../../../../pic32mx/lib/libc-musl.a(__fclose.o)
 .reginfo       0x0000000000000000       0x18 /opt/microchip/xc32/v4.60/bin/bin/../../lib/gcc/pic32mx/8.3.1/../../../../pic32mx/lib/libc-musl.a(__fclose.o)
 .MIPS.abiflags
                0x0000000000000000       0x18 /opt/microchip/xc32/v4.60/bin/bin/../../lib/gcc/pic32mx/8.3.1/../../../../pic32mx/lib/libc-musl.a(__fclose.o)
 .xc_stack_usage
                0x0000000000000000       0x16 /opt/microchip/xc32/v4.60/bin/bin/../../lib/gcc/pic32mx/8.3.1/../../../../pic32mx/lib/libc-musl.a(__fclose.o)
 .text.__fclose
                0x0000000000000000       0x38 /opt/microchip/xc32/v4.60/bin/bin/../../lib/gcc/pic32mx/8.3.1/../../../../pic32mx/lib/libc-musl.a(__fclose.o)
 .xc_stack_usage.hdr
                0x0000000000000000        0xe /opt/microchip/xc32/v4.60/bin/bin/../../lib/gcc/pic32mx/8.3.1/../../../../pic32mx/lib/libc-musl.a(__fclose.o)
 .note.GNU-stack
                0x0000000000000000        0x0 /opt/microchip/xc32/v4.60/bin/bin/../../lib/gcc/pic32mx/8.3.1/../../../../pic32mx/lib/libc-musl.a(__fclose.o)
 .text          0x0000000000000000        0x0 /opt/microchip/xc32/v4.60/bin/bin/../../lib/gcc/pic32mx/8.3.1/../../../../pic32mx/lib/libc-musl.a(__fmt_a.o)
 .data          0x0000000000000000        0x0 /opt/microchip/xc32/v4.60/bin/bin/../../lib/gcc/pic32mx/8.3.1/../../../../pic32mx/lib/libc-musl.a(__fmt_a.o)
 .bss           0x0000000000000000        0x0 /opt/microchip/xc32/v4.60/bin/bin/../../lib/gcc/pic32mx/8.3.1/../../../../pic32mx/lib/libc-musl.a(__fmt_a.o)
 .reginfo       0x0000000000000000       0x18 /opt/microchip/xc32/v4.60/bin/bin/../../lib/gcc/pic32mx/8.3.1/../../../../pic32mx/lib/libc-musl.a(__fmt_a.o)
 .MIPS.abiflags
                0x0000000000000000       0x18 /opt/microchip/xc32/v4.60/bin/bin/../../lib/gcc/pic32mx/8.3.1/../../../../pic32mx/lib/libc-musl.a(__fmt_a.o)
 .xc_stack_usage
                0x0000000000000000       0x15 /opt/microchip/xc32/v4.60/bin/bin/../../lib/gcc/pic32mx/8.3.1/../../../../pic32mx/lib/libc-musl.a(__fmt_a.o)
 .xc_stack_usage.hdr
                0x0000000000000000        0xe /opt/microchip/xc32/v4.60/bin/bin/../../lib/gcc/pic32mx/8.3.1/../../../../pic32mx/lib/libc-musl.a(__fmt_a.o)
 .note.GNU-stack
                0x0000000000000000        0x0 /opt/microchip/xc32/v4.60/bin/bin/../../lib/gcc/pic32mx/8.3.1/../../../../pic32mx/lib/libc-musl.a(__fmt_a.o)
 .text          0x0000000000000000        0x0 /opt/microchip/xc32/v4.60/bin/bin/../../lib/gcc/pic32mx/8.3.1/../../../../pic32mx/lib/libc-musl.a(__fmt_d.o)
 .data          0x0000000000000000        0x0 /opt/microchip/xc32/v4.60/bin/bin/../../lib/gcc/pic32mx/8.3.1/../../../../pic32mx/lib/libc-musl.a(__fmt_d.o)
 .bss           0x0000000000000000        0x0 /opt/microchip/xc32/v4.60/bin/bin/../../lib/gcc/pic32mx/8.3.1/../../../../pic32mx/lib/libc-musl.a(__fmt_d.o)
 .reginfo       0x0000000000000000       0x18 /opt/microchip/xc32/v4.60/bin/bin/../../lib/gcc/pic32mx/8.3.1/../../../../pic32mx/lib/libc-musl.a(__fmt_d.o)
 .MIPS.abiflags
                0x0000000000000000       0x18 /opt/microchip/xc32/v4.60/bin/bin/../../lib/gcc/pic32mx/8.3.1/../../../../pic32mx/lib/libc-musl.a(__fmt_d.o)
 .xc_stack_usage
                0x0000000000000000       0x15 /opt/microchip/xc32/v4.60/bin/bin/../../lib/gcc/pic32mx/8.3.1/../../../../pic32mx/lib/libc-musl.a(__fmt_d.o)
 .xc_stack_usage.hdr
                0x0000000000000000        0xe /opt/microchip/xc32/v4.60/bin/bin/../../lib/gcc/pic32mx/8.3.1/../../../../pic32mx/lib/libc-musl.a(__fmt_d.o)
 .note.GNU-stack
                0x0000000000000000        0x0 /opt/microchip/xc32/v4.60/bin/bin/../../lib/gcc/pic32mx/8.3.1/../../../../pic32mx/lib/libc-musl.a(__fmt_d.o)
 .text          0x0000000000000000        0x0 /opt/microchip/xc32/v4.60/bin/bin/../../lib/gcc/pic32mx/8.3.1/../../../../pic32mx/lib/libc-musl.a(__fmt_fp.o)
 .data          0x0000000000000000        0x0 /opt/microchip/xc32/v4.60/bin/bin/../../lib/gcc/pic32mx/8.3.1/../../../../pic32mx/lib/libc-musl.a(__fmt_fp.o)
 .bss           0x0000000000000000        0x0 /opt/microchip/xc32/v4.60/bin/bin/../../lib/gcc/pic32mx/8.3.1/../../../../pic32mx/lib/libc-musl.a(__fmt_fp.o)
 .reginfo       0x0000000000000000       0x18 /opt/microchip/xc32/v4.60/bin/bin/../../lib/gcc/pic32mx/8.3.1/../../../../pic32mx/lib/libc-musl.a(__fmt_fp.o)
 .MIPS.abiflags
                0x0000000000000000       0x18 /opt/microchip/xc32/v4.60/bin/bin/../../lib/gcc/pic32mx/8.3.1/../../../../pic32mx/lib/libc-musl.a(__fmt_fp.o)
 .xc_stack_usage
                0x0000000000000000       0x16 /opt/microchip/xc32/v4.60/bin/bin/../../lib/gcc/pic32mx/8.3.1/../../../../pic32mx/lib/libc-musl.a(__fmt_fp.o)
 .xc_stack_usage.hdr
                0x0000000000000000        0xe /opt/microchip/xc32/v4.60/bin/bin/../../lib/gcc/pic32mx/8.3.1/../../../../pic32mx/lib/libc-musl.a(__fmt_fp.o)
 .note.GNU-stack
                0x0000000000000000        0x0 /opt/microchip/xc32/v4.60/bin/bin/../../lib/gcc/pic32mx/8.3.1/../../../../pic32mx/lib/libc-musl.a(__fmt_fp.o)
 .text          0x0000000000000000        0x0 /opt/microchip/xc32/v4.60/bin/bin/../../lib/gcc/pic32mx/8.3.1/../../../../pic32mx/lib/libc-musl.a(__fmt_o.o)
 .data          0x0000000000000000        0x0 /opt/microchip/xc32/v4.60/bin/bin/../../lib/gcc/pic32mx/8.3.1/../../../../pic32mx/lib/libc-musl.a(__fmt_o.o)
 .bss           0x0000000000000000        0x0 /opt/microchip/xc32/v4.60/bin/bin/../../lib/gcc/pic32mx/8.3.1/../../../../pic32mx/lib/libc-musl.a(__fmt_o.o)
 .reginfo       0x0000000000000000       0x18 /opt/microchip/xc32/v4.60/bin/bin/../../lib/gcc/pic32mx/8.3.1/../../../../pic32mx/lib/libc-musl.a(__fmt_o.o)
 .MIPS.abiflags
                0x0000000000000000       0x18 /opt/microchip/xc32/v4.60/bin/bin/../../lib/gcc/pic32mx/8.3.1/../../../../pic32mx/lib/libc-musl.a(__fmt_o.o)
 .xc_stack_usage
                0x0000000000000000       0x15 /opt/microchip/xc32/v4.60/bin/bin/../../lib/gcc/pic32mx/8.3.1/../../../../pic32mx/lib/libc-musl.a(__fmt_o.o)
 .xc_stack_usage.hdr
                0x0000000000000000        0xe /opt/microchip/xc32/v4.60/bin/bin/../../lib/gcc/pic32mx/8.3.1/../../../../pic32mx/lib/libc-musl.a(__fmt_o.o)
 .note.GNU-stack
                0x0000000000000000        0x0 /opt/microchip/xc32/v4.60/bin/bin/../../lib/gcc/pic32mx/8.3.1/../../../../pic32mx/lib/libc-musl.a(__fmt_o.o)
 .text          0x0000000000000000        0x0 /opt/microchip/xc32/v4.60/bin/bin/../../lib/gcc/pic32mx/8.3.1/../../../../pic32mx/lib/libc-musl.a(__fmt_s.o)
 .data          0x0000000000000000        0x0 /opt/microchip/xc32/v4.60/bin/bin/../../lib/gcc/pic32mx/8.3.1/../../../../pic32mx/lib/libc-musl.a(__fmt_s.o)
 .bss           0x0000000000000000        0x0 /opt/microchip/xc32/v4.60/bin/bin/../../lib/gcc/pic32mx/8.3.1/../../../../pic32mx/lib/libc-musl.a(__fmt_s.o)
 .reginfo       0x0000000000000000       0x18 /opt/microchip/xc32/v4.60/bin/bin/../../lib/gcc/pic32mx/8.3.1/../../../../pic32mx/lib/libc-musl.a(__fmt_s.o)
 .MIPS.abiflags
                0x0000000000000000       0x18 /opt/microchip/xc32/v4.60/bin/bin/../../lib/gcc/pic32mx/8.3.1/../../../../pic32mx/lib/libc-musl.a(__fmt_s.o)
 .xc_stack_usage
                0x0000000000000000       0x15 /opt/microchip/xc32/v4.60/bin/bin/../../lib/gcc/pic32mx/8.3.1/../../../../pic32mx/lib/libc-musl.a(__fmt_s.o)
 .xc_stack_usage.hdr
                0x0000000000000000        0xe /opt/microchip/xc32/v4.60/bin/bin/../../lib/gcc/pic32mx/8.3.1/../../../../pic32mx/lib/libc-musl.a(__fmt_s.o)
 .note.GNU-stack
                0x0000000000000000        0x0 /opt/microchip/xc32/v4.60/bin/bin/../../lib/gcc/pic32mx/8.3.1/../../../../pic32mx/lib/libc-musl.a(__fmt_s.o)
 .text          0x0000000000000000        0x0 /opt/microchip/xc32/v4.60/bin/bin/../../lib/gcc/pic32mx/8.3.1/../../../../pic32mx/lib/libc-musl.a(__fmt_u.o)
 .data          0x0000000000000000        0x0 /opt/microchip/xc32/v4.60/bin/bin/../../lib/gcc/pic32mx/8.3.1/../../../../pic32mx/lib/libc-musl.a(__fmt_u.o)
 .bss           0x0000000000000000        0x0 /opt/microchip/xc32/v4.60/bin/bin/../../lib/gcc/pic32mx/8.3.1/../../../../pic32mx/lib/libc-musl.a(__fmt_u.o)
 .reginfo       0x0000000000000000       0x18 /opt/microchip/xc32/v4.60/bin/bin/../../lib/gcc/pic32mx/8.3.1/../../../../pic32mx/lib/libc-musl.a(__fmt_u.o)
 .MIPS.abiflags
                0x0000000000000000       0x18 /opt/microchip/xc32/v4.60/bin/bin/../../lib/gcc/pic32mx/8.3.1/../../../../pic32mx/lib/libc-musl.a(__fmt_u.o)
 .xc_stack_usage
                0x0000000000000000       0x15 /opt/microchip/xc32/v4.60/bin/bin/../../lib/gcc/pic32mx/8.3.1/../../../../pic32mx/lib/libc-musl.a(__fmt_u.o)
 .xc_stack_usage.hdr
                0x0000000000000000        0xe /opt/microchip/xc32/v4.60/bin/bin/../../lib/gcc/pic32mx/8.3.1/../../../../pic32mx/lib/libc-musl.a(__fmt_u.o)
 .note.GNU-stack
                0x0000000000000000        0x0 /opt/microchip/xc32/v4.60/bin/bin/../../lib/gcc/pic32mx/8.3.1/../../../../pic32mx/lib/libc-musl.a(__fmt_u.o)
 .text          0x0000000000000000        0x0 /opt/microchip/xc32/v4.60/bin/bin/../../lib/gcc/pic32mx/8.3.1/../../../../pic32mx/lib/libc-musl.a(__fmt_x.o)
 .data          0x0000000000000000        0x0 /opt/microchip/xc32/v4.60/bin/bin/../../lib/gcc/pic32mx/8.3.1/../../../../pic32mx/lib/libc-musl.a(__fmt_x.o)
 .bss           0x0000000000000000        0x0 /opt/microchip/xc32/v4.60/bin/bin/../../lib/gcc/pic32mx/8.3.1/../../../../pic32mx/lib/libc-musl.a(__fmt_x.o)
 .reginfo       0x0000000000000000       0x18 /opt/microchip/xc32/v4.60/bin/bin/../../lib/gcc/pic32mx/8.3.1/../../../../pic32mx/lib/libc-musl.a(__fmt_x.o)
 .MIPS.abiflags
                0x0000000000000000       0x18 /opt/microchip/xc32/v4.60/bin/bin/../../lib/gcc/pic32mx/8.3.1/../../../../pic32mx/lib/libc-musl.a(__fmt_x.o)
 .xc_stack_usage
                0x0000000000000000       0x15 /opt/microchip/xc32/v4.60/bin/bin/../../lib/gcc/pic32mx/8.3.1/../../../../pic32mx/lib/libc-musl.a(__fmt_x.o)
 .xc_stack_usage.hdr
                0x0000000000000000        0xe /opt/microchip/xc32/v4.60/bin/bin/../../lib/gcc/pic32mx/8.3.1/../../../../pic32mx/lib/libc-musl.a(__fmt_x.o)
 .note.GNU-stack
                0x0000000000000000        0x0 /opt/microchip/xc32/v4.60/bin/bin/../../lib/gcc/pic32mx/8.3.1/../../../../pic32mx/lib/libc-musl.a(__fmt_x.o)
 .text          0x0000000000000000        0x0 /opt/microchip/xc32/v4.60/bin/bin/../../lib/gcc/pic32mx/8.3.1/../../../../pic32mx/lib/libc-musl.a(__fopen.o)
 .data          0x0000000000000000        0x0 /opt/microchip/xc32/v4.60/bin/bin/../../lib/gcc/pic32mx/8.3.1/../../../../pic32mx/lib/libc-musl.a(__fopen.o)
 .bss           0x0000000000000000        0x0 /opt/microchip/xc32/v4.60/bin/bin/../../lib/gcc/pic32mx/8.3.1/../../../../pic32mx/lib/libc-musl.a(__fopen.o)
 .reginfo       0x0000000000000000       0x18 /opt/microchip/xc32/v4.60/bin/bin/../../lib/gcc/pic32mx/8.3.1/../../../../pic32mx/lib/libc-musl.a(__fopen.o)
 .MIPS.abiflags
                0x0000000000000000       0x18 /opt/microchip/xc32/v4.60/bin/bin/../../lib/gcc/pic32mx/8.3.1/../../../../pic32mx/lib/libc-musl.a(__fopen.o)
 .xc_stack_usage
                0x0000000000000000       0x43 /opt/microchip/xc32/v4.60/bin/bin/../../lib/gcc/pic32mx/8.3.1/../../../../pic32mx/lib/libc-musl.a(__fopen.o)
 .text.__dummy  0x0000000000000000        0x8 /opt/microchip/xc32/v4.60/bin/bin/../../lib/gcc/pic32mx/8.3.1/../../../../pic32mx/lib/libc-musl.a(__fopen.o)
 .text.__fopen_std
                0x0000000000000000       0x60 /opt/microchip/xc32/v4.60/bin/bin/../../lib/gcc/pic32mx/8.3.1/../../../../pic32mx/lib/libc-musl.a(__fopen.o)
 .text.__fopen  0x0000000000000000       0x1c /opt/microchip/xc32/v4.60/bin/bin/../../lib/gcc/pic32mx/8.3.1/../../../../pic32mx/lib/libc-musl.a(__fopen.o)
 .xc_stack_usage.hdr
                0x0000000000000000        0xe /opt/microchip/xc32/v4.60/bin/bin/../../lib/gcc/pic32mx/8.3.1/../../../../pic32mx/lib/libc-musl.a(__fopen.o)
 .note.GNU-stack
                0x0000000000000000        0x0 /opt/microchip/xc32/v4.60/bin/bin/../../lib/gcc/pic32mx/8.3.1/../../../../pic32mx/lib/libc-musl.a(__fopen.o)
 .text          0x0000000000000000        0x0 /opt/microchip/xc32/v4.60/bin/bin/../../lib/gcc/pic32mx/8.3.1/../../../../pic32mx/lib/libc-musl.a(__fseeko.o)
 .data          0x0000000000000000        0x0 /opt/microchip/xc32/v4.60/bin/bin/../../lib/gcc/pic32mx/8.3.1/../../../../pic32mx/lib/libc-musl.a(__fseeko.o)
 .bss           0x0000000000000000        0x0 /opt/microchip/xc32/v4.60/bin/bin/../../lib/gcc/pic32mx/8.3.1/../../../../pic32mx/lib/libc-musl.a(__fseeko.o)
 .reginfo       0x0000000000000000       0x18 /opt/microchip/xc32/v4.60/bin/bin/../../lib/gcc/pic32mx/8.3.1/../../../../pic32mx/lib/libc-musl.a(__fseeko.o)
 .MIPS.abiflags
                0x0000000000000000       0x18 /opt/microchip/xc32/v4.60/bin/bin/../../lib/gcc/pic32mx/8.3.1/../../../../pic32mx/lib/libc-musl.a(__fseeko.o)
 .xc_stack_usage
                0x0000000000000000       0x16 /opt/microchip/xc32/v4.60/bin/bin/../../lib/gcc/pic32mx/8.3.1/../../../../pic32mx/lib/libc-musl.a(__fseeko.o)
 .text.__fseeko
                0x0000000000000000       0x20 /opt/microchip/xc32/v4.60/bin/bin/../../lib/gcc/pic32mx/8.3.1/../../../../pic32mx/lib/libc-musl.a(__fseeko.o)
 .xc_stack_usage.hdr
                0x0000000000000000        0xe /opt/microchip/xc32/v4.60/bin/bin/../../lib/gcc/pic32mx/8.3.1/../../../../pic32mx/lib/libc-musl.a(__fseeko.o)
 .note.GNU-stack
                0x0000000000000000        0x0 /opt/microchip/xc32/v4.60/bin/bin/../../lib/gcc/pic32mx/8.3.1/../../../../pic32mx/lib/libc-musl.a(__fseeko.o)
 .text          0x0000000000000000        0x0 /opt/microchip/xc32/v4.60/bin/bin/../../lib/gcc/pic32mx/8.3.1/../../../../pic32mx/lib/libc-musl.a(__ftello.o)
 .data          0x0000000000000000        0x0 /opt/microchip/xc32/v4.60/bin/bin/../../lib/gcc/pic32mx/8.3.1/../../../../pic32mx/lib/libc-musl.a(__ftello.o)
 .bss           0x0000000000000000        0x0 /opt/microchip/xc32/v4.60/bin/bin/../../lib/gcc/pic32mx/8.3.1/../../../../pic32mx/lib/libc-musl.a(__ftello.o)
 .reginfo       0x0000000000000000       0x18 /opt/microchip/xc32/v4.60/bin/bin/../../lib/gcc/pic32mx/8.3.1/../../../../pic32mx/lib/libc-musl.a(__ftello.o)
 .MIPS.abiflags
                0x0000000000000000       0x18 /opt/microchip/xc32/v4.60/bin/bin/../../lib/gcc/pic32mx/8.3.1/../../../../pic32mx/lib/libc-musl.a(__ftello.o)
 .xc_stack_usage
                0x0000000000000000       0x2f /opt/microchip/xc32/v4.60/bin/bin/../../lib/gcc/pic32mx/8.3.1/../../../../pic32mx/lib/libc-musl.a(__ftello.o)
 .text.__dummy  0x0000000000000000       0x2c /opt/microchip/xc32/v4.60/bin/bin/../../lib/gcc/pic32mx/8.3.1/../../../../pic32mx/lib/libc-musl.a(__ftello.o)
 .text.__ftello_adj
                0x0000000000000000       0x1c /opt/microchip/xc32/v4.60/bin/bin/../../lib/gcc/pic32mx/8.3.1/../../../../pic32mx/lib/libc-musl.a(__ftello.o)
 .xc_stack_usage.hdr
                0x0000000000000000        0xe /opt/microchip/xc32/v4.60/bin/bin/../../lib/gcc/pic32mx/8.3.1/../../../../pic32mx/lib/libc-musl.a(__ftello.o)
 .note.GNU-stack
                0x0000000000000000        0x0 /opt/microchip/xc32/v4.60/bin/bin/../../lib/gcc/pic32mx/8.3.1/../../../../pic32mx/lib/libc-musl.a(__ftello.o)
 .text          0x0000000000000000        0x0 /opt/microchip/xc32/v4.60/bin/bin/../../lib/gcc/pic32mx/8.3.1/../../../../pic32mx/lib/libc-musl.a(__fwrite.o)
 .data          0x0000000000000000        0x0 /opt/microchip/xc32/v4.60/bin/bin/../../lib/gcc/pic32mx/8.3.1/../../../../pic32mx/lib/libc-musl.a(__fwrite.o)
 .bss           0x0000000000000000        0x0 /opt/microchip/xc32/v4.60/bin/bin/../../lib/gcc/pic32mx/8.3.1/../../../../pic32mx/lib/libc-musl.a(__fwrite.o)
 .reginfo       0x0000000000000000       0x18 /opt/microchip/xc32/v4.60/bin/bin/../../lib/gcc/pic32mx/8.3.1/../../../../pic32mx/lib/libc-musl.a(__fwrite.o)
 .MIPS.abiflags
                0x0000000000000000       0x18 /opt/microchip/xc32/v4.60/bin/bin/../../lib/gcc/pic32mx/8.3.1/../../../../pic32mx/lib/libc-musl.a(__fwrite.o)
 .xc_stack_usage
                0x0000000000000000       0x36 /opt/microchip/xc32/v4.60/bin/bin/../../lib/gcc/pic32mx/8.3.1/../../../../pic32mx/lib/libc-musl.a(__fwrite.o)
 .xc_stack_usage.hdr
                0x0000000000000000        0xe /opt/microchip/xc32/v4.60/bin/bin/../../lib/gcc/pic32mx/8.3.1/../../../../pic32mx/lib/libc-musl.a(__fwrite.o)
 .note.GNU-stack
                0x0000000000000000        0x0 /opt/microchip/xc32/v4.60/bin/bin/../../lib/gcc/pic32mx/8.3.1/../../../../pic32mx/lib/libc-musl.a(__fwrite.o)
 .text          0x0000000000000000        0x0 /opt/microchip/xc32/v4.60/bin/bin/../../lib/gcc/pic32mx/8.3.1/../../../../pic32mx/lib/libc-musl.a(__cvt_u.o)
 .data          0x0000000000000000        0x0 /opt/microchip/xc32/v4.60/bin/bin/../../lib/gcc/pic32mx/8.3.1/../../../../pic32mx/lib/libc-musl.a(__cvt_u.o)
 .bss           0x0000000000000000        0x0 /opt/microchip/xc32/v4.60/bin/bin/../../lib/gcc/pic32mx/8.3.1/../../../../pic32mx/lib/libc-musl.a(__cvt_u.o)
 .reginfo       0x0000000000000000       0x18 /opt/microchip/xc32/v4.60/bin/bin/../../lib/gcc/pic32mx/8.3.1/../../../../pic32mx/lib/libc-musl.a(__cvt_u.o)
 .MIPS.abiflags
                0x0000000000000000       0x18 /opt/microchip/xc32/v4.60/bin/bin/../../lib/gcc/pic32mx/8.3.1/../../../../pic32mx/lib/libc-musl.a(__cvt_u.o)
 .xc_stack_usage
                0x0000000000000000       0x15 /opt/microchip/xc32/v4.60/bin/bin/../../lib/gcc/pic32mx/8.3.1/../../../../pic32mx/lib/libc-musl.a(__cvt_u.o)
 .xc_stack_usage.hdr
                0x0000000000000000        0xe /opt/microchip/xc32/v4.60/bin/bin/../../lib/gcc/pic32mx/8.3.1/../../../../pic32mx/lib/libc-musl.a(__cvt_u.o)
 .note.GNU-stack
                0x0000000000000000        0x0 /opt/microchip/xc32/v4.60/bin/bin/../../lib/gcc/pic32mx/8.3.1/../../../../pic32mx/lib/libc-musl.a(__cvt_u.o)
 .data          0x0000000000000000        0x0 /opt/microchip/xc32/v4.60/bin/bin/../../lib/gcc/pic32mx/8.3.1/../../../../pic32mx/lib/libm.a(floor32.o)
 .bss           0x0000000000000000        0x0 /opt/microchip/xc32/v4.60/bin/bin/../../lib/gcc/pic32mx/8.3.1/../../../../pic32mx/lib/libm.a(floor32.o)
 .reginfo       0x0000000000000000       0x18 /opt/microchip/xc32/v4.60/bin/bin/../../lib/gcc/pic32mx/8.3.1/../../../../pic32mx/lib/libm.a(floor32.o)
 .MIPS.abiflags
                0x0000000000000000       0x18 /opt/microchip/xc32/v4.60/bin/bin/../../lib/gcc/pic32mx/8.3.1/../../../../pic32mx/lib/libm.a(floor32.o)
 .text          0x0000000000000000        0x0 /opt/microchip/xc32/v4.60/bin/bin/../../lib/gcc/pic32mx/8.3.1/../../../../pic32mx/lib/libm.a(dp32div.o)
 .data          0x0000000000000000        0x0 /opt/microchip/xc32/v4.60/bin/bin/../../lib/gcc/pic32mx/8.3.1/../../../../pic32mx/lib/libm.a(dp32div.o)
 .bss           0x0000000000000000        0x0 /opt/microchip/xc32/v4.60/bin/bin/../../lib/gcc/pic32mx/8.3.1/../../../../pic32mx/lib/libm.a(dp32div.o)
 .reginfo       0x0000000000000000       0x18 /opt/microchip/xc32/v4.60/bin/bin/../../lib/gcc/pic32mx/8.3.1/../../../../pic32mx/lib/libm.a(dp32div.o)
 .MIPS.abiflags
                0x0000000000000000       0x18 /opt/microchip/xc32/v4.60/bin/bin/../../lib/gcc/pic32mx/8.3.1/../../../../pic32mx/lib/libm.a(dp32div.o)
 .text          0x0000000000000000        0x0 /opt/microchip/xc32/v4.60/bin/bin/../../lib/gcc/pic32mx/8.3.1/../../../../pic32mx/lib/libm.a(dp32mul.o)
 .data          0x0000000000000000        0x0 /opt/microchip/xc32/v4.60/bin/bin/../../lib/gcc/pic32mx/8.3.1/../../../../pic32mx/lib/libm.a(dp32mul.o)
 .bss           0x0000000000000000        0x0 /opt/microchip/xc32/v4.60/bin/bin/../../lib/gcc/pic32mx/8.3.1/../../../../pic32mx/lib/libm.a(dp32mul.o)
 .reginfo       0x0000000000000000       0x18 /opt/microchip/xc32/v4.60/bin/bin/../../lib/gcc/pic32mx/8.3.1/../../../../pic32mx/lib/libm.a(dp32mul.o)
 .MIPS.abiflags
                0x0000000000000000       0x18 /opt/microchip/xc32/v4.60/bin/bin/../../lib/gcc/pic32mx/8.3.1/../../../../pic32mx/lib/libm.a(dp32mul.o)
 .text          0x0000000000000000        0x0 /opt/microchip/xc32/v4.60/bin/bin/../../lib/gcc/pic32mx/8.3.1/../../../../pic32mx/lib/libm.a(dp32subadd.o)
 .data          0x0000000000000000        0x0 /opt/microchip/xc32/v4.60/bin/bin/../../lib/gcc/pic32mx/8.3.1/../../../../pic32mx/lib/libm.a(dp32subadd.o)
 .bss           0x0000000000000000        0x0 /opt/microchip/xc32/v4.60/bin/bin/../../lib/gcc/pic32mx/8.3.1/../../../../pic32mx/lib/libm.a(dp32subadd.o)
 .reginfo       0x0000000000000000       0x18 /opt/microchip/xc32/v4.60/bin/bin/../../lib/gcc/pic32mx/8.3.1/../../../../pic32mx/lib/libm.a(dp32subadd.o)
 .MIPS.abiflags
                0x0000000000000000       0x18 /opt/microchip/xc32/v4.60/bin/bin/../../lib/gcc/pic32mx/8.3.1/../../../../pic32mx/lib/libm.a(dp32subadd.o)
 .text          0x0000000000000000        0x0 /opt/microchip/xc32/v4.60/bin/bin/../../lib/gcc/pic32mx/8.3.1/../../../../pic32mx/lib/libm.a(dpcmp.o)
 .data          0x0000000000000000        0x0 /opt/microchip/xc32/v4.60/bin/bin/../../lib/gcc/pic32mx/8.3.1/../../../../pic32mx/lib/libm.a(dpcmp.o)
 .bss           0x0000000000000000        0x0 /opt/microchip/xc32/v4.60/bin/bin/../../lib/gcc/pic32mx/8.3.1/../../../../pic32mx/lib/libm.a(dpcmp.o)
 .reginfo       0x0000000000000000       0x18 /opt/microchip/xc32/v4.60/bin/bin/../../lib/gcc/pic32mx/8.3.1/../../../../pic32mx/lib/libm.a(dpcmp.o)
 .MIPS.abiflags
                0x0000000000000000       0x18 /opt/microchip/xc32/v4.60/bin/bin/../../lib/gcc/pic32mx/8.3.1/../../../../pic32mx/lib/libm.a(dpcmp.o)
 .text          0x0000000000000000        0x0 /opt/microchip/xc32/v4.60/bin/bin/../../lib/gcc/pic32mx/8.3.1/../../../../pic32mx/lib/libm.a(dpcmplt.o)
 .data          0x0000000000000000        0x0 /opt/microchip/xc32/v4.60/bin/bin/../../lib/gcc/pic32mx/8.3.1/../../../../pic32mx/lib/libm.a(dpcmplt.o)
 .bss           0x0000000000000000        0x0 /opt/microchip/xc32/v4.60/bin/bin/../../lib/gcc/pic32mx/8.3.1/../../../../pic32mx/lib/libm.a(dpcmplt.o)
 .reginfo       0x0000000000000000       0x18 /opt/microchip/xc32/v4.60/bin/bin/../../lib/gcc/pic32mx/8.3.1/../../../../pic32mx/lib/libm.a(dpcmplt.o)
 .MIPS.abiflags
                0x0000000000000000       0x18 /opt/microchip/xc32/v4.60/bin/bin/../../lib/gcc/pic32mx/8.3.1/../../../../pic32mx/lib/libm.a(dpcmplt.o)
 .xc_stack_usage.hdr
                0x0000000000000000        0xe /opt/microchip/xc32/v4.60/bin/bin/../../lib/gcc/pic32mx/8.3.1/../../../../pic32mx/lib/libm.a(dpcmplt.o)
 .xc_stack_usage
                0x0000000000000000       0x15 /opt/microchip/xc32/v4.60/bin/bin/../../lib/gcc/pic32mx/8.3.1/../../../../pic32mx/lib/libm.a(dpcmplt.o)
 .text          0x0000000000000000        0x0 /opt/microchip/xc32/v4.60/bin/bin/../../lib/gcc/pic32mx/8.3.1/../../../../pic32mx/lib/libm.a(dptoli.o)
 .data          0x0000000000000000        0x0 /opt/microchip/xc32/v4.60/bin/bin/../../lib/gcc/pic32mx/8.3.1/../../../../pic32mx/lib/libm.a(dptoli.o)
 .bss           0x0000000000000000        0x0 /opt/microchip/xc32/v4.60/bin/bin/../../lib/gcc/pic32mx/8.3.1/../../../../pic32mx/lib/libm.a(dptoli.o)
 .reginfo       0x0000000000000000       0x18 /opt/microchip/xc32/v4.60/bin/bin/../../lib/gcc/pic32mx/8.3.1/../../../../pic32mx/lib/libm.a(dptoli.o)
 .MIPS.abiflags
                0x0000000000000000       0x18 /opt/microchip/xc32/v4.60/bin/bin/../../lib/gcc/pic32mx/8.3.1/../../../../pic32mx/lib/libm.a(dptoli.o)
 .text          0x0000000000000000        0x0 /opt/microchip/xc32/v4.60/bin/bin/../../lib/gcc/pic32mx/8.3.1/../../../../pic32mx/lib/libm-musl.a(fma.o)
 .data          0x0000000000000000        0x0 /opt/microchip/xc32/v4.60/bin/bin/../../lib/gcc/pic32mx/8.3.1/../../../../pic32mx/lib/libm-musl.a(fma.o)
 .bss           0x0000000000000000        0x0 /opt/microchip/xc32/v4.60/bin/bin/../../lib/gcc/pic32mx/8.3.1/../../../../pic32mx/lib/libm-musl.a(fma.o)
 .reginfo       0x0000000000000000       0x18 /opt/microchip/xc32/v4.60/bin/bin/../../lib/gcc/pic32mx/8.3.1/../../../../pic32mx/lib/libm-musl.a(fma.o)
 .MIPS.abiflags
                0x0000000000000000       0x18 /opt/microchip/xc32/v4.60/bin/bin/../../lib/gcc/pic32mx/8.3.1/../../../../pic32mx/lib/libm-musl.a(fma.o)
 .xc_stack_usage
                0x0000000000000000       0x3e /opt/microchip/xc32/v4.60/bin/bin/../../lib/gcc/pic32mx/8.3.1/../../../../pic32mx/lib/libm-musl.a(fma.o)
 .xc_stack_usage.hdr
                0x0000000000000000        0xe /opt/microchip/xc32/v4.60/bin/bin/../../lib/gcc/pic32mx/8.3.1/../../../../pic32mx/lib/libm-musl.a(fma.o)
 .note.GNU-stack
                0x0000000000000000        0x0 /opt/microchip/xc32/v4.60/bin/bin/../../lib/gcc/pic32mx/8.3.1/../../../../pic32mx/lib/libm-musl.a(fma.o)
 .text          0x0000000000000000        0x0 /opt/microchip/xc32/v4.60/bin/bin/../../lib/gcc/pic32mx/8.3.1/../../../../pic32mx/lib/libm-musl.a(scalbn.o)
 .data          0x0000000000000000        0x0 /opt/microchip/xc32/v4.60/bin/bin/../../lib/gcc/pic32mx/8.3.1/../../../../pic32mx/lib/libm-musl.a(scalbn.o)
 .bss           0x0000000000000000        0x0 /opt/microchip/xc32/v4.60/bin/bin/../../lib/gcc/pic32mx/8.3.1/../../../../pic32mx/lib/libm-musl.a(scalbn.o)
 .reginfo       0x0000000000000000       0x18 /opt/microchip/xc32/v4.60/bin/bin/../../lib/gcc/pic32mx/8.3.1/../../../../pic32mx/lib/libm-musl.a(scalbn.o)
 .MIPS.abiflags
                0x0000000000000000       0x18 /opt/microchip/xc32/v4.60/bin/bin/../../lib/gcc/pic32mx/8.3.1/../../../../pic32mx/lib/libm-musl.a(scalbn.o)
 .xc_stack_usage
                0x0000000000000000       0x14 /opt/microchip/xc32/v4.60/bin/bin/../../lib/gcc/pic32mx/8.3.1/../../../../pic32mx/lib/libm-musl.a(scalbn.o)
 .xc_stack_usage.hdr
                0x0000000000000000        0xe /opt/microchip/xc32/v4.60/bin/bin/../../lib/gcc/pic32mx/8.3.1/../../../../pic32mx/lib/libm-musl.a(scalbn.o)
 .note.GNU-stack
                0x0000000000000000        0x0 /opt/microchip/xc32/v4.60/bin/bin/../../lib/gcc/pic32mx/8.3.1/../../../../pic32mx/lib/libm-musl.a(scalbn.o)
 .text          0x0000000000000000        0x0 /opt/microchip/xc32/v4.60/bin/bin/../../lib/gcc/pic32mx/8.3.1/../../../../pic32mx/lib/libpic32.a(sbrk.o)
 .data          0x0000000000000000        0x0 /opt/microchip/xc32/v4.60/bin/bin/../../lib/gcc/pic32mx/8.3.1/../../../../pic32mx/lib/libpic32.a(sbrk.o)
 .reginfo       0x0000000000000000       0x18 /opt/microchip/xc32/v4.60/bin/bin/../../lib/gcc/pic32mx/8.3.1/../../../../pic32mx/lib/libpic32.a(sbrk.o)
 .MIPS.abiflags
                0x0000000000000000       0x18 /opt/microchip/xc32/v4.60/bin/bin/../../lib/gcc/pic32mx/8.3.1/../../../../pic32mx/lib/libpic32.a(sbrk.o)
 .xc_stack_usage
                0x0000000000000000       0x87 /opt/microchip/xc32/v4.60/bin/bin/../../lib/gcc/pic32mx/8.3.1/../../../../pic32mx/lib/libpic32.a(sbrk.o)
 .text.getpagesize
                0x0000000000000000        0x8 /opt/microchip/xc32/v4.60/bin/bin/../../lib/gcc/pic32mx/8.3.1/../../../../pic32mx/lib/libpic32.a(sbrk.o)
 .xc_stack_usage.hdr
                0x0000000000000000        0xe /opt/microchip/xc32/v4.60/bin/bin/../../lib/gcc/pic32mx/8.3.1/../../../../pic32mx/lib/libpic32.a(sbrk.o)
 .text          0x0000000000000000        0x0 /opt/microchip/xc32/v4.60/bin/bin/../../lib/gcc/pic32mx/8.3.1/../../../../pic32mx/lib/libpic32.a(lseek.o)
 .data          0x0000000000000000        0x0 /opt/microchip/xc32/v4.60/bin/bin/../../lib/gcc/pic32mx/8.3.1/../../../../pic32mx/lib/libpic32.a(lseek.o)
 .bss           0x0000000000000000        0x0 /opt/microchip/xc32/v4.60/bin/bin/../../lib/gcc/pic32mx/8.3.1/../../../../pic32mx/lib/libpic32.a(lseek.o)
 .reginfo       0x0000000000000000       0x18 /opt/microchip/xc32/v4.60/bin/bin/../../lib/gcc/pic32mx/8.3.1/../../../../pic32mx/lib/libpic32.a(lseek.o)
 .MIPS.abiflags
                0x0000000000000000       0x18 /opt/microchip/xc32/v4.60/bin/bin/../../lib/gcc/pic32mx/8.3.1/../../../../pic32mx/lib/libpic32.a(lseek.o)
 .xc_stack_usage
                0x0000000000000000       0x13 /opt/microchip/xc32/v4.60/bin/bin/../../lib/gcc/pic32mx/8.3.1/../../../../pic32mx/lib/libpic32.a(lseek.o)
 .xc_stack_usage.hdr
                0x0000000000000000        0xe /opt/microchip/xc32/v4.60/bin/bin/../../lib/gcc/pic32mx/8.3.1/../../../../pic32mx/lib/libpic32.a(lseek.o)
 .text          0x0000000000000000        0x0 /opt/microchip/xc32/v4.60/bin/bin/../../lib/gcc/pic32mx/8.3.1/../../../../pic32mx/lib/libpic32.a(close.o)
 .data          0x0000000000000000        0x0 /opt/microchip/xc32/v4.60/bin/bin/../../lib/gcc/pic32mx/8.3.1/../../../../pic32mx/lib/libpic32.a(close.o)
 .bss           0x0000000000000000        0x0 /opt/microchip/xc32/v4.60/bin/bin/../../lib/gcc/pic32mx/8.3.1/../../../../pic32mx/lib/libpic32.a(close.o)
 .reginfo       0x0000000000000000       0x18 /opt/microchip/xc32/v4.60/bin/bin/../../lib/gcc/pic32mx/8.3.1/../../../../pic32mx/lib/libpic32.a(close.o)
 .MIPS.abiflags
                0x0000000000000000       0x18 /opt/microchip/xc32/v4.60/bin/bin/../../lib/gcc/pic32mx/8.3.1/../../../../pic32mx/lib/libpic32.a(close.o)
 .xc_stack_usage
                0x0000000000000000       0x13 /opt/microchip/xc32/v4.60/bin/bin/../../lib/gcc/pic32mx/8.3.1/../../../../pic32mx/lib/libpic32.a(close.o)
 .xc_stack_usage.hdr
                0x0000000000000000        0xe /opt/microchip/xc32/v4.60/bin/bin/../../lib/gcc/pic32mx/8.3.1/../../../../pic32mx/lib/libpic32.a(close.o)
 .text          0x0000000000000000        0x0 /opt/microchip/xc32/v4.60/bin/bin/../../lib/gcc/pic32mx/8.3.1/../../../../pic32mx/lib/libm.a(dptofp.o)
 .data          0x0000000000000000        0x0 /opt/microchip/xc32/v4.60/bin/bin/../../lib/gcc/pic32mx/8.3.1/../../../../pic32mx/lib/libm.a(dptofp.o)
 .bss           0x0000000000000000        0x0 /opt/microchip/xc32/v4.60/bin/bin/../../lib/gcc/pic32mx/8.3.1/../../../../pic32mx/lib/libm.a(dptofp.o)
 .reginfo       0x0000000000000000       0x18 /opt/microchip/xc32/v4.60/bin/bin/../../lib/gcc/pic32mx/8.3.1/../../../../pic32mx/lib/libm.a(dptofp.o)
 .MIPS.abiflags
                0x0000000000000000       0x18 /opt/microchip/xc32/v4.60/bin/bin/../../lib/gcc/pic32mx/8.3.1/../../../../pic32mx/lib/libm.a(dptofp.o)
 .text          0x0000000000000000        0x0 /opt/microchip/xc32/v4.60/bin/bin/../../lib/gcc/pic32mx/8.3.1/../../../../pic32mx/lib/libm.a(fptodp.o)
 .data          0x0000000000000000        0x0 /opt/microchip/xc32/v4.60/bin/bin/../../lib/gcc/pic32mx/8.3.1/../../../../pic32mx/lib/libm.a(fptodp.o)
 .bss           0x0000000000000000        0x0 /opt/microchip/xc32/v4.60/bin/bin/../../lib/gcc/pic32mx/8.3.1/../../../../pic32mx/lib/libm.a(fptodp.o)
 .reginfo       0x0000000000000000       0x18 /opt/microchip/xc32/v4.60/bin/bin/../../lib/gcc/pic32mx/8.3.1/../../../../pic32mx/lib/libm.a(fptodp.o)
 .MIPS.abiflags
                0x0000000000000000       0x18 /opt/microchip/xc32/v4.60/bin/bin/../../lib/gcc/pic32mx/8.3.1/../../../../pic32mx/lib/libm.a(fptodp.o)
 .text          0x0000000000000000        0x0 /opt/microchip/xc32/v4.60/bin/bin/../../lib/gcc/pic32mx/8.3.1/../../../../pic32mx/lib/libe.a(_floatdidf.o)
 .data          0x0000000000000000        0x0 /opt/microchip/xc32/v4.60/bin/bin/../../lib/gcc/pic32mx/8.3.1/../../../../pic32mx/lib/libe.a(_floatdidf.o)
 .bss           0x0000000000000000        0x0 /opt/microchip/xc32/v4.60/bin/bin/../../lib/gcc/pic32mx/8.3.1/../../../../pic32mx/lib/libe.a(_floatdidf.o)
 .reginfo       0x0000000000000000       0x18 /opt/microchip/xc32/v4.60/bin/bin/../../lib/gcc/pic32mx/8.3.1/../../../../pic32mx/lib/libe.a(_floatdidf.o)
 .MIPS.abiflags
                0x0000000000000000       0x18 /opt/microchip/xc32/v4.60/bin/bin/../../lib/gcc/pic32mx/8.3.1/../../../../pic32mx/lib/libe.a(_floatdidf.o)
 .xc_stack_usage
                0x0000000000000000       0x19 /opt/microchip/xc32/v4.60/bin/bin/../../lib/gcc/pic32mx/8.3.1/../../../../pic32mx/lib/libe.a(_floatdidf.o)
 .xc_stack_usage.hdr
                0x0000000000000000        0xe /opt/microchip/xc32/v4.60/bin/bin/../../lib/gcc/pic32mx/8.3.1/../../../../pic32mx/lib/libe.a(_floatdidf.o)
 .data          0x0000000000000000        0x0 /opt/microchip/xc32/v4.60/bin/bin/../../lib/gcc/pic32mx/8.3.1/libgcc.a(_lshrdi3.o)
 .bss           0x0000000000000000        0x0 /opt/microchip/xc32/v4.60/bin/bin/../../lib/gcc/pic32mx/8.3.1/libgcc.a(_lshrdi3.o)
 .reginfo       0x0000000000000000       0x18 /opt/microchip/xc32/v4.60/bin/bin/../../lib/gcc/pic32mx/8.3.1/libgcc.a(_lshrdi3.o)
 .MIPS.abiflags
                0x0000000000000000       0x18 /opt/microchip/xc32/v4.60/bin/bin/../../lib/gcc/pic32mx/8.3.1/libgcc.a(_lshrdi3.o)
 .xc_stack_usage
                0x0000000000000000       0x17 /opt/microchip/xc32/v4.60/bin/bin/../../lib/gcc/pic32mx/8.3.1/libgcc.a(_lshrdi3.o)
 .xc_stack_usage.hdr
                0x0000000000000000        0xe /opt/microchip/xc32/v4.60/bin/bin/../../lib/gcc/pic32mx/8.3.1/libgcc.a(_lshrdi3.o)
 .data          0x0000000000000000        0x0 /opt/microchip/xc32/v4.60/bin/bin/../../lib/gcc/pic32mx/8.3.1/libgcc.a(_ashldi3.o)
 .bss           0x0000000000000000        0x0 /opt/microchip/xc32/v4.60/bin/bin/../../lib/gcc/pic32mx/8.3.1/libgcc.a(_ashldi3.o)
 .reginfo       0x0000000000000000       0x18 /opt/microchip/xc32/v4.60/bin/bin/../../lib/gcc/pic32mx/8.3.1/libgcc.a(_ashldi3.o)
 .MIPS.abiflags
                0x0000000000000000       0x18 /opt/microchip/xc32/v4.60/bin/bin/../../lib/gcc/pic32mx/8.3.1/libgcc.a(_ashldi3.o)
 .xc_stack_usage
                0x0000000000000000       0x17 /opt/microchip/xc32/v4.60/bin/bin/../../lib/gcc/pic32mx/8.3.1/libgcc.a(_ashldi3.o)
 .xc_stack_usage.hdr
                0x0000000000000000        0xe /opt/microchip/xc32/v4.60/bin/bin/../../lib/gcc/pic32mx/8.3.1/libgcc.a(_ashldi3.o)
 .data          0x0000000000000000        0x0 /opt/microchip/xc32/v4.60/bin/bin/../../lib/gcc/pic32mx/8.3.1/libgcc.a(_umoddi3.o)
 .bss           0x0000000000000000        0x0 /opt/microchip/xc32/v4.60/bin/bin/../../lib/gcc/pic32mx/8.3.1/libgcc.a(_umoddi3.o)
 .reginfo       0x0000000000000000       0x18 /opt/microchip/xc32/v4.60/bin/bin/../../lib/gcc/pic32mx/8.3.1/libgcc.a(_umoddi3.o)
 .MIPS.abiflags
                0x0000000000000000       0x18 /opt/microchip/xc32/v4.60/bin/bin/../../lib/gcc/pic32mx/8.3.1/libgcc.a(_umoddi3.o)
 .xc_stack_usage
                0x0000000000000000       0x17 /opt/microchip/xc32/v4.60/bin/bin/../../lib/gcc/pic32mx/8.3.1/libgcc.a(_umoddi3.o)
 .xc_stack_usage.hdr
                0x0000000000000000        0xe /opt/microchip/xc32/v4.60/bin/bin/../../lib/gcc/pic32mx/8.3.1/libgcc.a(_umoddi3.o)
 .data          0x0000000000000000        0x0 /opt/microchip/xc32/v4.60/bin/bin/../../lib/gcc/pic32mx/8.3.1/../../../../pic32mx/lib/libpic32.a(pic32_data_init_clear.o)
 .bss           0x0000000000000000        0x0 /opt/microchip/xc32/v4.60/bin/bin/../../lib/gcc/pic32mx/8.3.1/../../../../pic32mx/lib/libpic32.a(pic32_data_init_clear.o)
 .reginfo       0x0000000000000000       0x18 /opt/microchip/xc32/v4.60/bin/bin/../../lib/gcc/pic32mx/8.3.1/../../../../pic32mx/lib/libpic32.a(pic32_data_init_clear.o)
 .MIPS.abiflags
                0x0000000000000000       0x18 /opt/microchip/xc32/v4.60/bin/bin/../../lib/gcc/pic32mx/8.3.1/../../../../pic32mx/lib/libpic32.a(pic32_data_init_clear.o)
 .xc_stack_usage.hdr
                0x0000000000000000        0xe /opt/microchip/xc32/v4.60/bin/bin/../../lib/gcc/pic32mx/8.3.1/../../../../pic32mx/lib/libpic32.a(pic32_data_init_clear.o)
 .xc_stack_usage
                0x0000000000000000       0x1b /opt/microchip/xc32/v4.60/bin/bin/../../lib/gcc/pic32mx/8.3.1/../../../../pic32mx/lib/libpic32.a(pic32_data_init_clear.o)
 .data          0x0000000000000000        0x0 /opt/microchip/xc32/v4.60/bin/bin/../../lib/gcc/pic32mx/8.3.1/../../../../pic32mx/lib/libpic32.a(pic32_data_init_copy.o)
 .bss           0x0000000000000000        0x0 /opt/microchip/xc32/v4.60/bin/bin/../../lib/gcc/pic32mx/8.3.1/../../../../pic32mx/lib/libpic32.a(pic32_data_init_copy.o)
 .reginfo       0x0000000000000000       0x18 /opt/microchip/xc32/v4.60/bin/bin/../../lib/gcc/pic32mx/8.3.1/../../../../pic32mx/lib/libpic32.a(pic32_data_init_copy.o)
 .MIPS.abiflags
                0x0000000000000000       0x18 /opt/microchip/xc32/v4.60/bin/bin/../../lib/gcc/pic32mx/8.3.1/../../../../pic32mx/lib/libpic32.a(pic32_data_init_copy.o)
 .xc_stack_usage.hdr
                0x0000000000000000        0xe /opt/microchip/xc32/v4.60/bin/bin/../../lib/gcc/pic32mx/8.3.1/../../../../pic32mx/lib/libpic32.a(pic32_data_init_copy.o)
 .xc_stack_usage
                0x0000000000000000       0x1a /opt/microchip/xc32/v4.60/bin/bin/../../lib/gcc/pic32mx/8.3.1/../../../../pic32mx/lib/libpic32.a(pic32_data_init_copy.o)

Memory Configuration

Name             Origin             Length             Attributes
kseg0_program_mem 0x000000009d000000 0x0000000000080000 xr
kseg0_boot_mem   0x000000009fc00490 0x0000000000000970
exception_mem    0x000000009fc01000 0x0000000000001000
kseg1_boot_mem   0x00000000bfc00000 0x0000000000000490
debug_exec_mem   0x00000000bfc02000 0x0000000000000ff0
config3          0x00000000bfc02ff0 0x0000000000000004
config2          0x00000000bfc02ff4 0x0000000000000004
config1          0x00000000bfc02ff8 0x0000000000000004
config0          0x00000000bfc02ffc 0x0000000000000004
kseg1_data_mem   0x00000000a0000000 0x0000000000020000 w !x
sfrs             0x00000000bf800000 0x0000000000100000
configsfrs       0x00000000bfc02ff0 0x0000000000000010
*default*        0x0000000000000000 0xffffffffffffffff

Linker script and memory map

LOAD /opt/microchip/xc32/v4.60/bin/bin/../../lib/gcc/pic32mx/8.3.1/../../../../pic32mx/lib/debug-exception-return.o
LOAD build/default/production/_ext/732082881/drv_eth_pic32_lib.o
LOAD build/default/production/_ext/732082881/drv_ethmac.o
LOAD build/default/production/_ext/732082881/drv_ethmac_lib.o
LOAD build/default/production/_ext/444070925/drv_ethphy.o
LOAD build/default/production/_ext/444070925/drv_extphy_lan8720.o
LOAD build/default/production/_ext/438849557/drv_miim_pic32m.o
LOAD build/default/production/_ext/438849557/drv_miim.o
LOAD build/default/production/_ext/1033058136/helpers.o
LOAD build/default/production/_ext/1033058136/dhcp.o
LOAD build/default/production/_ext/1033058136/ipv4.o
LOAD build/default/production/_ext/1033058136/tcpip_commands.o
LOAD build/default/production/_ext/1033058136/tcpip_notify.o
LOAD build/default/production/_ext/1033058136/tcpip_helpers.o
LOAD build/default/production/_ext/1033058136/tcpip_packet.o
LOAD build/default/production/_ext/1033058136/oahash.o
LOAD build/default/production/_ext/1033058136/udp.o
LOAD build/default/production/_ext/1033058136/arp.o
LOAD build/default/production/_ext/1033058136/icmp.o
LOAD build/default/production/_ext/1033058136/tcpip_heap_internal.o
LOAD build/default/production/_ext/1033058136/hash_fnv.o
LOAD build/default/production/_ext/1033058136/dns.o
LOAD build/default/production/_ext/1033058136/tcpip_helper_c32.o
LOAD build/default/production/_ext/1033058136/tcpip_heap_alloc.o
LOAD build/default/production/_ext/1033058136/tcpip_manager.o
LOAD build/default/production/_ext/1529399856/osal_freertos.o
LOAD build/default/production/_ext/60165520/plib_clk.o
LOAD build/default/production/_ext/1249264884/plib_coretimer.o
LOAD build/default/production/_ext/1865200349/plib_evic.o
LOAD build/default/production/_ext/1865254177/plib_gpio.o
LOAD build/default/production/_ext/1865657120/plib_uart2.o
LOAD build/default/production/_ext/1865657120/plib_uart1.o
LOAD build/default/production/_ext/163028504/xc32_monitor.o
LOAD build/default/production/_ext/1376093119/sys_command.o
LOAD build/default/production/_ext/1832805299/sys_console_uart.o
LOAD build/default/production/_ext/1832805299/sys_console.o
LOAD build/default/production/_ext/944882569/sys_debug.o
LOAD build/default/production/_ext/1881668453/sys_int.o
LOAD build/default/production/_ext/1000052432/sys_reset.o
LOAD build/default/production/_ext/101884895/sys_time.o
LOAD build/default/production/_ext/753841488/sys_time_h2_adapter.o
LOAD build/default/production/_ext/1171490990/initialization.o
LOAD build/default/production/_ext/1171490990/interrupts.o
LOAD build/default/production/_ext/1171490990/freertos_hooks.o
LOAD build/default/production/_ext/1171490990/interrupts_a.o
LOAD build/default/production/_ext/1171490990/exceptions.o
LOAD build/default/production/_ext/1171490990/tasks.o
LOAD build/default/production/_ext/1665200909/heap_4.o
LOAD build/default/production/_ext/951553248/port_asm.o
LOAD build/default/production/_ext/951553248/port.o
LOAD build/default/production/_ext/404212886/FreeRTOS_tasks.o
LOAD build/default/production/_ext/404212886/event_groups.o
LOAD build/default/production/_ext/404212886/list.o
LOAD build/default/production/_ext/404212886/queue.o
LOAD build/default/production/_ext/404212886/stream_buffer.o
LOAD build/default/production/_ext/404212886/timers.o
LOAD build/default/production/_ext/404212886/croutine.o
LOAD build/default/production/_ext/1360937237/main.o
LOAD build/default/production/_ext/1360937237/app.o
LOAD build/default/production/_ext/1360937237/ethernet.o
                0x0000000000000001                __MPLAB_BUILD = 0x1
                0x0000000000000400                PROVIDE (_min_stack_size = 0x400)
START GROUP
LOAD libmchp_peripheral.a
END GROUP
START GROUP
LOAD libmchp_peripheral_32MX795F512H.a
END GROUP
                0x0000000000000001                PROVIDE (_vector_spacing = 0x1)
                0x000000009fc01000                PROVIDE (_ebase_address = 0x9fc01000)
                0x00000000bfc00000                _RESET_ADDR = 0xbfc00000
                0x00000000bfc00380                _BEV_EXCPT_ADDR = 0xbfc00380
                0x00000000bfc00480                _DBG_EXCPT_ADDR = 0xbfc00480
                0x00000000bfc02000                _DBG_CODE_ADDR = 0xbfc02000
                0x0000000000000ff0                _DBG_CODE_SIZE = 0xff0
                0x000000009fc01180                _GEN_EXCPT_ADDR = (_ebase_address + 0x180)

.config_BFC02FF0
                0x00000000bfc02ff0        0x4
 *(.config_BFC02FF0)
 .config_BFC02FF0
                0x00000000bfc02ff0        0x4 build/default/production/_ext/1171490990/initialization.o
                0x00000000bfc02ff0                __config_BFC02FF0

.config_BFC02FF4
                0x00000000bfc02ff4        0x4
 *(.config_BFC02FF4)
 .config_BFC02FF4
                0x00000000bfc02ff4        0x4 build/default/production/_ext/1171490990/initialization.o
                0x00000000bfc02ff4                __config_BFC02FF4

.config_BFC02FF8
                0x00000000bfc02ff8        0x4
 *(.config_BFC02FF8)
 .config_BFC02FF8
                0x00000000bfc02ff8        0x4 build/default/production/_ext/1171490990/initialization.o
                0x00000000bfc02ff8                __config_BFC02FF8

.config_BFC02FFC
                0x00000000bfc02ffc        0x4
 *(.config_BFC02FFC)
 .config_BFC02FFC
                0x00000000bfc02ffc        0x4 build/default/production/_ext/1171490990/initialization.o
                0x00000000bfc02ffc                __config_BFC02FFC

.reset          0x00000000bfc00000      0x170
 *(.reset)
 .reset         0x00000000bfc00000        0x8 /tmp/ccncmXzQ.o
                0x00000000bfc00000                _reset
 *(.reset.startup)
 .reset.startup
                0x00000000bfc00008      0x168 /tmp/ccncmXzQ.o
                0x00000000bfc00008                _startup

.bev_excpt      0x00000000bfc00380       0x10
 *(.bev_handler)
 .bev_handler   0x00000000bfc00380       0x10 /tmp/ccncmXzQ.o

.dbg_excpt      0x00000000bfc00480        0x0
                0x00000000bfc00480                . = (. + DEFINED (_DEBUGGER)?0x8:0x0)

.dbg_code       0x00000000bfc02000        0x0
                0x00000000bfc02000                . = (. + DEFINED (_DEBUGGER)?_DBG_CODE_SIZE:0x0)

.app_excpt      0x000000009fc01180       0x10
 *(.gen_handler)
 .gen_handler   0x000000009fc01180       0x10 /tmp/ccncmXzQ.o

.vector_0       0x000000009fc01200       0x10
 *(.vector_0)
 .vector_0      0x000000009fc01200       0x10 build/default/production/_ext/1171490990/interrupts_a.o
                0x000000009fc01200                __vector_dispatch_0
                0x0000000000000001                ASSERT (((_vector_spacing == 0x0) || (SIZEOF (.vector_0) <= (_vector_spacing << 0x5))), function at exception vector 0 too large)

.vector_1       0x000000009fc01220        0x8
 *(.vector_1)
 .vector_1      0x000000009fc01220        0x8 build/default/production/_ext/951553248/port.o
                0x000000009fc01220                __vector_dispatch_1
                0x0000000000000001                ASSERT (((_vector_spacing == 0x0) || (SIZEOF (.vector_1) <= (_vector_spacing << 0x5))), function at exception vector 1 too large)

.vector_2       0x000000009fc01240        0x8
 *(.vector_2)
 .vector_2      0x000000009fc01240        0x8 /opt/microchip/xc32/v4.60/bin/bin/../../lib/gcc/pic32mx/8.3.1/../../../../pic32mx/lib/libpic32.a(vector2.o)
                0x000000009fc01240                __vector_dispatch_2
                0x0000000000000001                ASSERT (((_vector_spacing == 0x0) || (SIZEOF (.vector_2) <= (_vector_spacing << 0x5))), function at exception vector 2 too large)

.vector_3       0x000000009fc01260        0x8
 *(.vector_3)
 .vector_3      0x000000009fc01260        0x8 /opt/microchip/xc32/v4.60/bin/bin/../../lib/gcc/pic32mx/8.3.1/../../../../pic32mx/lib/libpic32.a(vector3.o)
                0x000000009fc01260                __vector_dispatch_3
                0x0000000000000001                ASSERT (((_vector_spacing == 0x0) || (SIZEOF (.vector_3) <= (_vector_spacing << 0x5))), function at exception vector 3 too large)

.vector_4       0x000000009fc01280        0x8
 *(.vector_4)
 .vector_4      0x000000009fc01280        0x8 build/default/production/_ext/951553248/port.o
                0x000000009fc01280                __vector_dispatch_4
                0x0000000000000001                ASSERT (((_vector_spacing == 0x0) || (SIZEOF (.vector_4) <= (_vector_spacing << 0x5))), function at exception vector 4 too large)

.vector_5       0x000000009fc012a0        0x8
 *(.vector_5)
 .vector_5      0x000000009fc012a0        0x8 /opt/microchip/xc32/v4.60/bin/bin/../../lib/gcc/pic32mx/8.3.1/../../../../pic32mx/lib/libpic32.a(vector5.o)
                0x000000009fc012a0                __vector_dispatch_5
                0x0000000000000001                ASSERT (((_vector_spacing == 0x0) || (SIZEOF (.vector_5) <= (_vector_spacing << 0x5))), function at exception vector 5 too large)

.vector_6       0x000000009fc012c0        0x8
 *(.vector_6)
 .vector_6      0x000000009fc012c0        0x8 /opt/microchip/xc32/v4.60/bin/bin/../../lib/gcc/pic32mx/8.3.1/../../../../pic32mx/lib/libpic32.a(vector6.o)
                0x000000009fc012c0                __vector_dispatch_6
                0x0000000000000001                ASSERT (((_vector_spacing == 0x0) || (SIZEOF (.vector_6) <= (_vector_spacing << 0x5))), function at exception vector 6 too large)

.vector_7       0x000000009fc012e0        0x8
 *(.vector_7)
 .vector_7      0x000000009fc012e0        0x8 /opt/microchip/xc32/v4.60/bin/bin/../../lib/gcc/pic32mx/8.3.1/../../../../pic32mx/lib/libpic32.a(vector7.o)
                0x000000009fc012e0                __vector_dispatch_7
                0x0000000000000001                ASSERT (((_vector_spacing == 0x0) || (SIZEOF (.vector_7) <= (_vector_spacing << 0x5))), function at exception vector 7 too large)

.vector_8       0x000000009fc01300        0x8
 *(.vector_8)
 .vector_8      0x000000009fc01300        0x8 /opt/microchip/xc32/v4.60/bin/bin/../../lib/gcc/pic32mx/8.3.1/../../../../pic32mx/lib/libpic32.a(vector8.o)
                0x000000009fc01300                __vector_dispatch_8
                0x0000000000000001                ASSERT (((_vector_spacing == 0x0) || (SIZEOF (.vector_8) <= (_vector_spacing << 0x5))), function at exception vector 8 too large)

.vector_9       0x000000009fc01320        0x8
 *(.vector_9)
 .vector_9      0x000000009fc01320        0x8 /opt/microchip/xc32/v4.60/bin/bin/../../lib/gcc/pic32mx/8.3.1/../../../../pic32mx/lib/libpic32.a(vector9.o)
                0x000000009fc01320                __vector_dispatch_9
                0x0000000000000001                ASSERT (((_vector_spacing == 0x0) || (SIZEOF (.vector_9) <= (_vector_spacing << 0x5))), function at exception vector 9 too large)

.vector_10      0x000000009fc01340        0x8
 *(.vector_10)
 .vector_10     0x000000009fc01340        0x8 /opt/microchip/xc32/v4.60/bin/bin/../../lib/gcc/pic32mx/8.3.1/../../../../pic32mx/lib/libpic32.a(vector10.o)
                0x000000009fc01340                __vector_dispatch_10
                0x0000000000000001                ASSERT (((_vector_spacing == 0x0) || (SIZEOF (.vector_10) <= (_vector_spacing << 0x5))), function at exception vector 10 too large)

.vector_11      0x000000009fc01360        0x8
 *(.vector_11)
 .vector_11     0x000000009fc01360        0x8 /opt/microchip/xc32/v4.60/bin/bin/../../lib/gcc/pic32mx/8.3.1/../../../../pic32mx/lib/libpic32.a(vector11.o)
                0x000000009fc01360                __vector_dispatch_11
                0x0000000000000001                ASSERT (((_vector_spacing == 0x0) || (SIZEOF (.vector_11) <= (_vector_spacing << 0x5))), function at exception vector 11 too large)

.vector_12      0x000000009fc01380        0x8
 *(.vector_12)
 .vector_12     0x000000009fc01380        0x8 /opt/microchip/xc32/v4.60/bin/bin/../../lib/gcc/pic32mx/8.3.1/../../../../pic32mx/lib/libpic32.a(vector12.o)
                0x000000009fc01380                __vector_dispatch_12
                0x0000000000000001                ASSERT (((_vector_spacing == 0x0) || (SIZEOF (.vector_12) <= (_vector_spacing << 0x5))), function at exception vector 12 too large)

.vector_13      0x000000009fc013a0        0x8
 *(.vector_13)
 .vector_13     0x000000009fc013a0        0x8 /opt/microchip/xc32/v4.60/bin/bin/../../lib/gcc/pic32mx/8.3.1/../../../../pic32mx/lib/libpic32.a(vector13.o)
                0x000000009fc013a0                __vector_dispatch_13
                0x0000000000000001                ASSERT (((_vector_spacing == 0x0) || (SIZEOF (.vector_13) <= (_vector_spacing << 0x5))), function at exception vector 13 too large)

.vector_14      0x000000009fc013c0        0x8
 *(.vector_14)
 .vector_14     0x000000009fc013c0        0x8 /opt/microchip/xc32/v4.60/bin/bin/../../lib/gcc/pic32mx/8.3.1/../../../../pic32mx/lib/libpic32.a(vector14.o)
                0x000000009fc013c0                __vector_dispatch_14
                0x0000000000000001                ASSERT (((_vector_spacing == 0x0) || (SIZEOF (.vector_14) <= (_vector_spacing << 0x5))), function at exception vector 14 too large)

.vector_15      0x000000009fc013e0        0x8
 *(.vector_15)
 .vector_15     0x000000009fc013e0        0x8 /opt/microchip/xc32/v4.60/bin/bin/../../lib/gcc/pic32mx/8.3.1/../../../../pic32mx/lib/libpic32.a(vector15.o)
                0x000000009fc013e0                __vector_dispatch_15
                0x0000000000000001                ASSERT (((_vector_spacing == 0x0) || (SIZEOF (.vector_15) <= (_vector_spacing << 0x5))), function at exception vector 15 too large)

.vector_16      0x000000009fc01400        0x8
 *(.vector_16)
 .vector_16     0x000000009fc01400        0x8 /opt/microchip/xc32/v4.60/bin/bin/../../lib/gcc/pic32mx/8.3.1/../../../../pic32mx/lib/libpic32.a(vector16.o)
                0x000000009fc01400                __vector_dispatch_16
                0x0000000000000001                ASSERT (((_vector_spacing == 0x0) || (SIZEOF (.vector_16) <= (_vector_spacing << 0x5))), function at exception vector 16 too large)

.vector_17      0x000000009fc01420        0x8
 *(.vector_17)
 .vector_17     0x000000009fc01420        0x8 /opt/microchip/xc32/v4.60/bin/bin/../../lib/gcc/pic32mx/8.3.1/../../../../pic32mx/lib/libpic32.a(vector17.o)
                0x000000009fc01420                __vector_dispatch_17
                0x0000000000000001                ASSERT (((_vector_spacing == 0x0) || (SIZEOF (.vector_17) <= (_vector_spacing << 0x5))), function at exception vector 17 too large)

.vector_18      0x000000009fc01440        0x8
 *(.vector_18)
 .vector_18     0x000000009fc01440        0x8 /opt/microchip/xc32/v4.60/bin/bin/../../lib/gcc/pic32mx/8.3.1/../../../../pic32mx/lib/libpic32.a(vector18.o)
                0x000000009fc01440                __vector_dispatch_18
                0x0000000000000001                ASSERT (((_vector_spacing == 0x0) || (SIZEOF (.vector_18) <= (_vector_spacing << 0x5))), function at exception vector 18 too large)

.vector_19      0x000000009fc01460        0x8
 *(.vector_19)
 .vector_19     0x000000009fc01460        0x8 /opt/microchip/xc32/v4.60/bin/bin/../../lib/gcc/pic32mx/8.3.1/../../../../pic32mx/lib/libpic32.a(vector19.o)
                0x000000009fc01460                __vector_dispatch_19
                0x0000000000000001                ASSERT (((_vector_spacing == 0x0) || (SIZEOF (.vector_19) <= (_vector_spacing << 0x5))), function at exception vector 19 too large)

.vector_20      0x000000009fc01480        0x8
 *(.vector_20)
 .vector_20     0x000000009fc01480        0x8 /opt/microchip/xc32/v4.60/bin/bin/../../lib/gcc/pic32mx/8.3.1/../../../../pic32mx/lib/libpic32.a(vector20.o)
                0x000000009fc01480                __vector_dispatch_20
                0x0000000000000001                ASSERT (((_vector_spacing == 0x0) || (SIZEOF (.vector_20) <= (_vector_spacing << 0x5))), function at exception vector 20 too large)

.vector_21      0x000000009fc014a0        0x8
 *(.vector_21)
 .vector_21     0x000000009fc014a0        0x8 /opt/microchip/xc32/v4.60/bin/bin/../../lib/gcc/pic32mx/8.3.1/../../../../pic32mx/lib/libpic32.a(vector21.o)
                0x000000009fc014a0                __vector_dispatch_21
                0x0000000000000001                ASSERT (((_vector_spacing == 0x0) || (SIZEOF (.vector_21) <= (_vector_spacing << 0x5))), function at exception vector 21 too large)

.vector_22      0x000000009fc014c0        0x8
 *(.vector_22)
 .vector_22     0x000000009fc014c0        0x8 /opt/microchip/xc32/v4.60/bin/bin/../../lib/gcc/pic32mx/8.3.1/../../../../pic32mx/lib/libpic32.a(vector22.o)
                0x000000009fc014c0                __vector_dispatch_22
                0x0000000000000001                ASSERT (((_vector_spacing == 0x0) || (SIZEOF (.vector_22) <= (_vector_spacing << 0x5))), function at exception vector 22 too large)

.vector_23      0x000000009fc014e0        0x8
 *(.vector_23)
 .vector_23     0x000000009fc014e0        0x8 /opt/microchip/xc32/v4.60/bin/bin/../../lib/gcc/pic32mx/8.3.1/../../../../pic32mx/lib/libpic32.a(vector23.o)
                0x000000009fc014e0                __vector_dispatch_23
                0x0000000000000001                ASSERT (((_vector_spacing == 0x0) || (SIZEOF (.vector_23) <= (_vector_spacing << 0x5))), function at exception vector 23 too large)

.vector_24      0x000000009fc01500        0x8
 *(.vector_24)
 .vector_24     0x000000009fc01500        0x8 /opt/microchip/xc32/v4.60/bin/bin/../../lib/gcc/pic32mx/8.3.1/../../../../pic32mx/lib/libpic32.a(vector24.o)
                0x000000009fc01500                __vector_dispatch_24
                0x0000000000000001                ASSERT (((_vector_spacing == 0x0) || (SIZEOF (.vector_24) <= (_vector_spacing << 0x5))), function at exception vector 24 too large)

.vector_25      0x000000009fc01520        0x8
 *(.vector_25)
 .vector_25     0x000000009fc01520        0x8 /opt/microchip/xc32/v4.60/bin/bin/../../lib/gcc/pic32mx/8.3.1/../../../../pic32mx/lib/libpic32.a(vector25.o)
                0x000000009fc01520                __vector_dispatch_25
                0x0000000000000001                ASSERT (((_vector_spacing == 0x0) || (SIZEOF (.vector_25) <= (_vector_spacing << 0x5))), function at exception vector 25 too large)

.vector_26      0x000000009fc01540        0x8
 *(.vector_26)
 .vector_26     0x000000009fc01540        0x8 /opt/microchip/xc32/v4.60/bin/bin/../../lib/gcc/pic32mx/8.3.1/../../../../pic32mx/lib/libpic32.a(vector26.o)
                0x000000009fc01540                __vector_dispatch_26
                0x0000000000000001                ASSERT (((_vector_spacing == 0x0) || (SIZEOF (.vector_26) <= (_vector_spacing << 0x5))), function at exception vector 26 too large)

.vector_27      0x000000009fc01560        0x8
 *(.vector_27)
 .vector_27     0x000000009fc01560        0x8 /opt/microchip/xc32/v4.60/bin/bin/../../lib/gcc/pic32mx/8.3.1/../../../../pic32mx/lib/libpic32.a(vector27.o)
                0x000000009fc01560                __vector_dispatch_27
                0x0000000000000001                ASSERT (((_vector_spacing == 0x0) || (SIZEOF (.vector_27) <= (_vector_spacing << 0x5))), function at exception vector 27 too large)

.vector_28      0x000000009fc01580        0x8
 *(.vector_28)
 .vector_28     0x000000009fc01580        0x8 /opt/microchip/xc32/v4.60/bin/bin/../../lib/gcc/pic32mx/8.3.1/../../../../pic32mx/lib/libpic32.a(vector28.o)
                0x000000009fc01580                __vector_dispatch_28
                0x0000000000000001                ASSERT (((_vector_spacing == 0x0) || (SIZEOF (.vector_28) <= (_vector_spacing << 0x5))), function at exception vector 28 too large)

.vector_29      0x000000009fc015a0        0x8
 *(.vector_29)
 .vector_29     0x000000009fc015a0        0x8 /opt/microchip/xc32/v4.60/bin/bin/../../lib/gcc/pic32mx/8.3.1/../../../../pic32mx/lib/libpic32.a(vector29.o)
                0x000000009fc015a0                __vector_dispatch_29
                0x0000000000000001                ASSERT (((_vector_spacing == 0x0) || (SIZEOF (.vector_29) <= (_vector_spacing << 0x5))), function at exception vector 29 too large)

.vector_30      0x000000009fc015c0        0x8
 *(.vector_30)
 .vector_30     0x000000009fc015c0        0x8 /opt/microchip/xc32/v4.60/bin/bin/../../lib/gcc/pic32mx/8.3.1/../../../../pic32mx/lib/libpic32.a(vector30.o)
                0x000000009fc015c0                __vector_dispatch_30
                0x0000000000000001                ASSERT (((_vector_spacing == 0x0) || (SIZEOF (.vector_30) <= (_vector_spacing << 0x5))), function at exception vector 30 too large)

.vector_31      0x000000009fc015e0        0x8
 *(.vector_31)
 .vector_31     0x000000009fc015e0        0x8 /opt/microchip/xc32/v4.60/bin/bin/../../lib/gcc/pic32mx/8.3.1/../../../../pic32mx/lib/libpic32.a(vector31.o)
                0x000000009fc015e0                __vector_dispatch_31
                0x0000000000000001                ASSERT (((_vector_spacing == 0x0) || (SIZEOF (.vector_31) <= (_vector_spacing << 0x5))), function at exception vector 31 too large)

.vector_32      0x000000009fc01600       0x10
 *(.vector_32)
 .vector_32     0x000000009fc01600       0x10 build/default/production/_ext/1171490990/interrupts_a.o
                0x000000009fc01600                __vector_dispatch_32
                0x0000000000000001                ASSERT (((_vector_spacing == 0x0) || (SIZEOF (.vector_32) <= (_vector_spacing << 0x5))), function at exception vector 32 too large)

.vector_33      0x000000009fc01620        0x8
 *(.vector_33)
 .vector_33     0x000000009fc01620        0x8 /opt/microchip/xc32/v4.60/bin/bin/../../lib/gcc/pic32mx/8.3.1/../../../../pic32mx/lib/libpic32.a(vector33.o)
                0x000000009fc01620                __vector_dispatch_33
                0x0000000000000001                ASSERT (((_vector_spacing == 0x0) || (SIZEOF (.vector_33) <= (_vector_spacing << 0x5))), function at exception vector 33 too large)

.vector_34      0x000000009fc01640        0x8
 *(.vector_34)
 .vector_34     0x000000009fc01640        0x8 /opt/microchip/xc32/v4.60/bin/bin/../../lib/gcc/pic32mx/8.3.1/../../../../pic32mx/lib/libpic32.a(vector34.o)
                0x000000009fc01640                __vector_dispatch_34
                0x0000000000000001                ASSERT (((_vector_spacing == 0x0) || (SIZEOF (.vector_34) <= (_vector_spacing << 0x5))), function at exception vector 34 too large)

.vector_35      0x000000009fc01660        0x8
 *(.vector_35)
 .vector_35     0x000000009fc01660        0x8 /opt/microchip/xc32/v4.60/bin/bin/../../lib/gcc/pic32mx/8.3.1/../../../../pic32mx/lib/libpic32.a(vector35.o)
                0x000000009fc01660                __vector_dispatch_35
                0x0000000000000001                ASSERT (((_vector_spacing == 0x0) || (SIZEOF (.vector_35) <= (_vector_spacing << 0x5))), function at exception vector 35 too large)

.vector_36      0x000000009fc01680        0x8
 *(.vector_36)
 .vector_36     0x000000009fc01680        0x8 /opt/microchip/xc32/v4.60/bin/bin/../../lib/gcc/pic32mx/8.3.1/../../../../pic32mx/lib/libpic32.a(vector36.o)
                0x000000009fc01680                __vector_dispatch_36
                0x0000000000000001                ASSERT (((_vector_spacing == 0x0) || (SIZEOF (.vector_36) <= (_vector_spacing << 0x5))), function at exception vector 36 too large)

.vector_37      0x000000009fc016a0        0x8
 *(.vector_37)
 .vector_37     0x000000009fc016a0        0x8 /opt/microchip/xc32/v4.60/bin/bin/../../lib/gcc/pic32mx/8.3.1/../../../../pic32mx/lib/libpic32.a(vector37.o)
                0x000000009fc016a0                __vector_dispatch_37
                0x0000000000000001                ASSERT (((_vector_spacing == 0x0) || (SIZEOF (.vector_37) <= (_vector_spacing << 0x5))), function at exception vector 37 too large)

.vector_38      0x000000009fc016c0        0x8
 *(.vector_38)
 .vector_38     0x000000009fc016c0        0x8 /opt/microchip/xc32/v4.60/bin/bin/../../lib/gcc/pic32mx/8.3.1/../../../../pic32mx/lib/libpic32.a(vector38.o)
                0x000000009fc016c0                __vector_dispatch_38
                0x0000000000000001                ASSERT (((_vector_spacing == 0x0) || (SIZEOF (.vector_38) <= (_vector_spacing << 0x5))), function at exception vector 38 too large)

.vector_39      0x000000009fc016e0        0x8
 *(.vector_39)
 .vector_39     0x000000009fc016e0        0x8 /opt/microchip/xc32/v4.60/bin/bin/../../lib/gcc/pic32mx/8.3.1/../../../../pic32mx/lib/libpic32.a(vector39.o)
                0x000000009fc016e0                __vector_dispatch_39
                0x0000000000000001                ASSERT (((_vector_spacing == 0x0) || (SIZEOF (.vector_39) <= (_vector_spacing << 0x5))), function at exception vector 39 too large)

.vector_40      0x000000009fc01700        0x8
 *(.vector_40)
 .vector_40     0x000000009fc01700        0x8 /opt/microchip/xc32/v4.60/bin/bin/../../lib/gcc/pic32mx/8.3.1/../../../../pic32mx/lib/libpic32.a(vector40.o)
                0x000000009fc01700                __vector_dispatch_40
                0x0000000000000001                ASSERT (((_vector_spacing == 0x0) || (SIZEOF (.vector_40) <= (_vector_spacing << 0x5))), function at exception vector 40 too large)

.vector_41      0x000000009fc01720        0x8
 *(.vector_41)
 .vector_41     0x000000009fc01720        0x8 /opt/microchip/xc32/v4.60/bin/bin/../../lib/gcc/pic32mx/8.3.1/../../../../pic32mx/lib/libpic32.a(vector41.o)
                0x000000009fc01720                __vector_dispatch_41
                0x0000000000000001                ASSERT (((_vector_spacing == 0x0) || (SIZEOF (.vector_41) <= (_vector_spacing << 0x5))), function at exception vector 41 too large)

.vector_42      0x000000009fc01740        0x8
 *(.vector_42)
 .vector_42     0x000000009fc01740        0x8 /opt/microchip/xc32/v4.60/bin/bin/../../lib/gcc/pic32mx/8.3.1/../../../../pic32mx/lib/libpic32.a(vector42.o)
                0x000000009fc01740                __vector_dispatch_42
                0x0000000000000001                ASSERT (((_vector_spacing == 0x0) || (SIZEOF (.vector_42) <= (_vector_spacing << 0x5))), function at exception vector 42 too large)

.vector_43      0x000000009fc01760        0x8
 *(.vector_43)
 .vector_43     0x000000009fc01760        0x8 /opt/microchip/xc32/v4.60/bin/bin/../../lib/gcc/pic32mx/8.3.1/../../../../pic32mx/lib/libpic32.a(vector43.o)
                0x000000009fc01760                __vector_dispatch_43
                0x0000000000000001                ASSERT (((_vector_spacing == 0x0) || (SIZEOF (.vector_43) <= (_vector_spacing << 0x5))), function at exception vector 43 too large)

.vector_44      0x000000009fc01780        0x8
 *(.vector_44)
 .vector_44     0x000000009fc01780        0x8 /opt/microchip/xc32/v4.60/bin/bin/../../lib/gcc/pic32mx/8.3.1/../../../../pic32mx/lib/libpic32.a(vector44.o)
                0x000000009fc01780                __vector_dispatch_44
                0x0000000000000001                ASSERT (((_vector_spacing == 0x0) || (SIZEOF (.vector_44) <= (_vector_spacing << 0x5))), function at exception vector 44 too large)

.vector_45      0x000000009fc017a0        0x8
 *(.vector_45)
 .vector_45     0x000000009fc017a0        0x8 /opt/microchip/xc32/v4.60/bin/bin/../../lib/gcc/pic32mx/8.3.1/../../../../pic32mx/lib/libpic32.a(vector45.o)
                0x000000009fc017a0                __vector_dispatch_45
                0x0000000000000001                ASSERT (((_vector_spacing == 0x0) || (SIZEOF (.vector_45) <= (_vector_spacing << 0x5))), function at exception vector 45 too large)

.vector_46      0x000000009fc017c0        0x8
 *(.vector_46)
 .vector_46     0x000000009fc017c0        0x8 /opt/microchip/xc32/v4.60/bin/bin/../../lib/gcc/pic32mx/8.3.1/../../../../pic32mx/lib/libpic32.a(vector46.o)
                0x000000009fc017c0                __vector_dispatch_46
                0x0000000000000001                ASSERT (((_vector_spacing == 0x0) || (SIZEOF (.vector_46) <= (_vector_spacing << 0x5))), function at exception vector 46 too large)

.vector_47      0x000000009fc017e0        0x8
 *(.vector_47)
 .vector_47     0x000000009fc017e0        0x8 /opt/microchip/xc32/v4.60/bin/bin/../../lib/gcc/pic32mx/8.3.1/../../../../pic32mx/lib/libpic32.a(vector47.o)
                0x000000009fc017e0                __vector_dispatch_47
                0x0000000000000001                ASSERT (((_vector_spacing == 0x0) || (SIZEOF (.vector_47) <= (_vector_spacing << 0x5))), function at exception vector 47 too large)

.vector_48      0x000000009fc01800       0x10
 *(.vector_48)
 .vector_48     0x000000009fc01800       0x10 build/default/production/_ext/1171490990/interrupts_a.o
                0x000000009fc01800                __vector_dispatch_48
                0x0000000000000001                ASSERT (((_vector_spacing == 0x0) || (SIZEOF (.vector_48) <= (_vector_spacing << 0x5))), function at exception vector 48 too large)

.vector_49      0x000000009fc01820        0x8
 *(.vector_49)
 .vector_49     0x000000009fc01820        0x8 /opt/microchip/xc32/v4.60/bin/bin/../../lib/gcc/pic32mx/8.3.1/../../../../pic32mx/lib/libpic32.a(vector49.o)
                0x000000009fc01820                __vector_dispatch_49
                0x0000000000000001                ASSERT (((_vector_spacing == 0x0) || (SIZEOF (.vector_49) <= (_vector_spacing << 0x5))), function at exception vector 49 too large)

.vector_50      0x000000009fc01840        0x8
 *(.vector_50)
 .vector_50     0x000000009fc01840        0x8 /opt/microchip/xc32/v4.60/bin/bin/../../lib/gcc/pic32mx/8.3.1/../../../../pic32mx/lib/libpic32.a(vector50.o)
                0x000000009fc01840                __vector_dispatch_50
                0x0000000000000001                ASSERT (((_vector_spacing == 0x0) || (SIZEOF (.vector_50) <= (_vector_spacing << 0x5))), function at exception vector 50 too large)

.vector_51      0x000000009fc01860        0x8
 *(.vector_51)
 .vector_51     0x000000009fc01860        0x8 /opt/microchip/xc32/v4.60/bin/bin/../../lib/gcc/pic32mx/8.3.1/../../../../pic32mx/lib/libpic32.a(vector51.o)
                0x000000009fc01860                __vector_dispatch_51
                0x0000000000000001                ASSERT (((_vector_spacing == 0x0) || (SIZEOF (.vector_51) <= (_vector_spacing << 0x5))), function at exception vector 51 too large)

.vector_52      0x000000009fc01880        0x0
 *(.vector_52)
                0x0000000000000001                ASSERT (((_vector_spacing == 0x0) || (SIZEOF (.vector_52) <= (_vector_spacing << 0x5))), function at exception vector 52 too large)

.vector_53      0x000000009fc018a0        0x0
 *(.vector_53)
                0x0000000000000001                ASSERT (((_vector_spacing == 0x0) || (SIZEOF (.vector_53) <= (_vector_spacing << 0x5))), function at exception vector 53 too large)

.vector_54      0x000000009fc018c0        0x0
 *(.vector_54)
                0x0000000000000001                ASSERT (((_vector_spacing == 0x0) || (SIZEOF (.vector_54) <= (_vector_spacing << 0x5))), function at exception vector 54 too large)

.vector_55      0x000000009fc018e0        0x0
 *(.vector_55)
                0x0000000000000001                ASSERT (((_vector_spacing == 0x0) || (SIZEOF (.vector_55) <= (_vector_spacing << 0x5))), function at exception vector 55 too large)

.vector_56      0x000000009fc01900        0x0
 *(.vector_56)
                0x0000000000000001                ASSERT (((_vector_spacing == 0x0) || (SIZEOF (.vector_56) <= (_vector_spacing << 0x5))), function at exception vector 56 too large)

.vector_57      0x000000009fc01920        0x0
 *(.vector_57)
                0x0000000000000001                ASSERT (((_vector_spacing == 0x0) || (SIZEOF (.vector_57) <= (_vector_spacing << 0x5))), function at exception vector 57 too large)

.vector_58      0x000000009fc01940        0x0
 *(.vector_58)
                0x0000000000000001                ASSERT (((_vector_spacing == 0x0) || (SIZEOF (.vector_58) <= (_vector_spacing << 0x5))), function at exception vector 58 too large)

.vector_59      0x000000009fc01960        0x0
 *(.vector_59)
                0x0000000000000001                ASSERT (((_vector_spacing == 0x0) || (SIZEOF (.vector_59) <= (_vector_spacing << 0x5))), function at exception vector 59 too large)

.vector_60      0x000000009fc01980        0x0
 *(.vector_60)
                0x0000000000000001                ASSERT (((_vector_spacing == 0x0) || (SIZEOF (.vector_60) <= (_vector_spacing << 0x5))), function at exception vector 60 too large)

.vector_61      0x000000009fc019a0        0x0
 *(.vector_61)
                0x0000000000000001                ASSERT (((_vector_spacing == 0x0) || (SIZEOF (.vector_61) <= (_vector_spacing << 0x5))), function at exception vector 61 too large)

.vector_62      0x000000009fc019c0        0x0
 *(.vector_62)
                0x0000000000000001                ASSERT (((_vector_spacing == 0x0) || (SIZEOF (.vector_62) <= (_vector_spacing << 0x5))), function at exception vector 62 too large)

.vector_63      0x000000009fc019e0        0x0
 *(.vector_63)
                0x0000000000000001                ASSERT (((_vector_spacing == 0x0) || (SIZEOF (.vector_63) <= (_vector_spacing << 0x5))), function at exception vector 63 too large)

.startup
 *(.startup)

.text           0x000000009d000000        0x0
 *(.stub .gnu.linkonce.t.*)
 *(.text.*personality*)
 *(.mips16.fn.*)
 *(.mips16.call.*)
 *(.gnu.warning)
                0x000000009d000000                . = ALIGN (0x4)

.init           0x000000009d000000        0x0
 *crti.o(.init)
 *crtbegin.o(.init)
 *(EXCLUDE_FILE(*crtn.o *crtend?.o *crtend.o) .init)
 *crtend.o(.init)
 *crtn.o(.init)
                0x000000009d000000                . = ALIGN (0x4)

.fini           0x000000009d000000        0x0
 *(.fini)
                0x000000009d000000                . = ALIGN (0x4)

.preinit_array  0x000000009d000000        0x0
                [!provide]                        PROVIDE (__preinit_array_start = .)
 *(.preinit_array)
                [!provide]                        PROVIDE (__preinit_array_end = .)
                0x000000009d000000                . = ALIGN (0x4)

.init_array     0x000000009d000000        0x0
                [!provide]                        PROVIDE (__init_array_start = .)
 *(SORT_BY_NAME(.init_array.*))
 *(.init_array)
                [!provide]                        PROVIDE (__init_array_end = .)
                0x000000009d000000                . = ALIGN (0x4)

.fini_array     0x000000009d000000        0x0
                [!provide]                        PROVIDE (__fini_array_start = .)
 *(SORT_BY_NAME(.fini_array.*))
 *(.fini_array)
                [!provide]                        PROVIDE (__fini_array_end = .)
                0x000000009d000000                . = ALIGN (0x4)

.ctors          0x000000009d000000        0x0
 *crtbegin.o(.ctors)
 *crtbegin?.o(.ctors)
 *(EXCLUDE_FILE(*crtend?.o *crtend.o) .ctors)
 *(SORT_BY_NAME(.ctors.*))
 *(.ctors)
                0x000000009d000000                . = ALIGN (0x4)

.dtors          0x000000009d000000        0x0
 *crtbegin.o(.dtors)
 *crtbegin?.o(.dtors)
 *(EXCLUDE_FILE(*crtend?.o *crtend.o) .dtors)
 *(SORT_BY_NAME(.dtors.*))
 *(.dtors)
                0x000000009d000000                . = ALIGN (0x4)

.rodata         0x000000009d000000        0x0
 *(.gnu.linkonce.r.*)
 *(.rodata1)
                0x000000009d000000                . = ALIGN (0x4)

.sdata2         0x000000009d000000        0x0
 *(.sdata2 .sdata2.* .gnu.linkonce.s2.*)
                0x000000009d000000                . = ALIGN (0x4)

.sbss2          0x000000009d000000        0x0
 *(.sbss2 .sbss2.* .gnu.linkonce.sb2.*)
                0x000000009d000000                . = ALIGN (0x4)

.eh_frame_hdr
 *(.eh_frame_hdr)
                0x000000009d000000                . = ALIGN (0x4)

.eh_frame
 *(.eh_frame)
                0x000000009d000000                . = ALIGN (0x4)

.gcc_except_table
 *(.gcc_except_table .gcc_except_table.*)
                0x000000009d000000                . = ALIGN (0x4)

.dbg_data       0x00000000a0000000        0x0
                0x00000000a0000000                . = (. + DEFINED (_DEBUGGER)?0x200:0x0)

.jcr            0x00000000a0000000        0x0
 *(.jcr)
                0x00000000a0000000                . = ALIGN (0x4)

.eh_frame
 *(.eh_frame)
                0x00000000a0000000                . = ALIGN (0x4)

.gcc_except_table
 *(.gcc_except_table .gcc_except_table.*)
                0x00000000a0000000                . = ALIGN (0x4)

.persist        0x00000000a0000000        0x0
                0x00000000a0000000                _persist_begin = .
 *(.persist .persist.*)
                0x00000000a0000000                . = ALIGN (0x4)
                0x00000000a0000000                _persist_end = .

.data           0x00000000a0000000        0x0
 *(.gnu.linkonce.d.*)
 *(.data1)
                0x00000000a0000000                . = ALIGN (0x4)
                0x00000000a0000000                . = .
                0x00000000a0007ff0                _gp = (ALIGN (0x10) + 0x7ff0)

.got            0x00000000a0000000        0x0
 *(.got.plt)
 *(.got)
                0x00000000a0000000                . = ALIGN (0x4)

.sdata          0x00000000a0000000       0x18
                0x00000000a0000000                _sdata_begin = .
 *(.sdata .sdata.* .gnu.linkonce.s.*)
 .sdata         0x00000000a0000000        0x6 build/default/production/_ext/1033058136/arp.o
 *fill*         0x00000000a0000006        0x2 
 .sdata         0x00000000a0000008        0x4 build/default/production/_ext/1033058136/tcpip_manager.o
 .sdata         0x00000000a000000c        0x2 build/default/production/_ext/101884895/sys_time.o
 *fill*         0x00000000a000000e        0x2 
 .sdata         0x00000000a0000010        0x4 build/default/production/_ext/951553248/port.o
                0x00000000a0000010                uxInterruptNesting
 .sdata         0x00000000a0000014        0x1 build/default/production/_ext/1360937237/app.o
                0x00000000a0000014                send_test_packet
                0x00000000a0000018                . = ALIGN (0x4)
 *fill*         0x00000000a0000015        0x3 
                0x00000000a0000018                _sdata_end = .

.lit8
 *(.lit8)

.lit4
 *(.lit4)
                0x00000000a0000018                . = ALIGN (0x4)
                0x00000000a0000018                _data_end = .
                0x00000000a0000018                _bss_begin = .

.sbss           0x00000000a0000018      0x184
                0x00000000a0000018                _sbss_begin = .
 *(.dynsbss)
 *(.sbss .sbss.* .gnu.linkonce.sb.*)
 .sbss          0x00000000a0000018        0x4 build/default/production/_ext/732082881/drv_ethmac.o
 .sbss          0x00000000a000001c        0x8 build/default/production/_ext/444070925/drv_ethphy.o
 .sbss          0x00000000a0000024        0x8 build/default/production/_ext/438849557/drv_miim.o
 .sbss          0x00000000a000002c       0x1c build/default/production/_ext/1033058136/dhcp.o
 .sbss          0x00000000a0000048       0x22 build/default/production/_ext/1033058136/ipv4.o
 *fill*         0x00000000a000006a        0x2 
 .sbss          0x00000000a000006c        0xc build/default/production/_ext/1033058136/tcpip_commands.o
 .sbss          0x00000000a0000078        0x4 build/default/production/_ext/1033058136/tcpip_packet.o
 .sbss          0x00000000a000007c       0x1c build/default/production/_ext/1033058136/udp.o
 .sbss          0x00000000a0000098        0x8 build/default/production/_ext/1033058136/icmp.o
 .sbss          0x00000000a00000a0       0x38 build/default/production/_ext/1033058136/tcpip_manager.o
 .sbss          0x00000000a00000d8        0x8 build/default/production/_ext/1249264884/plib_coretimer.o
 .sbss          0x00000000a00000e0       0x18 build/default/production/_ext/1376093119/sys_command.o
 .sbss          0x00000000a00000f8        0x5 build/default/production/_ext/1832805299/sys_console.o
 *fill*         0x00000000a00000fd        0x3 
 .sbss          0x00000000a0000100        0xc build/default/production/_ext/944882569/sys_debug.o
                0x00000000a0000100                gblErrLvl
 .sbss          0x00000000a000010c        0x8 build/default/production/_ext/753841488/sys_time_h2_adapter.o
 .sbss          0x00000000a0000114        0x4 build/default/production/_ext/1171490990/exceptions.o
 .sbss          0x00000000a0000118        0x8 build/default/production/_ext/1171490990/tasks.o
                0x00000000a0000118                xSYS_CMD_Tasks
                0x00000000a000011c                xAPP_Tasks
 .sbss          0x00000000a0000120       0x1c build/default/production/_ext/1665200909/heap_4.o
 .sbss          0x00000000a000013c        0x4 build/default/production/_ext/951553248/port.o
                0x00000000a000013c                uxSavedTaskStackPointer
 .sbss          0x00000000a0000140       0x3c build/default/production/_ext/404212886/FreeRTOS_tasks.o
                0x00000000a0000178                pxCurrentTCB
 .sbss          0x00000000a000017c        0x8 build/default/production/_ext/1360937237/app.o
                0x00000000a000017c                app_counter
                0x00000000a0000180                appData
 .sbss          0x00000000a0000184       0x18 build/default/production/_ext/1360937237/ethernet.o
                0x00000000a0000184                ip_address
                0x00000000a0000188                mac_addr
                0x00000000a000018e                link_up
                0x00000000a000018f                is_ready
                0x00000000a0000190                has_ip
                0x00000000a0000191                is_stack_ready
                0x00000000a0000194                packetHandlerHandle
                0x00000000a0000198                netH
 *(.scommon)
                0x00000000a000019c                _sbss_end = .
                0x00000000a000019c                . = ALIGN (0x4)

.bss            0x00000000a000019c        0x0
 *(.dynbss)
 *(COMMON)
                0x00000000a000019c                . = ALIGN ((. != 0x0)?0x4:0x1)
                0x00000000a000019c                . = ALIGN (0x4)
                0x00000000a000019c                _end = .
                0x00000000a000019c                _bss_end = .
                0x0000000000020000                _bmxdudba_address = LENGTH (kseg1_data_mem)
                0x0000000000020000                _bmxdupba_address = LENGTH (kseg1_data_mem)

/DISCARD/
 *(.pdr)
 *(.rel.dyn)
 *(.note.GNU-stack)
 *(.note.GNU-stack)
 *(.gnu_debuglink)
 *(.gnu.lto_*)
 *(.discard)

.gptab.sdata
 *(.gptab.data)
 *(.gptab.sdata)

.gptab.sbss
 *(.gptab.bss)
 *(.gptab.sbss)

.mdebug.abi32   0x0000000000000000        0x0
 *(.mdebug.abi32)
 .mdebug.abi32  0x0000000000000000        0x0 build/default/production/_ext/732082881/drv_eth_pic32_lib.o
 .mdebug.abi32  0x0000000000000000        0x0 build/default/production/_ext/732082881/drv_ethmac.o
 .mdebug.abi32  0x0000000000000000        0x0 build/default/production/_ext/732082881/drv_ethmac_lib.o
 .mdebug.abi32  0x0000000000000000        0x0 build/default/production/_ext/444070925/drv_ethphy.o
 .mdebug.abi32  0x0000000000000000        0x0 build/default/production/_ext/444070925/drv_extphy_lan8720.o
 .mdebug.abi32  0x0000000000000000        0x0 build/default/production/_ext/438849557/drv_miim_pic32m.o
 .mdebug.abi32  0x0000000000000000        0x0 build/default/production/_ext/438849557/drv_miim.o
 .mdebug.abi32  0x0000000000000000        0x0 build/default/production/_ext/1033058136/helpers.o
 .mdebug.abi32  0x0000000000000000        0x0 build/default/production/_ext/1033058136/dhcp.o
 .mdebug.abi32  0x0000000000000000        0x0 build/default/production/_ext/1033058136/ipv4.o
 .mdebug.abi32  0x0000000000000000        0x0 build/default/production/_ext/1033058136/tcpip_commands.o
 .mdebug.abi32  0x0000000000000000        0x0 build/default/production/_ext/1033058136/tcpip_notify.o
 .mdebug.abi32  0x0000000000000000        0x0 build/default/production/_ext/1033058136/tcpip_helpers.o
 .mdebug.abi32  0x0000000000000000        0x0 build/default/production/_ext/1033058136/tcpip_packet.o
 .mdebug.abi32  0x0000000000000000        0x0 build/default/production/_ext/1033058136/oahash.o
 .mdebug.abi32  0x0000000000000000        0x0 build/default/production/_ext/1033058136/udp.o
 .mdebug.abi32  0x0000000000000000        0x0 build/default/production/_ext/1033058136/arp.o
 .mdebug.abi32  0x0000000000000000        0x0 build/default/production/_ext/1033058136/icmp.o
 .mdebug.abi32  0x0000000000000000        0x0 build/default/production/_ext/1033058136/tcpip_heap_internal.o
 .mdebug.abi32  0x0000000000000000        0x0 build/default/production/_ext/1033058136/hash_fnv.o
 .mdebug.abi32  0x0000000000000000        0x0 build/default/production/_ext/1033058136/dns.o
 .mdebug.abi32  0x0000000000000000        0x0 build/default/production/_ext/1033058136/tcpip_heap_alloc.o
 .mdebug.abi32  0x0000000000000000        0x0 build/default/production/_ext/1033058136/tcpip_manager.o
 .mdebug.abi32  0x0000000000000000        0x0 build/default/production/_ext/1529399856/osal_freertos.o
 .mdebug.abi32  0x0000000000000000        0x0 build/default/production/_ext/60165520/plib_clk.o
 .mdebug.abi32  0x0000000000000000        0x0 build/default/production/_ext/1249264884/plib_coretimer.o
 .mdebug.abi32  0x0000000000000000        0x0 build/default/production/_ext/1865200349/plib_evic.o
 .mdebug.abi32  0x0000000000000000        0x0 build/default/production/_ext/1865254177/plib_gpio.o
 .mdebug.abi32  0x0000000000000000        0x0 build/default/production/_ext/1865657120/plib_uart2.o
 .mdebug.abi32  0x0000000000000000        0x0 build/default/production/_ext/1865657120/plib_uart1.o
 .mdebug.abi32  0x0000000000000000        0x0 build/default/production/_ext/163028504/xc32_monitor.o
 .mdebug.abi32  0x0000000000000000        0x0 build/default/production/_ext/1376093119/sys_command.o
 .mdebug.abi32  0x0000000000000000        0x0 build/default/production/_ext/1832805299/sys_console_uart.o
 .mdebug.abi32  0x0000000000000000        0x0 build/default/production/_ext/1832805299/sys_console.o
 .mdebug.abi32  0x0000000000000000        0x0 build/default/production/_ext/944882569/sys_debug.o
 .mdebug.abi32  0x0000000000000000        0x0 build/default/production/_ext/1881668453/sys_int.o
 .mdebug.abi32  0x0000000000000000        0x0 build/default/production/_ext/1000052432/sys_reset.o
 .mdebug.abi32  0x0000000000000000        0x0 build/default/production/_ext/101884895/sys_time.o
 .mdebug.abi32  0x0000000000000000        0x0 build/default/production/_ext/753841488/sys_time_h2_adapter.o
 .mdebug.abi32  0x0000000000000000        0x0 build/default/production/_ext/1171490990/initialization.o
 .mdebug.abi32  0x0000000000000000        0x0 build/default/production/_ext/1171490990/interrupts.o
 .mdebug.abi32  0x0000000000000000        0x0 build/default/production/_ext/1171490990/freertos_hooks.o
 .mdebug.abi32  0x0000000000000000        0x0 build/default/production/_ext/1171490990/exceptions.o
 .mdebug.abi32  0x0000000000000000        0x0 build/default/production/_ext/1171490990/tasks.o
 .mdebug.abi32  0x0000000000000000        0x0 build/default/production/_ext/1665200909/heap_4.o
 .mdebug.abi32  0x0000000000000000        0x0 build/default/production/_ext/951553248/port.o
 .mdebug.abi32  0x0000000000000000        0x0 build/default/production/_ext/404212886/FreeRTOS_tasks.o
 .mdebug.abi32  0x0000000000000000        0x0 build/default/production/_ext/404212886/event_groups.o
 .mdebug.abi32  0x0000000000000000        0x0 build/default/production/_ext/404212886/list.o
 .mdebug.abi32  0x0000000000000000        0x0 build/default/production/_ext/404212886/queue.o
 .mdebug.abi32  0x0000000000000000        0x0 build/default/production/_ext/404212886/stream_buffer.o
 .mdebug.abi32  0x0000000000000000        0x0 build/default/production/_ext/404212886/timers.o
 .mdebug.abi32  0x0000000000000000        0x0 build/default/production/_ext/404212886/croutine.o
 .mdebug.abi32  0x0000000000000000        0x0 build/default/production/_ext/1360937237/main.o
 .mdebug.abi32  0x0000000000000000        0x0 build/default/production/_ext/1360937237/app.o
 .mdebug.abi32  0x0000000000000000        0x0 build/default/production/_ext/1360937237/ethernet.o
 .mdebug.abi32  0x0000000000000000        0x0 /opt/microchip/xc32/v4.60/bin/bin/../../lib/gcc/pic32mx/8.3.1/libgcc.a(_udivdi3.o)
 .mdebug.abi32  0x0000000000000000        0x0 /opt/microchip/xc32/v4.60/bin/bin/../../lib/gcc/pic32mx/8.3.1/../../../../pic32mx/lib/libpic32.a(default-on-reset.o)
 .mdebug.abi32  0x0000000000000000        0x0 /opt/microchip/xc32/v4.60/bin/bin/../../lib/gcc/pic32mx/8.3.1/../../../../pic32mx/lib/libpic32.a(default-on-bootstrap.o)
 .mdebug.abi32  0x0000000000000000        0x0 /opt/microchip/xc32/v4.60/bin/bin/../../lib/gcc/pic32mx/8.3.1/../../../../pic32mx/lib/libpic32.a(errno.o)
 .mdebug.abi32  0x0000000000000000        0x0 /opt/microchip/xc32/v4.60/bin/bin/../../lib/gcc/pic32mx/8.3.1/../../../../pic32mx/lib/libpic32.a(defaultinterrupt.o)
 .mdebug.abi32  0x0000000000000000        0x0 /opt/microchip/xc32/v4.60/bin/bin/../../lib/gcc/pic32mx/8.3.1/../../../../pic32mx/lib/libc-size-musl.a(memcmp.o)
 .mdebug.abi32  0x0000000000000000        0x0 /opt/microchip/xc32/v4.60/bin/bin/../../lib/gcc/pic32mx/8.3.1/../../../../pic32mx/lib/libc-size-musl.a(memcpy.o)
 .mdebug.abi32  0x0000000000000000        0x0 /opt/microchip/xc32/v4.60/bin/bin/../../lib/gcc/pic32mx/8.3.1/../../../../pic32mx/lib/libc-size-musl.a(memset.o)
 .mdebug.abi32  0x0000000000000000        0x0 /opt/microchip/xc32/v4.60/bin/bin/../../lib/gcc/pic32mx/8.3.1/../../../../pic32mx/lib/libc-size-musl.a(strlen.o)
 .mdebug.abi32  0x0000000000000000        0x0 /opt/microchip/xc32/v4.60/bin/bin/../../lib/gcc/pic32mx/8.3.1/../../../../pic32mx/lib/libc-size-musl.a(strchr.o)
 .mdebug.abi32  0x0000000000000000        0x0 /opt/microchip/xc32/v4.60/bin/bin/../../lib/gcc/pic32mx/8.3.1/../../../../pic32mx/lib/libc-size-musl.a(strchrnul.o)
 .mdebug.abi32  0x0000000000000000        0x0 /opt/microchip/xc32/v4.60/bin/bin/../../lib/gcc/pic32mx/8.3.1/../../../../pic32mx/lib/libc-size-musl.a(strcmp.o)
 .mdebug.abi32  0x0000000000000000        0x0 /opt/microchip/xc32/v4.60/bin/bin/../../lib/gcc/pic32mx/8.3.1/../../../../pic32mx/lib/libc-size-musl.a(strcpy.o)
 .mdebug.abi32  0x0000000000000000        0x0 /opt/microchip/xc32/v4.60/bin/bin/../../lib/gcc/pic32mx/8.3.1/../../../../pic32mx/lib/libc-size-musl.a(strncmp.o)
 .mdebug.abi32  0x0000000000000000        0x0 /opt/microchip/xc32/v4.60/bin/bin/../../lib/gcc/pic32mx/8.3.1/../../../../pic32mx/lib/libc-size-musl.a(strncpy.o)
 .mdebug.abi32  0x0000000000000000        0x0 /opt/microchip/xc32/v4.60/bin/bin/../../lib/gcc/pic32mx/8.3.1/../../../../pic32mx/lib/libc-size-musl.a(strrchr.o)
 .mdebug.abi32  0x0000000000000000        0x0 /opt/microchip/xc32/v4.60/bin/bin/../../lib/gcc/pic32mx/8.3.1/../../../../pic32mx/lib/libc-size-musl.a(strtok.o)
 .mdebug.abi32  0x0000000000000000        0x0 /opt/microchip/xc32/v4.60/bin/bin/../../lib/gcc/pic32mx/8.3.1/../../../../pic32mx/lib/libc-size-musl.a(memrchr.o)
 .mdebug.abi32  0x0000000000000000        0x0 /opt/microchip/xc32/v4.60/bin/bin/../../lib/gcc/pic32mx/8.3.1/../../../../pic32mx/lib/libc-size-musl.a(stpcpy.o)
 .mdebug.abi32  0x0000000000000000        0x0 /opt/microchip/xc32/v4.60/bin/bin/../../lib/gcc/pic32mx/8.3.1/../../../../pic32mx/lib/libc-size-musl.a(stpncpy.o)
 .mdebug.abi32  0x0000000000000000        0x0 /opt/microchip/xc32/v4.60/bin/bin/../../lib/gcc/pic32mx/8.3.1/../../../../pic32mx/lib/libc-size-musl.a(strcspn.o)
 .mdebug.abi32  0x0000000000000000        0x0 /opt/microchip/xc32/v4.60/bin/bin/../../lib/gcc/pic32mx/8.3.1/../../../../pic32mx/lib/libc-size-musl.a(strspn.o)
 .mdebug.abi32  0x0000000000000000        0x0 /opt/microchip/xc32/v4.60/bin/bin/../../lib/gcc/pic32mx/8.3.1/../../../../pic32mx/lib/liblmalloc-musl.a(lite_free.o)
 .mdebug.abi32  0x0000000000000000        0x0 /opt/microchip/xc32/v4.60/bin/bin/../../lib/gcc/pic32mx/8.3.1/../../../../pic32mx/lib/liblmalloc-musl.a(lite_malloc.o)
 .mdebug.abi32  0x0000000000000000        0x0 /opt/microchip/xc32/v4.60/bin/bin/../../lib/gcc/pic32mx/8.3.1/../../../../pic32mx/lib/libc-musl.a(isalnum.o)
 .mdebug.abi32  0x0000000000000000        0x0 /opt/microchip/xc32/v4.60/bin/bin/../../lib/gcc/pic32mx/8.3.1/../../../../pic32mx/lib/libc-musl.a(isxdigit.o)
 .mdebug.abi32  0x0000000000000000        0x0 /opt/microchip/xc32/v4.60/bin/bin/../../lib/gcc/pic32mx/8.3.1/../../../../pic32mx/lib/libc-musl.a(tolower.o)
 .mdebug.abi32  0x0000000000000000        0x0 /opt/microchip/xc32/v4.60/bin/bin/../../lib/gcc/pic32mx/8.3.1/../../../../pic32mx/lib/libc-musl.a(toupper.o)
 .mdebug.abi32  0x0000000000000000        0x0 /opt/microchip/xc32/v4.60/bin/bin/../../lib/gcc/pic32mx/8.3.1/../../../../pic32mx/lib/libc-musl.a(expand_heap.o)
 .mdebug.abi32  0x0000000000000000        0x0 /opt/microchip/xc32/v4.60/bin/bin/../../lib/gcc/pic32mx/8.3.1/../../../../pic32mx/lib/libc-musl.a(rand.o)
 .mdebug.abi32  0x0000000000000000        0x0 /opt/microchip/xc32/v4.60/bin/bin/../../lib/gcc/pic32mx/8.3.1/../../../../pic32mx/lib/libc-musl.a(vsnprintf.o)
 .mdebug.abi32  0x0000000000000000        0x0 /opt/microchip/xc32/v4.60/bin/bin/../../lib/gcc/pic32mx/8.3.1/../../../../pic32mx/lib/libc-musl.a(stdin.o)
 .mdebug.abi32  0x0000000000000000        0x0 /opt/microchip/xc32/v4.60/bin/bin/../../lib/gcc/pic32mx/8.3.1/../../../../pic32mx/lib/libc-musl.a(stdout.o)
 .mdebug.abi32  0x0000000000000000        0x0 /opt/microchip/xc32/v4.60/bin/bin/../../lib/gcc/pic32mx/8.3.1/../../../../pic32mx/lib/libc-musl.a(setbuf.o)
 .mdebug.abi32  0x0000000000000000        0x0 /opt/microchip/xc32/v4.60/bin/bin/../../lib/gcc/pic32mx/8.3.1/../../../../pic32mx/lib/libc-musl.a(sprintf.o)
 .mdebug.abi32  0x0000000000000000        0x0 /opt/microchip/xc32/v4.60/bin/bin/../../lib/gcc/pic32mx/8.3.1/../../../../pic32mx/lib/libc-musl.a(vsprintf.o)
 .mdebug.abi32  0x0000000000000000        0x0 /opt/microchip/xc32/v4.60/bin/bin/../../lib/gcc/pic32mx/8.3.1/../../../../pic32mx/lib/libc-musl.a(strtol.o)
 .mdebug.abi32  0x0000000000000000        0x0 /opt/microchip/xc32/v4.60/bin/bin/../../lib/gcc/pic32mx/8.3.1/../../../../pic32mx/lib/libc-musl.a(qsort.o)
 .mdebug.abi32  0x0000000000000000        0x0 /opt/microchip/xc32/v4.60/bin/bin/../../lib/gcc/pic32mx/8.3.1/../../../../pic32mx/lib/libc-musl.a(intscan.o)
 .mdebug.abi32  0x0000000000000000        0x0 /opt/microchip/xc32/v4.60/bin/bin/../../lib/gcc/pic32mx/8.3.1/../../../../pic32mx/lib/libc-musl.a(shgetc.o)
 .mdebug.abi32  0x0000000000000000        0x0 /opt/microchip/xc32/v4.60/bin/bin/../../lib/gcc/pic32mx/8.3.1/../../../../pic32mx/lib/libc-musl.a(__uflow.o)
 .mdebug.abi32  0x0000000000000000        0x0 /opt/microchip/xc32/v4.60/bin/bin/../../lib/gcc/pic32mx/8.3.1/../../../../pic32mx/lib/libc-musl.a(__io_init_needed.o)
 .mdebug.abi32  0x0000000000000000        0x0 /opt/microchip/xc32/v4.60/bin/bin/../../lib/gcc/pic32mx/8.3.1/../../../../pic32mx/lib/libc-musl.a(__io_rw_needed.o)
 .mdebug.abi32  0x0000000000000000        0x0 /opt/microchip/xc32/v4.60/bin/bin/../../lib/gcc/pic32mx/8.3.1/../../../../pic32mx/lib/libc-musl.a(__out.o)
 .mdebug.abi32  0x0000000000000000        0x0 /opt/microchip/xc32/v4.60/bin/bin/../../lib/gcc/pic32mx/8.3.1/../../../../pic32mx/lib/libc-musl.a(__stdio_close.o)
 .mdebug.abi32  0x0000000000000000        0x0 /opt/microchip/xc32/v4.60/bin/bin/../../lib/gcc/pic32mx/8.3.1/../../../../pic32mx/lib/libc-musl.a(__stdio_read.o)
 .mdebug.abi32  0x0000000000000000        0x0 /opt/microchip/xc32/v4.60/bin/bin/../../lib/gcc/pic32mx/8.3.1/../../../../pic32mx/lib/libc-musl.a(__towrite_rw.o)
 .mdebug.abi32  0x0000000000000000        0x0 /opt/microchip/xc32/v4.60/bin/bin/../../lib/gcc/pic32mx/8.3.1/../../../../pic32mx/lib/libc-musl.a(setvbuf.o)
 .mdebug.abi32  0x0000000000000000        0x0 /opt/microchip/xc32/v4.60/bin/bin/../../lib/gcc/pic32mx/8.3.1/../../../../pic32mx/lib/libc-musl.a(vfprintf.o)
 .mdebug.abi32  0x0000000000000000        0x0 /opt/microchip/xc32/v4.60/bin/bin/../../lib/gcc/pic32mx/8.3.1/../../../../pic32mx/lib/libc-musl.a(readv.o)
 .mdebug.abi32  0x0000000000000000        0x0 /opt/microchip/xc32/v4.60/bin/bin/../../lib/gcc/pic32mx/8.3.1/../../../../pic32mx/lib/libc-musl.a(__toread.o)
 .mdebug.abi32  0x0000000000000000        0x0 /opt/microchip/xc32/v4.60/bin/bin/../../lib/gcc/pic32mx/8.3.1/../../../../pic32mx/lib/libc-musl.a(__fopen_rw.o)
 .mdebug.abi32  0x0000000000000000        0x0 /opt/microchip/xc32/v4.60/bin/bin/../../lib/gcc/pic32mx/8.3.1/../../../../pic32mx/lib/libc-musl.a(__ftello_rw.o)
 .mdebug.abi32  0x0000000000000000        0x0 /opt/microchip/xc32/v4.60/bin/bin/../../lib/gcc/pic32mx/8.3.1/../../../../pic32mx/lib/libc-musl.a(__init_stdio.o)
 .mdebug.abi32  0x0000000000000000        0x0 /opt/microchip/xc32/v4.60/bin/bin/../../lib/gcc/pic32mx/8.3.1/../../../../pic32mx/lib/libc-musl.a(__io_buf_needed.o)
 .mdebug.abi32  0x0000000000000000        0x0 /opt/microchip/xc32/v4.60/bin/bin/../../lib/gcc/pic32mx/8.3.1/../../../../pic32mx/lib/libc-musl.a(__io_file_needed.o)
 .mdebug.abi32  0x0000000000000000        0x0 /opt/microchip/xc32/v4.60/bin/bin/../../lib/gcc/pic32mx/8.3.1/../../../../pic32mx/lib/libc-musl.a(__io_fmt_needed.o)
 .mdebug.abi32  0x0000000000000000        0x0 /opt/microchip/xc32/v4.60/bin/bin/../../lib/gcc/pic32mx/8.3.1/../../../../pic32mx/lib/libc-musl.a(__io_std_needed.o)
 .mdebug.abi32  0x0000000000000000        0x0 /opt/microchip/xc32/v4.60/bin/bin/../../lib/gcc/pic32mx/8.3.1/../../../../pic32mx/lib/libc-musl.a(__pop_float.o)
 .mdebug.abi32  0x0000000000000000        0x0 /opt/microchip/xc32/v4.60/bin/bin/../../lib/gcc/pic32mx/8.3.1/../../../../pic32mx/lib/libc-musl.a(__pop_int.o)
 .mdebug.abi32  0x0000000000000000        0x0 /opt/microchip/xc32/v4.60/bin/bin/../../lib/gcc/pic32mx/8.3.1/../../../../pic32mx/lib/libc-musl.a(__pop_ptr.o)
 .mdebug.abi32  0x0000000000000000        0x0 /opt/microchip/xc32/v4.60/bin/bin/../../lib/gcc/pic32mx/8.3.1/../../../../pic32mx/lib/libc-musl.a(__printf_core.o)
 .mdebug.abi32  0x0000000000000000        0x0 /opt/microchip/xc32/v4.60/bin/bin/../../lib/gcc/pic32mx/8.3.1/../../../../pic32mx/lib/libc-musl.a(__putc.o)
 .mdebug.abi32  0x0000000000000000        0x0 /opt/microchip/xc32/v4.60/bin/bin/../../lib/gcc/pic32mx/8.3.1/../../../../pic32mx/lib/libc-musl.a(__stderr.o)
 .mdebug.abi32  0x0000000000000000        0x0 /opt/microchip/xc32/v4.60/bin/bin/../../lib/gcc/pic32mx/8.3.1/../../../../pic32mx/lib/libc-musl.a(__stdio_exit.o)
 .mdebug.abi32  0x0000000000000000        0x0 /opt/microchip/xc32/v4.60/bin/bin/../../lib/gcc/pic32mx/8.3.1/../../../../pic32mx/lib/libc-musl.a(__stdio_write.o)
 .mdebug.abi32  0x0000000000000000        0x0 /opt/microchip/xc32/v4.60/bin/bin/../../lib/gcc/pic32mx/8.3.1/../../../../pic32mx/lib/libc-musl.a(__stdout.o)
 .mdebug.abi32  0x0000000000000000        0x0 /opt/microchip/xc32/v4.60/bin/bin/../../lib/gcc/pic32mx/8.3.1/../../../../pic32mx/lib/libc-musl.a(__towrite.o)
 .mdebug.abi32  0x0000000000000000        0x0 /opt/microchip/xc32/v4.60/bin/bin/../../lib/gcc/pic32mx/8.3.1/../../../../pic32mx/lib/libc-musl.a(putc.o)
 .mdebug.abi32  0x0000000000000000        0x0 /opt/microchip/xc32/v4.60/bin/bin/../../lib/gcc/pic32mx/8.3.1/../../../../pic32mx/lib/libc-musl.a(atoi.o)
 .mdebug.abi32  0x0000000000000000        0x0 /opt/microchip/xc32/v4.60/bin/bin/../../lib/gcc/pic32mx/8.3.1/../../../../pic32mx/lib/libc-musl.a(writev.o)
 .mdebug.abi32  0x0000000000000000        0x0 /opt/microchip/xc32/v4.60/bin/bin/../../lib/gcc/pic32mx/8.3.1/../../../../pic32mx/lib/libc-musl.a(__overflow.o)
 .mdebug.abi32  0x0000000000000000        0x0 /opt/microchip/xc32/v4.60/bin/bin/../../lib/gcc/pic32mx/8.3.1/../../../../pic32mx/lib/libc-musl.a(__fclose.o)
 .mdebug.abi32  0x0000000000000000        0x0 /opt/microchip/xc32/v4.60/bin/bin/../../lib/gcc/pic32mx/8.3.1/../../../../pic32mx/lib/libc-musl.a(__fmt_a.o)
 .mdebug.abi32  0x0000000000000000        0x0 /opt/microchip/xc32/v4.60/bin/bin/../../lib/gcc/pic32mx/8.3.1/../../../../pic32mx/lib/libc-musl.a(__fmt_d.o)
 .mdebug.abi32  0x0000000000000000        0x0 /opt/microchip/xc32/v4.60/bin/bin/../../lib/gcc/pic32mx/8.3.1/../../../../pic32mx/lib/libc-musl.a(__fmt_fp.o)
 .mdebug.abi32  0x0000000000000000        0x0 /opt/microchip/xc32/v4.60/bin/bin/../../lib/gcc/pic32mx/8.3.1/../../../../pic32mx/lib/libc-musl.a(__fmt_o.o)
 .mdebug.abi32  0x0000000000000000        0x0 /opt/microchip/xc32/v4.60/bin/bin/../../lib/gcc/pic32mx/8.3.1/../../../../pic32mx/lib/libc-musl.a(__fmt_s.o)
 .mdebug.abi32  0x0000000000000000        0x0 /opt/microchip/xc32/v4.60/bin/bin/../../lib/gcc/pic32mx/8.3.1/../../../../pic32mx/lib/libc-musl.a(__fmt_u.o)
 .mdebug.abi32  0x0000000000000000        0x0 /opt/microchip/xc32/v4.60/bin/bin/../../lib/gcc/pic32mx/8.3.1/../../../../pic32mx/lib/libc-musl.a(__fmt_x.o)
 .mdebug.abi32  0x0000000000000000        0x0 /opt/microchip/xc32/v4.60/bin/bin/../../lib/gcc/pic32mx/8.3.1/../../../../pic32mx/lib/libc-musl.a(__fopen.o)
 .mdebug.abi32  0x0000000000000000        0x0 /opt/microchip/xc32/v4.60/bin/bin/../../lib/gcc/pic32mx/8.3.1/../../../../pic32mx/lib/libc-musl.a(__fseeko.o)
 .mdebug.abi32  0x0000000000000000        0x0 /opt/microchip/xc32/v4.60/bin/bin/../../lib/gcc/pic32mx/8.3.1/../../../../pic32mx/lib/libc-musl.a(__ftello.o)
 .mdebug.abi32  0x0000000000000000        0x0 /opt/microchip/xc32/v4.60/bin/bin/../../lib/gcc/pic32mx/8.3.1/../../../../pic32mx/lib/libc-musl.a(__fwrite.o)
 .mdebug.abi32  0x0000000000000000        0x0 /opt/microchip/xc32/v4.60/bin/bin/../../lib/gcc/pic32mx/8.3.1/../../../../pic32mx/lib/libc-musl.a(__cvt_u.o)
 .mdebug.abi32  0x0000000000000000        0x0 /opt/microchip/xc32/v4.60/bin/bin/../../lib/gcc/pic32mx/8.3.1/../../../../pic32mx/lib/libm-musl.a(fma.o)
 .mdebug.abi32  0x0000000000000000        0x0 /opt/microchip/xc32/v4.60/bin/bin/../../lib/gcc/pic32mx/8.3.1/../../../../pic32mx/lib/libm-musl.a(scalbn.o)
 .mdebug.abi32  0x0000000000000000        0x0 /opt/microchip/xc32/v4.60/bin/bin/../../lib/gcc/pic32mx/8.3.1/../../../../pic32mx/lib/libpic32.a(sbrk.o)
 .mdebug.abi32  0x0000000000000000        0x0 /opt/microchip/xc32/v4.60/bin/bin/../../lib/gcc/pic32mx/8.3.1/../../../../pic32mx/lib/libpic32.a(lseek.o)
 .mdebug.abi32  0x0000000000000000        0x0 /opt/microchip/xc32/v4.60/bin/bin/../../lib/gcc/pic32mx/8.3.1/../../../../pic32mx/lib/libpic32.a(close.o)
 .mdebug.abi32  0x0000000000000000        0x0 /opt/microchip/xc32/v4.60/bin/bin/../../lib/gcc/pic32mx/8.3.1/../../../../pic32mx/lib/libe.a(_floatdidf.o)
 .mdebug.abi32  0x0000000000000000        0x0 /opt/microchip/xc32/v4.60/bin/bin/../../lib/gcc/pic32mx/8.3.1/libgcc.a(_lshrdi3.o)
 .mdebug.abi32  0x0000000000000000        0x0 /opt/microchip/xc32/v4.60/bin/bin/../../lib/gcc/pic32mx/8.3.1/libgcc.a(_ashldi3.o)
 .mdebug.abi32  0x0000000000000000        0x0 /opt/microchip/xc32/v4.60/bin/bin/../../lib/gcc/pic32mx/8.3.1/libgcc.a(_umoddi3.o)

.mdebug.abiN32
 *(.mdebug.abiN32)

.mdebug.abi64
 *(.mdebug.abi64)

.mdebug.abiO64
 *(.mdebug.abiO64)

.mdebug.eabi32
 *(.mdebug.eabi32)

.mdebug.eabi64
 *(.mdebug.eabi64)

.gcc_compiled_long32
 *(.gcc_compiled_long32)

.gcc_compiled_long64
 *(.gcc_compiled_long64)

.stab
 *(.stab)

.stabstr
 *(.stabstr)

.stab.excl
 *(.stab.excl)

.stab.exclstr
 *(.stab.exclstr)

.stab.index
 *(.stab.index)

.stab.indexstr
 *(.stab.indexstr)

.comment        0x0000000000000000      0x114
 *(.comment)
 .comment       0x0000000000000000       0x2b build/default/production/_ext/732082881/drv_eth_pic32_lib.o
                                         0x2c (size before relaxing)
 .comment       0x000000000000002b       0x2c build/default/production/_ext/732082881/drv_ethmac.o
 .comment       0x000000000000002b       0x2c build/default/production/_ext/732082881/drv_ethmac_lib.o
 .comment       0x000000000000002b       0x2c build/default/production/_ext/444070925/drv_ethphy.o
 .comment       0x000000000000002b       0x2c build/default/production/_ext/444070925/drv_extphy_lan8720.o
 .comment       0x000000000000002b       0x2c build/default/production/_ext/438849557/drv_miim_pic32m.o
 .comment       0x000000000000002b       0x2c build/default/production/_ext/438849557/drv_miim.o
 .comment       0x000000000000002b       0x2c build/default/production/_ext/1033058136/helpers.o
 .comment       0x000000000000002b       0x2c build/default/production/_ext/1033058136/dhcp.o
 .comment       0x000000000000002b       0x2c build/default/production/_ext/1033058136/ipv4.o
 .comment       0x000000000000002b       0x2c build/default/production/_ext/1033058136/tcpip_commands.o
 .comment       0x000000000000002b       0x2c build/default/production/_ext/1033058136/tcpip_notify.o
 .comment       0x000000000000002b       0x2c build/default/production/_ext/1033058136/tcpip_helpers.o
 .comment       0x000000000000002b       0x2c build/default/production/_ext/1033058136/tcpip_packet.o
 .comment       0x000000000000002b       0x2c build/default/production/_ext/1033058136/oahash.o
 .comment       0x000000000000002b       0x2c build/default/production/_ext/1033058136/udp.o
 .comment       0x000000000000002b       0x2c build/default/production/_ext/1033058136/arp.o
 .comment       0x000000000000002b       0x2c build/default/production/_ext/1033058136/icmp.o
 .comment       0x000000000000002b       0x2c build/default/production/_ext/1033058136/tcpip_heap_internal.o
 .comment       0x000000000000002b       0x2c build/default/production/_ext/1033058136/hash_fnv.o
 .comment       0x000000000000002b       0x2c build/default/production/_ext/1033058136/dns.o
 .comment       0x000000000000002b       0x2c build/default/production/_ext/1033058136/tcpip_heap_alloc.o
 .comment       0x000000000000002b       0x2c build/default/production/_ext/1033058136/tcpip_manager.o
 .comment       0x000000000000002b       0x2c build/default/production/_ext/1529399856/osal_freertos.o
 .comment       0x000000000000002b       0x2c build/default/production/_ext/60165520/plib_clk.o
 .comment       0x000000000000002b       0x2c build/default/production/_ext/1249264884/plib_coretimer.o
 .comment       0x000000000000002b       0x2c build/default/production/_ext/1865200349/plib_evic.o
 .comment       0x000000000000002b       0x2c build/default/production/_ext/1865254177/plib_gpio.o
 .comment       0x000000000000002b       0x2c build/default/production/_ext/1865657120/plib_uart2.o
 .comment       0x000000000000002b       0x2c build/default/production/_ext/1865657120/plib_uart1.o
 .comment       0x000000000000002b       0x2c build/default/production/_ext/163028504/xc32_monitor.o
 .comment       0x000000000000002b       0x2c build/default/production/_ext/1376093119/sys_command.o
 .comment       0x000000000000002b       0x2c build/default/production/_ext/1832805299/sys_console_uart.o
 .comment       0x000000000000002b       0x2c build/default/production/_ext/1832805299/sys_console.o
 .comment       0x000000000000002b       0x2c build/default/production/_ext/944882569/sys_debug.o
 .comment       0x000000000000002b       0x2c build/default/production/_ext/1881668453/sys_int.o
 .comment       0x000000000000002b       0x2c build/default/production/_ext/1000052432/sys_reset.o
 .comment       0x000000000000002b       0x2c build/default/production/_ext/101884895/sys_time.o
 .comment       0x000000000000002b       0x2c build/default/production/_ext/753841488/sys_time_h2_adapter.o
 .comment       0x000000000000002b       0x2c build/default/production/_ext/1171490990/initialization.o
 .comment       0x000000000000002b       0x2c build/default/production/_ext/1171490990/interrupts.o
 .comment       0x000000000000002b       0x2c build/default/production/_ext/1171490990/freertos_hooks.o
 .comment       0x000000000000002b       0x2c build/default/production/_ext/1171490990/exceptions.o
 .comment       0x000000000000002b       0x2c build/default/production/_ext/1171490990/tasks.o
 .comment       0x000000000000002b       0x2c build/default/production/_ext/1665200909/heap_4.o
 .comment       0x000000000000002b       0x2c build/default/production/_ext/951553248/port.o
 .comment       0x000000000000002b       0x2c build/default/production/_ext/404212886/FreeRTOS_tasks.o
 .comment       0x000000000000002b       0x2c build/default/production/_ext/404212886/event_groups.o
 .comment       0x000000000000002b       0x2c build/default/production/_ext/404212886/list.o
 .comment       0x000000000000002b       0x2c build/default/production/_ext/404212886/queue.o
 .comment       0x000000000000002b       0x2c build/default/production/_ext/404212886/stream_buffer.o
 .comment       0x000000000000002b       0x2c build/default/production/_ext/404212886/timers.o
 .comment       0x000000000000002b       0x2c build/default/production/_ext/404212886/croutine.o
 .comment       0x000000000000002b       0x2c build/default/production/_ext/1360937237/main.o
 .comment       0x000000000000002b       0x2c build/default/production/_ext/1360937237/app.o
 .comment       0x000000000000002b       0x2c build/default/production/_ext/1360937237/ethernet.o
 .comment       0x000000000000002b       0x2c /opt/microchip/xc32/v4.60/bin/bin/../../lib/gcc/pic32mx/8.3.1/libgcc.a(_udivdi3.o)
 .comment       0x000000000000002b       0x2c /opt/microchip/xc32/v4.60/bin/bin/../../lib/gcc/pic32mx/8.3.1/../../../../pic32mx/lib/libpic32.a(default-on-reset.o)
 .comment       0x000000000000002b       0x2c /opt/microchip/xc32/v4.60/bin/bin/../../lib/gcc/pic32mx/8.3.1/../../../../pic32mx/lib/libpic32.a(default-on-bootstrap.o)
 .comment       0x000000000000002b       0x2c /opt/microchip/xc32/v4.60/bin/bin/../../lib/gcc/pic32mx/8.3.1/../../../../pic32mx/lib/libpic32.a(errno.o)
 .comment       0x000000000000002b       0x2c /opt/microchip/xc32/v4.60/bin/bin/../../lib/gcc/pic32mx/8.3.1/../../../../pic32mx/lib/libpic32.a(defaultinterrupt.o)
 .comment       0x000000000000002b       0x2c /opt/microchip/xc32/v4.60/bin/bin/../../lib/gcc/pic32mx/8.3.1/../../../../pic32mx/lib/libc-size-musl.a(memcmp.o)
 .comment       0x000000000000002b       0x2c /opt/microchip/xc32/v4.60/bin/bin/../../lib/gcc/pic32mx/8.3.1/../../../../pic32mx/lib/libc-size-musl.a(memcpy.o)
 .comment       0x000000000000002b       0x2c /opt/microchip/xc32/v4.60/bin/bin/../../lib/gcc/pic32mx/8.3.1/../../../../pic32mx/lib/libc-size-musl.a(memset.o)
 .comment       0x000000000000002b       0x2c /opt/microchip/xc32/v4.60/bin/bin/../../lib/gcc/pic32mx/8.3.1/../../../../pic32mx/lib/libc-size-musl.a(strlen.o)
 .comment       0x000000000000002b       0x2c /opt/microchip/xc32/v4.60/bin/bin/../../lib/gcc/pic32mx/8.3.1/../../../../pic32mx/lib/libc-size-musl.a(strchr.o)
 .comment       0x000000000000002b       0x2c /opt/microchip/xc32/v4.60/bin/bin/../../lib/gcc/pic32mx/8.3.1/../../../../pic32mx/lib/libc-size-musl.a(strchrnul.o)
 .comment       0x000000000000002b       0x2c /opt/microchip/xc32/v4.60/bin/bin/../../lib/gcc/pic32mx/8.3.1/../../../../pic32mx/lib/libc-size-musl.a(strcmp.o)
 .comment       0x000000000000002b       0x2c /opt/microchip/xc32/v4.60/bin/bin/../../lib/gcc/pic32mx/8.3.1/../../../../pic32mx/lib/libc-size-musl.a(strcpy.o)
 .comment       0x000000000000002b       0x2c /opt/microchip/xc32/v4.60/bin/bin/../../lib/gcc/pic32mx/8.3.1/../../../../pic32mx/lib/libc-size-musl.a(strncmp.o)
 .comment       0x000000000000002b       0x2c /opt/microchip/xc32/v4.60/bin/bin/../../lib/gcc/pic32mx/8.3.1/../../../../pic32mx/lib/libc-size-musl.a(strncpy.o)
 .comment       0x000000000000002b       0x2c /opt/microchip/xc32/v4.60/bin/bin/../../lib/gcc/pic32mx/8.3.1/../../../../pic32mx/lib/libc-size-musl.a(strrchr.o)
 .comment       0x000000000000002b       0x2c /opt/microchip/xc32/v4.60/bin/bin/../../lib/gcc/pic32mx/8.3.1/../../../../pic32mx/lib/libc-size-musl.a(strtok.o)
 .comment       0x000000000000002b       0x2c /opt/microchip/xc32/v4.60/bin/bin/../../lib/gcc/pic32mx/8.3.1/../../../../pic32mx/lib/libc-size-musl.a(memrchr.o)
 .comment       0x000000000000002b       0x2c /opt/microchip/xc32/v4.60/bin/bin/../../lib/gcc/pic32mx/8.3.1/../../../../pic32mx/lib/libc-size-musl.a(stpcpy.o)
 .comment       0x000000000000002b       0x2c /opt/microchip/xc32/v4.60/bin/bin/../../lib/gcc/pic32mx/8.3.1/../../../../pic32mx/lib/libc-size-musl.a(stpncpy.o)
 .comment       0x000000000000002b       0x2c /opt/microchip/xc32/v4.60/bin/bin/../../lib/gcc/pic32mx/8.3.1/../../../../pic32mx/lib/libc-size-musl.a(strcspn.o)
 .comment       0x000000000000002b       0x2c /opt/microchip/xc32/v4.60/bin/bin/../../lib/gcc/pic32mx/8.3.1/../../../../pic32mx/lib/libc-size-musl.a(strspn.o)
 .comment       0x000000000000002b       0x2c /opt/microchip/xc32/v4.60/bin/bin/../../lib/gcc/pic32mx/8.3.1/../../../../pic32mx/lib/liblmalloc-musl.a(lite_free.o)
 .comment       0x000000000000002b       0x2c /opt/microchip/xc32/v4.60/bin/bin/../../lib/gcc/pic32mx/8.3.1/../../../../pic32mx/lib/liblmalloc-musl.a(lite_malloc.o)
 .comment       0x000000000000002b       0x2c /opt/microchip/xc32/v4.60/bin/bin/../../lib/gcc/pic32mx/8.3.1/../../../../pic32mx/lib/libc-musl.a(isalnum.o)
 .comment       0x000000000000002b       0x2c /opt/microchip/xc32/v4.60/bin/bin/../../lib/gcc/pic32mx/8.3.1/../../../../pic32mx/lib/libc-musl.a(isxdigit.o)
 .comment       0x000000000000002b       0x2c /opt/microchip/xc32/v4.60/bin/bin/../../lib/gcc/pic32mx/8.3.1/../../../../pic32mx/lib/libc-musl.a(tolower.o)
 .comment       0x000000000000002b       0x2c /opt/microchip/xc32/v4.60/bin/bin/../../lib/gcc/pic32mx/8.3.1/../../../../pic32mx/lib/libc-musl.a(toupper.o)
 .comment       0x000000000000002b       0x2c /opt/microchip/xc32/v4.60/bin/bin/../../lib/gcc/pic32mx/8.3.1/../../../../pic32mx/lib/libc-musl.a(expand_heap.o)
 .comment       0x000000000000002b       0x2c /opt/microchip/xc32/v4.60/bin/bin/../../lib/gcc/pic32mx/8.3.1/../../../../pic32mx/lib/libc-musl.a(rand.o)
 .comment       0x000000000000002b       0x2c /opt/microchip/xc32/v4.60/bin/bin/../../lib/gcc/pic32mx/8.3.1/../../../../pic32mx/lib/libc-musl.a(vsnprintf.o)
 .comment       0x000000000000002b       0x2c /opt/microchip/xc32/v4.60/bin/bin/../../lib/gcc/pic32mx/8.3.1/../../../../pic32mx/lib/libc-musl.a(stdin.o)
 .comment       0x000000000000002b       0x2c /opt/microchip/xc32/v4.60/bin/bin/../../lib/gcc/pic32mx/8.3.1/../../../../pic32mx/lib/libc-musl.a(stdout.o)
 .comment       0x000000000000002b       0x2c /opt/microchip/xc32/v4.60/bin/bin/../../lib/gcc/pic32mx/8.3.1/../../../../pic32mx/lib/libc-musl.a(setbuf.o)
 .comment       0x000000000000002b       0x2c /opt/microchip/xc32/v4.60/bin/bin/../../lib/gcc/pic32mx/8.3.1/../../../../pic32mx/lib/libc-musl.a(sprintf.o)
 .comment       0x000000000000002b       0x2c /opt/microchip/xc32/v4.60/bin/bin/../../lib/gcc/pic32mx/8.3.1/../../../../pic32mx/lib/libc-musl.a(vsprintf.o)
 .comment       0x000000000000002b       0x2c /opt/microchip/xc32/v4.60/bin/bin/../../lib/gcc/pic32mx/8.3.1/../../../../pic32mx/lib/libc-musl.a(strtol.o)
 .comment       0x000000000000002b       0x2c /opt/microchip/xc32/v4.60/bin/bin/../../lib/gcc/pic32mx/8.3.1/../../../../pic32mx/lib/libc-musl.a(qsort.o)
 .comment       0x000000000000002b       0x2c /opt/microchip/xc32/v4.60/bin/bin/../../lib/gcc/pic32mx/8.3.1/../../../../pic32mx/lib/libc-musl.a(intscan.o)
 .comment       0x000000000000002b       0x2c /opt/microchip/xc32/v4.60/bin/bin/../../lib/gcc/pic32mx/8.3.1/../../../../pic32mx/lib/libc-musl.a(shgetc.o)
 .comment       0x000000000000002b       0x2c /opt/microchip/xc32/v4.60/bin/bin/../../lib/gcc/pic32mx/8.3.1/../../../../pic32mx/lib/libc-musl.a(__uflow.o)
 .comment       0x000000000000002b       0x2c /opt/microchip/xc32/v4.60/bin/bin/../../lib/gcc/pic32mx/8.3.1/../../../../pic32mx/lib/libc-musl.a(__io_init_needed.o)
 .comment       0x000000000000002b       0x2c /opt/microchip/xc32/v4.60/bin/bin/../../lib/gcc/pic32mx/8.3.1/../../../../pic32mx/lib/libc-musl.a(__io_rw_needed.o)
 .comment       0x000000000000002b       0x2c /opt/microchip/xc32/v4.60/bin/bin/../../lib/gcc/pic32mx/8.3.1/../../../../pic32mx/lib/libc-musl.a(__out.o)
 .comment       0x000000000000002b       0x2c /opt/microchip/xc32/v4.60/bin/bin/../../lib/gcc/pic32mx/8.3.1/../../../../pic32mx/lib/libc-musl.a(__stdio_close.o)
 .comment       0x000000000000002b       0x2c /opt/microchip/xc32/v4.60/bin/bin/../../lib/gcc/pic32mx/8.3.1/../../../../pic32mx/lib/libc-musl.a(__stdio_read.o)
 .comment       0x000000000000002b       0x2c /opt/microchip/xc32/v4.60/bin/bin/../../lib/gcc/pic32mx/8.3.1/../../../../pic32mx/lib/libc-musl.a(__towrite_rw.o)
 .comment       0x000000000000002b       0x2c /opt/microchip/xc32/v4.60/bin/bin/../../lib/gcc/pic32mx/8.3.1/../../../../pic32mx/lib/libc-musl.a(setvbuf.o)
 .comment       0x000000000000002b       0x2c /opt/microchip/xc32/v4.60/bin/bin/../../lib/gcc/pic32mx/8.3.1/../../../../pic32mx/lib/libc-musl.a(vfprintf.o)
 .comment       0x000000000000002b       0x2c /opt/microchip/xc32/v4.60/bin/bin/../../lib/gcc/pic32mx/8.3.1/../../../../pic32mx/lib/libc-musl.a(readv.o)
 .comment       0x000000000000002b       0x2c /opt/microchip/xc32/v4.60/bin/bin/../../lib/gcc/pic32mx/8.3.1/../../../../pic32mx/lib/libc-musl.a(__toread.o)
 .comment       0x000000000000002b       0x2c /opt/microchip/xc32/v4.60/bin/bin/../../lib/gcc/pic32mx/8.3.1/../../../../pic32mx/lib/libc-musl.a(__fopen_rw.o)
 .comment       0x000000000000002b       0x2c /opt/microchip/xc32/v4.60/bin/bin/../../lib/gcc/pic32mx/8.3.1/../../../../pic32mx/lib/libc-musl.a(__ftello_rw.o)
 .comment       0x000000000000002b       0x2c /opt/microchip/xc32/v4.60/bin/bin/../../lib/gcc/pic32mx/8.3.1/../../../../pic32mx/lib/libc-musl.a(__init_stdio.o)
 .comment       0x000000000000002b       0x2c /opt/microchip/xc32/v4.60/bin/bin/../../lib/gcc/pic32mx/8.3.1/../../../../pic32mx/lib/libc-musl.a(__io_buf_needed.o)
 .comment       0x000000000000002b       0x2c /opt/microchip/xc32/v4.60/bin/bin/../../lib/gcc/pic32mx/8.3.1/../../../../pic32mx/lib/libc-musl.a(__io_file_needed.o)
 .comment       0x000000000000002b       0x2c /opt/microchip/xc32/v4.60/bin/bin/../../lib/gcc/pic32mx/8.3.1/../../../../pic32mx/lib/libc-musl.a(__io_fmt_needed.o)
 .comment       0x000000000000002b       0x2c /opt/microchip/xc32/v4.60/bin/bin/../../lib/gcc/pic32mx/8.3.1/../../../../pic32mx/lib/libc-musl.a(__io_std_needed.o)
 .comment       0x000000000000002b       0x2c /opt/microchip/xc32/v4.60/bin/bin/../../lib/gcc/pic32mx/8.3.1/../../../../pic32mx/lib/libc-musl.a(__pop_float.o)
 .comment       0x000000000000002b       0x2c /opt/microchip/xc32/v4.60/bin/bin/../../lib/gcc/pic32mx/8.3.1/../../../../pic32mx/lib/libc-musl.a(__pop_int.o)
 .comment       0x000000000000002b       0x2c /opt/microchip/xc32/v4.60/bin/bin/../../lib/gcc/pic32mx/8.3.1/../../../../pic32mx/lib/libc-musl.a(__pop_ptr.o)
 .comment       0x000000000000002b       0x2c /opt/microchip/xc32/v4.60/bin/bin/../../lib/gcc/pic32mx/8.3.1/../../../../pic32mx/lib/libc-musl.a(__printf_core.o)
 .comment       0x000000000000002b       0x2c /opt/microchip/xc32/v4.60/bin/bin/../../lib/gcc/pic32mx/8.3.1/../../../../pic32mx/lib/libc-musl.a(__putc.o)
 .comment       0x000000000000002b       0x2c /opt/microchip/xc32/v4.60/bin/bin/../../lib/gcc/pic32mx/8.3.1/../../../../pic32mx/lib/libc-musl.a(__stderr.o)
 .comment       0x000000000000002b       0x2c /opt/microchip/xc32/v4.60/bin/bin/../../lib/gcc/pic32mx/8.3.1/../../../../pic32mx/lib/libc-musl.a(__stdio_exit.o)
 .comment       0x000000000000002b       0x2c /opt/microchip/xc32/v4.60/bin/bin/../../lib/gcc/pic32mx/8.3.1/../../../../pic32mx/lib/libc-musl.a(__stdio_write.o)
 .comment       0x000000000000002b       0x2c /opt/microchip/xc32/v4.60/bin/bin/../../lib/gcc/pic32mx/8.3.1/../../../../pic32mx/lib/libc-musl.a(__stdout.o)
 .comment       0x000000000000002b       0x2c /opt/microchip/xc32/v4.60/bin/bin/../../lib/gcc/pic32mx/8.3.1/../../../../pic32mx/lib/libc-musl.a(__towrite.o)
 .comment       0x000000000000002b       0x2c /opt/microchip/xc32/v4.60/bin/bin/../../lib/gcc/pic32mx/8.3.1/../../../../pic32mx/lib/libc-musl.a(putc.o)
 .comment       0x000000000000002b       0x2c /opt/microchip/xc32/v4.60/bin/bin/../../lib/gcc/pic32mx/8.3.1/../../../../pic32mx/lib/libc-musl.a(atoi.o)
 .comment       0x000000000000002b       0x2c /opt/microchip/xc32/v4.60/bin/bin/../../lib/gcc/pic32mx/8.3.1/../../../../pic32mx/lib/libc-musl.a(writev.o)
 .comment       0x000000000000002b       0x2c /opt/microchip/xc32/v4.60/bin/bin/../../lib/gcc/pic32mx/8.3.1/../../../../pic32mx/lib/libc-musl.a(__overflow.o)
 .comment       0x000000000000002b       0x2c /opt/microchip/xc32/v4.60/bin/bin/../../lib/gcc/pic32mx/8.3.1/../../../../pic32mx/lib/libc-musl.a(__fclose.o)
 .comment       0x000000000000002b       0x2c /opt/microchip/xc32/v4.60/bin/bin/../../lib/gcc/pic32mx/8.3.1/../../../../pic32mx/lib/libc-musl.a(__fmt_a.o)
 .comment       0x000000000000002b       0x2c /opt/microchip/xc32/v4.60/bin/bin/../../lib/gcc/pic32mx/8.3.1/../../../../pic32mx/lib/libc-musl.a(__fmt_d.o)
 .comment       0x000000000000002b       0x2c /opt/microchip/xc32/v4.60/bin/bin/../../lib/gcc/pic32mx/8.3.1/../../../../pic32mx/lib/libc-musl.a(__fmt_fp.o)
 .comment       0x000000000000002b       0x2c /opt/microchip/xc32/v4.60/bin/bin/../../lib/gcc/pic32mx/8.3.1/../../../../pic32mx/lib/libc-musl.a(__fmt_o.o)
 .comment       0x000000000000002b       0x2c /opt/microchip/xc32/v4.60/bin/bin/../../lib/gcc/pic32mx/8.3.1/../../../../pic32mx/lib/libc-musl.a(__fmt_s.o)
 .comment       0x000000000000002b       0x2c /opt/microchip/xc32/v4.60/bin/bin/../../lib/gcc/pic32mx/8.3.1/../../../../pic32mx/lib/libc-musl.a(__fmt_u.o)
 .comment       0x000000000000002b       0x2c /opt/microchip/xc32/v4.60/bin/bin/../../lib/gcc/pic32mx/8.3.1/../../../../pic32mx/lib/libc-musl.a(__fmt_x.o)
 .comment       0x000000000000002b       0x2c /opt/microchip/xc32/v4.60/bin/bin/../../lib/gcc/pic32mx/8.3.1/../../../../pic32mx/lib/libc-musl.a(__fopen.o)
 .comment       0x000000000000002b       0x2c /opt/microchip/xc32/v4.60/bin/bin/../../lib/gcc/pic32mx/8.3.1/../../../../pic32mx/lib/libc-musl.a(__fseeko.o)
 .comment       0x000000000000002b       0x2c /opt/microchip/xc32/v4.60/bin/bin/../../lib/gcc/pic32mx/8.3.1/../../../../pic32mx/lib/libc-musl.a(__ftello.o)
 .comment       0x000000000000002b       0x2c /opt/microchip/xc32/v4.60/bin/bin/../../lib/gcc/pic32mx/8.3.1/../../../../pic32mx/lib/libc-musl.a(__fwrite.o)
 .comment       0x000000000000002b       0x2c /opt/microchip/xc32/v4.60/bin/bin/../../lib/gcc/pic32mx/8.3.1/../../../../pic32mx/lib/libc-musl.a(__cvt_u.o)
 .comment       0x000000000000002b       0x2c /opt/microchip/xc32/v4.60/bin/bin/../../lib/gcc/pic32mx/8.3.1/../../../../pic32mx/lib/libm-musl.a(fma.o)
 .comment       0x000000000000002b       0x2c /opt/microchip/xc32/v4.60/bin/bin/../../lib/gcc/pic32mx/8.3.1/../../../../pic32mx/lib/libm-musl.a(scalbn.o)
 .comment       0x000000000000002b       0x4b /opt/microchip/xc32/v4.60/bin/bin/../../lib/gcc/pic32mx/8.3.1/../../../../pic32mx/lib/libpic32.a(sbrk.o)
                                         0x77 (size before relaxing)
 .comment       0x0000000000000076       0x2c /opt/microchip/xc32/v4.60/bin/bin/../../lib/gcc/pic32mx/8.3.1/../../../../pic32mx/lib/libpic32.a(lseek.o)
 .comment       0x0000000000000076       0x2c /opt/microchip/xc32/v4.60/bin/bin/../../lib/gcc/pic32mx/8.3.1/../../../../pic32mx/lib/libpic32.a(close.o)
 .comment       0x0000000000000076       0x9e /opt/microchip/xc32/v4.60/bin/bin/../../lib/gcc/pic32mx/8.3.1/../../../../pic32mx/lib/libe.a(_floatdidf.o)
                                         0xca (size before relaxing)
 .comment       0x0000000000000114       0x2c /opt/microchip/xc32/v4.60/bin/bin/../../lib/gcc/pic32mx/8.3.1/libgcc.a(_lshrdi3.o)
 .comment       0x0000000000000114       0x2c /opt/microchip/xc32/v4.60/bin/bin/../../lib/gcc/pic32mx/8.3.1/libgcc.a(_ashldi3.o)
 .comment       0x0000000000000114       0x2c /opt/microchip/xc32/v4.60/bin/bin/../../lib/gcc/pic32mx/8.3.1/libgcc.a(_umoddi3.o)

.debug
 *.elf(.debug)
 *(.debug)

.line
 *.elf(.line)
 *(.line)

.debug_srcinfo
 *.elf(.debug_srcinfo)
 *(.debug_srcinfo)

.debug_sfnames
 *.elf(.debug_sfnames)
 *(.debug_sfnames)

.debug_aranges  0x0000000000000000     0x14d8
 *.elf(.debug_aranges)
 *(.debug_aranges)
 .debug_aranges
                0x0000000000000000       0x20 build/default/production/_ext/732082881/drv_eth_pic32_lib.o
 .debug_aranges
                0x0000000000000020       0x20 build/default/production/_ext/732082881/drv_ethmac.o
 .debug_aranges
                0x0000000000000040       0x20 build/default/production/_ext/732082881/drv_ethmac_lib.o
 .debug_aranges
                0x0000000000000060       0x20 build/default/production/_ext/444070925/drv_ethphy.o
 .debug_aranges
                0x0000000000000080       0x20 build/default/production/_ext/444070925/drv_extphy_lan8720.o
 .debug_aranges
                0x00000000000000a0       0x20 build/default/production/_ext/438849557/drv_miim_pic32m.o
 .debug_aranges
                0x00000000000000c0       0x20 build/default/production/_ext/438849557/drv_miim.o
 .debug_aranges
                0x00000000000000e0       0x20 build/default/production/_ext/1033058136/helpers.o
 .debug_aranges
                0x0000000000000100       0x20 build/default/production/_ext/1033058136/dhcp.o
 .debug_aranges
                0x0000000000000120       0x20 build/default/production/_ext/1033058136/ipv4.o
 .debug_aranges
                0x0000000000000140       0x20 build/default/production/_ext/1033058136/tcpip_commands.o
 .debug_aranges
                0x0000000000000160       0x20 build/default/production/_ext/1033058136/tcpip_notify.o
 .debug_aranges
                0x0000000000000180       0x20 build/default/production/_ext/1033058136/tcpip_helpers.o
 .debug_aranges
                0x00000000000001a0       0x20 build/default/production/_ext/1033058136/tcpip_packet.o
 .debug_aranges
                0x00000000000001c0       0x20 build/default/production/_ext/1033058136/oahash.o
 .debug_aranges
                0x00000000000001e0       0x20 build/default/production/_ext/1033058136/udp.o
 .debug_aranges
                0x0000000000000200       0x20 build/default/production/_ext/1033058136/arp.o
 .debug_aranges
                0x0000000000000220       0x20 build/default/production/_ext/1033058136/icmp.o
 .debug_aranges
                0x0000000000000240       0x20 build/default/production/_ext/1033058136/tcpip_heap_internal.o
 .debug_aranges
                0x0000000000000260       0x20 build/default/production/_ext/1033058136/hash_fnv.o
 .debug_aranges
                0x0000000000000280       0x20 build/default/production/_ext/1033058136/dns.o
 .debug_aranges
                0x00000000000002a0       0x20 build/default/production/_ext/1033058136/tcpip_helper_c32.o
 .debug_aranges
                0x00000000000002c0       0x20 build/default/production/_ext/1033058136/tcpip_heap_alloc.o
 .debug_aranges
                0x00000000000002e0       0x20 build/default/production/_ext/1033058136/tcpip_manager.o
 .debug_aranges
                0x0000000000000300       0x20 build/default/production/_ext/1529399856/osal_freertos.o
 .debug_aranges
                0x0000000000000320       0x20 build/default/production/_ext/60165520/plib_clk.o
 .debug_aranges
                0x0000000000000340       0x20 build/default/production/_ext/1249264884/plib_coretimer.o
 .debug_aranges
                0x0000000000000360       0x20 build/default/production/_ext/1865200349/plib_evic.o
 .debug_aranges
                0x0000000000000380       0x20 build/default/production/_ext/1865254177/plib_gpio.o
 .debug_aranges
                0x00000000000003a0       0x20 build/default/production/_ext/1865657120/plib_uart2.o
 .debug_aranges
                0x00000000000003c0       0x20 build/default/production/_ext/1865657120/plib_uart1.o
 .debug_aranges
                0x00000000000003e0       0x20 build/default/production/_ext/163028504/xc32_monitor.o
 .debug_aranges
                0x0000000000000400       0x20 build/default/production/_ext/1376093119/sys_command.o
 .debug_aranges
                0x0000000000000420       0x20 build/default/production/_ext/1832805299/sys_console_uart.o
 .debug_aranges
                0x0000000000000440       0x20 build/default/production/_ext/1832805299/sys_console.o
 .debug_aranges
                0x0000000000000460       0x20 build/default/production/_ext/944882569/sys_debug.o
 .debug_aranges
                0x0000000000000480       0x20 build/default/production/_ext/1881668453/sys_int.o
 .debug_aranges
                0x00000000000004a0       0x20 build/default/production/_ext/1000052432/sys_reset.o
 .debug_aranges
                0x00000000000004c0       0x20 build/default/production/_ext/101884895/sys_time.o
 .debug_aranges
                0x00000000000004e0       0x20 build/default/production/_ext/753841488/sys_time_h2_adapter.o
 .debug_aranges
                0x0000000000000500       0x20 build/default/production/_ext/1171490990/initialization.o
 .debug_aranges
                0x0000000000000520       0x20 build/default/production/_ext/1171490990/interrupts.o
 .debug_aranges
                0x0000000000000540       0x20 build/default/production/_ext/1171490990/freertos_hooks.o
 .debug_aranges
                0x0000000000000560       0x48 build/default/production/_ext/1171490990/interrupts_a.o
 .debug_aranges
                0x00000000000005a8       0x20 build/default/production/_ext/1171490990/exceptions.o
 .debug_aranges
                0x00000000000005c8       0x20 build/default/production/_ext/1171490990/tasks.o
 .debug_aranges
                0x00000000000005e8       0x20 build/default/production/_ext/1665200909/heap_4.o
 .debug_aranges
                0x0000000000000608       0x20 build/default/production/_ext/951553248/port_asm.o
 .debug_aranges
                0x0000000000000628       0x20 build/default/production/_ext/951553248/port.o
 .debug_aranges
                0x0000000000000648       0x20 build/default/production/_ext/404212886/FreeRTOS_tasks.o
 .debug_aranges
                0x0000000000000668       0x20 build/default/production/_ext/404212886/event_groups.o
 .debug_aranges
                0x0000000000000688       0x20 build/default/production/_ext/404212886/list.o
 .debug_aranges
                0x00000000000006a8       0x20 build/default/production/_ext/404212886/queue.o
 .debug_aranges
                0x00000000000006c8       0x20 build/default/production/_ext/404212886/stream_buffer.o
 .debug_aranges
                0x00000000000006e8       0x18 build/default/production/_ext/404212886/timers.o
 .debug_aranges
                0x0000000000000700       0x18 build/default/production/_ext/404212886/croutine.o
 .debug_aranges
                0x0000000000000718       0x20 build/default/production/_ext/1360937237/main.o
 .debug_aranges
                0x0000000000000738       0x20 build/default/production/_ext/1360937237/app.o
 .debug_aranges
                0x0000000000000758       0x20 build/default/production/_ext/1360937237/ethernet.o
 .debug_aranges
                0x0000000000000778       0x20 /opt/microchip/xc32/v4.60/bin/bin/../../lib/gcc/pic32mx/8.3.1/libgcc.a(_udivdi3.o)
 .debug_aranges
                0x0000000000000798       0x20 /opt/microchip/xc32/v4.60/bin/bin/../../lib/gcc/pic32mx/8.3.1/../../../../pic32mx/lib/libpic32.a(default-on-reset.o)
 .debug_aranges
                0x00000000000007b8       0x20 /opt/microchip/xc32/v4.60/bin/bin/../../lib/gcc/pic32mx/8.3.1/../../../../pic32mx/lib/libpic32.a(default-on-bootstrap.o)
 .debug_aranges
                0x00000000000007d8       0x20 /opt/microchip/xc32/v4.60/bin/bin/../../lib/gcc/pic32mx/8.3.1/../../../../pic32mx/lib/libpic32.a(defaultinterrupt.o)
 .debug_aranges
                0x00000000000007f8       0x20 /opt/microchip/xc32/v4.60/bin/bin/../../lib/gcc/pic32mx/8.3.1/../../../../pic32mx/lib/libc-size-musl.a(memcmp.o)
 .debug_aranges
                0x0000000000000818       0x20 /opt/microchip/xc32/v4.60/bin/bin/../../lib/gcc/pic32mx/8.3.1/../../../../pic32mx/lib/libc-size-musl.a(memcpy.o)
 .debug_aranges
                0x0000000000000838       0x20 /opt/microchip/xc32/v4.60/bin/bin/../../lib/gcc/pic32mx/8.3.1/../../../../pic32mx/lib/libc-size-musl.a(memset.o)
 .debug_aranges
                0x0000000000000858       0x20 /opt/microchip/xc32/v4.60/bin/bin/../../lib/gcc/pic32mx/8.3.1/../../../../pic32mx/lib/libc-size-musl.a(strlen.o)
 .debug_aranges
                0x0000000000000878       0x20 /opt/microchip/xc32/v4.60/bin/bin/../../lib/gcc/pic32mx/8.3.1/../../../../pic32mx/lib/libc-size-musl.a(strchr.o)
 .debug_aranges
                0x0000000000000898       0x20 /opt/microchip/xc32/v4.60/bin/bin/../../lib/gcc/pic32mx/8.3.1/../../../../pic32mx/lib/libc-size-musl.a(strchrnul.o)
 .debug_aranges
                0x00000000000008b8       0x20 /opt/microchip/xc32/v4.60/bin/bin/../../lib/gcc/pic32mx/8.3.1/../../../../pic32mx/lib/libc-size-musl.a(strcmp.o)
 .debug_aranges
                0x00000000000008d8       0x20 /opt/microchip/xc32/v4.60/bin/bin/../../lib/gcc/pic32mx/8.3.1/../../../../pic32mx/lib/libc-size-musl.a(strcpy.o)
 .debug_aranges
                0x00000000000008f8       0x20 /opt/microchip/xc32/v4.60/bin/bin/../../lib/gcc/pic32mx/8.3.1/../../../../pic32mx/lib/libc-size-musl.a(strncmp.o)
 .debug_aranges
                0x0000000000000918       0x20 /opt/microchip/xc32/v4.60/bin/bin/../../lib/gcc/pic32mx/8.3.1/../../../../pic32mx/lib/libc-size-musl.a(strncpy.o)
 .debug_aranges
                0x0000000000000938       0x20 /opt/microchip/xc32/v4.60/bin/bin/../../lib/gcc/pic32mx/8.3.1/../../../../pic32mx/lib/libc-size-musl.a(strrchr.o)
 .debug_aranges
                0x0000000000000958       0x20 /opt/microchip/xc32/v4.60/bin/bin/../../lib/gcc/pic32mx/8.3.1/../../../../pic32mx/lib/libc-size-musl.a(strtok.o)
 .debug_aranges
                0x0000000000000978       0x20 /opt/microchip/xc32/v4.60/bin/bin/../../lib/gcc/pic32mx/8.3.1/../../../../pic32mx/lib/libc-size-musl.a(memrchr.o)
 .debug_aranges
                0x0000000000000998       0x20 /opt/microchip/xc32/v4.60/bin/bin/../../lib/gcc/pic32mx/8.3.1/../../../../pic32mx/lib/libc-size-musl.a(stpcpy.o)
 .debug_aranges
                0x00000000000009b8       0x20 /opt/microchip/xc32/v4.60/bin/bin/../../lib/gcc/pic32mx/8.3.1/../../../../pic32mx/lib/libc-size-musl.a(stpncpy.o)
 .debug_aranges
                0x00000000000009d8       0x20 /opt/microchip/xc32/v4.60/bin/bin/../../lib/gcc/pic32mx/8.3.1/../../../../pic32mx/lib/libc-size-musl.a(strcspn.o)
 .debug_aranges
                0x00000000000009f8       0x20 /opt/microchip/xc32/v4.60/bin/bin/../../lib/gcc/pic32mx/8.3.1/../../../../pic32mx/lib/libc-size-musl.a(strspn.o)
 .debug_aranges
                0x0000000000000a18       0x30 /opt/microchip/xc32/v4.60/bin/bin/../../lib/gcc/pic32mx/8.3.1/../../../../pic32mx/lib/liblmalloc-musl.a(lite_free.o)
 .debug_aranges
                0x0000000000000a48       0x20 /opt/microchip/xc32/v4.60/bin/bin/../../lib/gcc/pic32mx/8.3.1/../../../../pic32mx/lib/liblmalloc-musl.a(lite_malloc.o)
 .debug_aranges
                0x0000000000000a68       0x28 /opt/microchip/xc32/v4.60/bin/bin/../../lib/gcc/pic32mx/8.3.1/../../../../pic32mx/lib/libc-musl.a(isalnum.o)
 .debug_aranges
                0x0000000000000a90       0x28 /opt/microchip/xc32/v4.60/bin/bin/../../lib/gcc/pic32mx/8.3.1/../../../../pic32mx/lib/libc-musl.a(isxdigit.o)
 .debug_aranges
                0x0000000000000ab8       0x28 /opt/microchip/xc32/v4.60/bin/bin/../../lib/gcc/pic32mx/8.3.1/../../../../pic32mx/lib/libc-musl.a(tolower.o)
 .debug_aranges
                0x0000000000000ae0       0x28 /opt/microchip/xc32/v4.60/bin/bin/../../lib/gcc/pic32mx/8.3.1/../../../../pic32mx/lib/libc-musl.a(toupper.o)
 .debug_aranges
                0x0000000000000b08       0x20 /opt/microchip/xc32/v4.60/bin/bin/../../lib/gcc/pic32mx/8.3.1/../../../../pic32mx/lib/libc-musl.a(expand_heap.o)
 .debug_aranges
                0x0000000000000b28       0x28 /opt/microchip/xc32/v4.60/bin/bin/../../lib/gcc/pic32mx/8.3.1/../../../../pic32mx/lib/libc-musl.a(rand.o)
 .debug_aranges
                0x0000000000000b50       0x20 /opt/microchip/xc32/v4.60/bin/bin/../../lib/gcc/pic32mx/8.3.1/../../../../pic32mx/lib/libc-musl.a(vsnprintf.o)
 .debug_aranges
                0x0000000000000b70       0x28 /opt/microchip/xc32/v4.60/bin/bin/../../lib/gcc/pic32mx/8.3.1/../../../../pic32mx/lib/libc-musl.a(stdin.o)
 .debug_aranges
                0x0000000000000b98       0x30 /opt/microchip/xc32/v4.60/bin/bin/../../lib/gcc/pic32mx/8.3.1/../../../../pic32mx/lib/libc-musl.a(stdout.o)
 .debug_aranges
                0x0000000000000bc8       0x20 /opt/microchip/xc32/v4.60/bin/bin/../../lib/gcc/pic32mx/8.3.1/../../../../pic32mx/lib/libc-musl.a(setbuf.o)
 .debug_aranges
                0x0000000000000be8       0x20 /opt/microchip/xc32/v4.60/bin/bin/../../lib/gcc/pic32mx/8.3.1/../../../../pic32mx/lib/libc-musl.a(sprintf.o)
 .debug_aranges
                0x0000000000000c08       0x20 /opt/microchip/xc32/v4.60/bin/bin/../../lib/gcc/pic32mx/8.3.1/../../../../pic32mx/lib/libc-musl.a(vsprintf.o)
 .debug_aranges
                0x0000000000000c28       0x50 /opt/microchip/xc32/v4.60/bin/bin/../../lib/gcc/pic32mx/8.3.1/../../../../pic32mx/lib/libc-musl.a(strtol.o)
 .debug_aranges
                0x0000000000000c78       0x50 /opt/microchip/xc32/v4.60/bin/bin/../../lib/gcc/pic32mx/8.3.1/../../../../pic32mx/lib/libc-musl.a(qsort.o)
 .debug_aranges
                0x0000000000000cc8       0x20 /opt/microchip/xc32/v4.60/bin/bin/../../lib/gcc/pic32mx/8.3.1/../../../../pic32mx/lib/libc-musl.a(intscan.o)
 .debug_aranges
                0x0000000000000ce8       0x28 /opt/microchip/xc32/v4.60/bin/bin/../../lib/gcc/pic32mx/8.3.1/../../../../pic32mx/lib/libc-musl.a(shgetc.o)
 .debug_aranges
                0x0000000000000d10       0x20 /opt/microchip/xc32/v4.60/bin/bin/../../lib/gcc/pic32mx/8.3.1/../../../../pic32mx/lib/libc-musl.a(__uflow.o)
 .debug_aranges
                0x0000000000000d30       0x28 /opt/microchip/xc32/v4.60/bin/bin/../../lib/gcc/pic32mx/8.3.1/../../../../pic32mx/lib/libc-musl.a(__io_init_needed.o)
 .debug_aranges
                0x0000000000000d58       0x20 /opt/microchip/xc32/v4.60/bin/bin/../../lib/gcc/pic32mx/8.3.1/../../../../pic32mx/lib/libc-musl.a(__io_rw_needed.o)
 .debug_aranges
                0x0000000000000d78       0x28 /opt/microchip/xc32/v4.60/bin/bin/../../lib/gcc/pic32mx/8.3.1/../../../../pic32mx/lib/libc-musl.a(__out.o)
 .debug_aranges
                0x0000000000000da0       0x28 /opt/microchip/xc32/v4.60/bin/bin/../../lib/gcc/pic32mx/8.3.1/../../../../pic32mx/lib/libc-musl.a(__stdio_close.o)
 .debug_aranges
                0x0000000000000dc8       0x20 /opt/microchip/xc32/v4.60/bin/bin/../../lib/gcc/pic32mx/8.3.1/../../../../pic32mx/lib/libc-musl.a(__stdio_read.o)
 .debug_aranges
                0x0000000000000de8       0x20 /opt/microchip/xc32/v4.60/bin/bin/../../lib/gcc/pic32mx/8.3.1/../../../../pic32mx/lib/libc-musl.a(__towrite_rw.o)
 .debug_aranges
                0x0000000000000e08       0x28 /opt/microchip/xc32/v4.60/bin/bin/../../lib/gcc/pic32mx/8.3.1/../../../../pic32mx/lib/libc-musl.a(setvbuf.o)
 .debug_aranges
                0x0000000000000e30       0x28 /opt/microchip/xc32/v4.60/bin/bin/../../lib/gcc/pic32mx/8.3.1/../../../../pic32mx/lib/libc-musl.a(vfprintf.o)
 .debug_aranges
                0x0000000000000e58       0x20 /opt/microchip/xc32/v4.60/bin/bin/../../lib/gcc/pic32mx/8.3.1/../../../../pic32mx/lib/libc-musl.a(readv.o)
 .debug_aranges
                0x0000000000000e78       0x28 /opt/microchip/xc32/v4.60/bin/bin/../../lib/gcc/pic32mx/8.3.1/../../../../pic32mx/lib/libc-musl.a(__toread.o)
 .debug_aranges
                0x0000000000000ea0       0x20 /opt/microchip/xc32/v4.60/bin/bin/../../lib/gcc/pic32mx/8.3.1/../../../../pic32mx/lib/libc-musl.a(__fopen_rw.o)
 .debug_aranges
                0x0000000000000ec0       0x20 /opt/microchip/xc32/v4.60/bin/bin/../../lib/gcc/pic32mx/8.3.1/../../../../pic32mx/lib/libc-musl.a(__ftello_rw.o)
 .debug_aranges
                0x0000000000000ee0       0x28 /opt/microchip/xc32/v4.60/bin/bin/../../lib/gcc/pic32mx/8.3.1/../../../../pic32mx/lib/libc-musl.a(__init_stdio.o)
 .debug_aranges
                0x0000000000000f08       0x20 /opt/microchip/xc32/v4.60/bin/bin/../../lib/gcc/pic32mx/8.3.1/../../../../pic32mx/lib/libc-musl.a(__io_buf_needed.o)
 .debug_aranges
                0x0000000000000f28       0x20 /opt/microchip/xc32/v4.60/bin/bin/../../lib/gcc/pic32mx/8.3.1/../../../../pic32mx/lib/libc-musl.a(__io_file_needed.o)
 .debug_aranges
                0x0000000000000f48       0x20 /opt/microchip/xc32/v4.60/bin/bin/../../lib/gcc/pic32mx/8.3.1/../../../../pic32mx/lib/libc-musl.a(__io_fmt_needed.o)
 .debug_aranges
                0x0000000000000f68       0x20 /opt/microchip/xc32/v4.60/bin/bin/../../lib/gcc/pic32mx/8.3.1/../../../../pic32mx/lib/libc-musl.a(__io_std_needed.o)
 .debug_aranges
                0x0000000000000f88       0x20 /opt/microchip/xc32/v4.60/bin/bin/../../lib/gcc/pic32mx/8.3.1/../../../../pic32mx/lib/libc-musl.a(__pop_float.o)
 .debug_aranges
                0x0000000000000fa8       0x20 /opt/microchip/xc32/v4.60/bin/bin/../../lib/gcc/pic32mx/8.3.1/../../../../pic32mx/lib/libc-musl.a(__pop_int.o)
 .debug_aranges
                0x0000000000000fc8       0x20 /opt/microchip/xc32/v4.60/bin/bin/../../lib/gcc/pic32mx/8.3.1/../../../../pic32mx/lib/libc-musl.a(__pop_ptr.o)
 .debug_aranges
                0x0000000000000fe8       0x50 /opt/microchip/xc32/v4.60/bin/bin/../../lib/gcc/pic32mx/8.3.1/../../../../pic32mx/lib/libc-musl.a(__printf_core.o)
 .debug_aranges
                0x0000000000001038       0x20 /opt/microchip/xc32/v4.60/bin/bin/../../lib/gcc/pic32mx/8.3.1/../../../../pic32mx/lib/libc-musl.a(__putc.o)
 .debug_aranges
                0x0000000000001058       0x30 /opt/microchip/xc32/v4.60/bin/bin/../../lib/gcc/pic32mx/8.3.1/../../../../pic32mx/lib/libc-musl.a(__stderr.o)
 .debug_aranges
                0x0000000000001088       0x30 /opt/microchip/xc32/v4.60/bin/bin/../../lib/gcc/pic32mx/8.3.1/../../../../pic32mx/lib/libc-musl.a(__stdio_exit.o)
 .debug_aranges
                0x00000000000010b8       0x28 /opt/microchip/xc32/v4.60/bin/bin/../../lib/gcc/pic32mx/8.3.1/../../../../pic32mx/lib/libc-musl.a(__stdio_write.o)
 .debug_aranges
                0x00000000000010e0       0x30 /opt/microchip/xc32/v4.60/bin/bin/../../lib/gcc/pic32mx/8.3.1/../../../../pic32mx/lib/libc-musl.a(__stdout.o)
 .debug_aranges
                0x0000000000001110       0x28 /opt/microchip/xc32/v4.60/bin/bin/../../lib/gcc/pic32mx/8.3.1/../../../../pic32mx/lib/libc-musl.a(__towrite.o)
 .debug_aranges
                0x0000000000001138       0x30 /opt/microchip/xc32/v4.60/bin/bin/../../lib/gcc/pic32mx/8.3.1/../../../../pic32mx/lib/libc-musl.a(putc.o)
 .debug_aranges
                0x0000000000001168       0x20 /opt/microchip/xc32/v4.60/bin/bin/../../lib/gcc/pic32mx/8.3.1/../../../../pic32mx/lib/libc-musl.a(atoi.o)
 .debug_aranges
                0x0000000000001188       0x20 /opt/microchip/xc32/v4.60/bin/bin/../../lib/gcc/pic32mx/8.3.1/../../../../pic32mx/lib/libc-musl.a(writev.o)
 .debug_aranges
                0x00000000000011a8       0x20 /opt/microchip/xc32/v4.60/bin/bin/../../lib/gcc/pic32mx/8.3.1/../../../../pic32mx/lib/libc-musl.a(__overflow.o)
 .debug_aranges
                0x00000000000011c8       0x20 /opt/microchip/xc32/v4.60/bin/bin/../../lib/gcc/pic32mx/8.3.1/../../../../pic32mx/lib/libc-musl.a(__fclose.o)
 .debug_aranges
                0x00000000000011e8       0x20 /opt/microchip/xc32/v4.60/bin/bin/../../lib/gcc/pic32mx/8.3.1/../../../../pic32mx/lib/libc-musl.a(__fmt_a.o)
 .debug_aranges
                0x0000000000001208       0x20 /opt/microchip/xc32/v4.60/bin/bin/../../lib/gcc/pic32mx/8.3.1/../../../../pic32mx/lib/libc-musl.a(__fmt_d.o)
 .debug_aranges
                0x0000000000001228       0x20 /opt/microchip/xc32/v4.60/bin/bin/../../lib/gcc/pic32mx/8.3.1/../../../../pic32mx/lib/libc-musl.a(__fmt_fp.o)
 .debug_aranges
                0x0000000000001248       0x20 /opt/microchip/xc32/v4.60/bin/bin/../../lib/gcc/pic32mx/8.3.1/../../../../pic32mx/lib/libc-musl.a(__fmt_o.o)
 .debug_aranges
                0x0000000000001268       0x20 /opt/microchip/xc32/v4.60/bin/bin/../../lib/gcc/pic32mx/8.3.1/../../../../pic32mx/lib/libc-musl.a(__fmt_s.o)
 .debug_aranges
                0x0000000000001288       0x20 /opt/microchip/xc32/v4.60/bin/bin/../../lib/gcc/pic32mx/8.3.1/../../../../pic32mx/lib/libc-musl.a(__fmt_u.o)
 .debug_aranges
                0x00000000000012a8       0x20 /opt/microchip/xc32/v4.60/bin/bin/../../lib/gcc/pic32mx/8.3.1/../../../../pic32mx/lib/libc-musl.a(__fmt_x.o)
 .debug_aranges
                0x00000000000012c8       0x30 /opt/microchip/xc32/v4.60/bin/bin/../../lib/gcc/pic32mx/8.3.1/../../../../pic32mx/lib/libc-musl.a(__fopen.o)
 .debug_aranges
                0x00000000000012f8       0x20 /opt/microchip/xc32/v4.60/bin/bin/../../lib/gcc/pic32mx/8.3.1/../../../../pic32mx/lib/libc-musl.a(__fseeko.o)
 .debug_aranges
                0x0000000000001318       0x28 /opt/microchip/xc32/v4.60/bin/bin/../../lib/gcc/pic32mx/8.3.1/../../../../pic32mx/lib/libc-musl.a(__ftello.o)
 .debug_aranges
                0x0000000000001340       0x28 /opt/microchip/xc32/v4.60/bin/bin/../../lib/gcc/pic32mx/8.3.1/../../../../pic32mx/lib/libc-musl.a(__fwrite.o)
 .debug_aranges
                0x0000000000001368       0x20 /opt/microchip/xc32/v4.60/bin/bin/../../lib/gcc/pic32mx/8.3.1/../../../../pic32mx/lib/libc-musl.a(__cvt_u.o)
 .debug_aranges
                0x0000000000001388       0x30 /opt/microchip/xc32/v4.60/bin/bin/../../lib/gcc/pic32mx/8.3.1/../../../../pic32mx/lib/libm-musl.a(fma.o)
 .debug_aranges
                0x00000000000013b8       0x20 /opt/microchip/xc32/v4.60/bin/bin/../../lib/gcc/pic32mx/8.3.1/../../../../pic32mx/lib/libm-musl.a(scalbn.o)
 .debug_aranges
                0x00000000000013d8       0x40 /opt/microchip/xc32/v4.60/bin/bin/../../lib/gcc/pic32mx/8.3.1/../../../../pic32mx/lib/libpic32.a(sbrk.o)
 .debug_aranges
                0x0000000000001418       0x20 /opt/microchip/xc32/v4.60/bin/bin/../../lib/gcc/pic32mx/8.3.1/../../../../pic32mx/lib/libpic32.a(lseek.o)
 .debug_aranges
                0x0000000000001438       0x20 /opt/microchip/xc32/v4.60/bin/bin/../../lib/gcc/pic32mx/8.3.1/../../../../pic32mx/lib/libpic32.a(close.o)
 .debug_aranges
                0x0000000000001458       0x20 /opt/microchip/xc32/v4.60/bin/bin/../../lib/gcc/pic32mx/8.3.1/../../../../pic32mx/lib/libe.a(_floatdidf.o)
 .debug_aranges
                0x0000000000001478       0x20 /opt/microchip/xc32/v4.60/bin/bin/../../lib/gcc/pic32mx/8.3.1/libgcc.a(_lshrdi3.o)
 .debug_aranges
                0x0000000000001498       0x20 /opt/microchip/xc32/v4.60/bin/bin/../../lib/gcc/pic32mx/8.3.1/libgcc.a(_ashldi3.o)
 .debug_aranges
                0x00000000000014b8       0x20 /opt/microchip/xc32/v4.60/bin/bin/../../lib/gcc/pic32mx/8.3.1/libgcc.a(_umoddi3.o)

.debug_pubnames
 *.elf(.debug_pubnames)
 *(.debug_pubnames)

.debug_info     0x0000000000000000    0x7b2cc
 *.elf(.debug_info .gnu.linkonce.wi.*)
 *(.debug_info .gnu.linkonce.wi.*)
 .debug_info    0x0000000000000000     0x2d03 build/default/production/_ext/732082881/drv_eth_pic32_lib.o
 .debug_info    0x0000000000002d03     0x8975 build/default/production/_ext/732082881/drv_ethmac.o
 .debug_info    0x000000000000b678     0x6f24 build/default/production/_ext/732082881/drv_ethmac_lib.o
 .debug_info    0x000000000001259c     0x63c9 build/default/production/_ext/444070925/drv_ethphy.o
 .debug_info    0x0000000000018965      0xd28 build/default/production/_ext/444070925/drv_extphy_lan8720.o
 .debug_info    0x000000000001968d     0x2911 build/default/production/_ext/438849557/drv_miim_pic32m.o
 .debug_info    0x000000000001bf9e     0x39d9 build/default/production/_ext/438849557/drv_miim.o
 .debug_info    0x000000000001f977      0x432 build/default/production/_ext/1033058136/helpers.o
 .debug_info    0x000000000001fda9     0x84a7 build/default/production/_ext/1033058136/dhcp.o
 .debug_info    0x0000000000028250     0x68f3 build/default/production/_ext/1033058136/ipv4.o
 .debug_info    0x000000000002eb43     0x470d build/default/production/_ext/1033058136/tcpip_commands.o
 .debug_info    0x0000000000033250      0x853 build/default/production/_ext/1033058136/tcpip_notify.o
 .debug_info    0x0000000000033aa3     0x3b43 build/default/production/_ext/1033058136/tcpip_helpers.o
 .debug_info    0x00000000000375e6     0x20bd build/default/production/_ext/1033058136/tcpip_packet.o
 .debug_info    0x00000000000396a3      0xd58 build/default/production/_ext/1033058136/oahash.o
 .debug_info    0x000000000003a3fb     0x6ef9 build/default/production/_ext/1033058136/udp.o
 .debug_info    0x00000000000412f4     0x63a1 build/default/production/_ext/1033058136/arp.o
 .debug_info    0x0000000000047695     0x2430 build/default/production/_ext/1033058136/icmp.o
 .debug_info    0x0000000000049ac5     0x1239 build/default/production/_ext/1033058136/tcpip_heap_internal.o
 .debug_info    0x000000000004acfe      0x19d build/default/production/_ext/1033058136/hash_fnv.o
 .debug_info    0x000000000004ae9b      0x643 build/default/production/_ext/1033058136/dns.o
 .debug_info    0x000000000004b4de       0x26 build/default/production/_ext/1033058136/tcpip_helper_c32.o
 .debug_info    0x000000000004b504      0x898 build/default/production/_ext/1033058136/tcpip_heap_alloc.o
 .debug_info    0x000000000004bd9c     0xae6f build/default/production/_ext/1033058136/tcpip_manager.o
 .debug_info    0x0000000000056c0b      0x794 build/default/production/_ext/1529399856/osal_freertos.o
 .debug_info    0x000000000005739f      0x373 build/default/production/_ext/60165520/plib_clk.o
 .debug_info    0x0000000000057712      0x708 build/default/production/_ext/1249264884/plib_coretimer.o
 .debug_info    0x0000000000057e1a      0x34a build/default/production/_ext/1865200349/plib_evic.o
 .debug_info    0x0000000000058164      0x34e build/default/production/_ext/1865254177/plib_gpio.o
 .debug_info    0x00000000000584b2     0x112d build/default/production/_ext/1865657120/plib_uart2.o
 .debug_info    0x00000000000595df      0x52d build/default/production/_ext/1865657120/plib_uart1.o
 .debug_info    0x0000000000059b0c      0x16a build/default/production/_ext/163028504/xc32_monitor.o
 .debug_info    0x0000000000059c76     0x22a6 build/default/production/_ext/1376093119/sys_command.o
 .debug_info    0x000000000005bf1c      0xc00 build/default/production/_ext/1832805299/sys_console_uart.o
 .debug_info    0x000000000005cb1c      0xbd6 build/default/production/_ext/1832805299/sys_console.o
 .debug_info    0x000000000005d6f2      0x32e build/default/production/_ext/944882569/sys_debug.o
 .debug_info    0x000000000005da20      0x296 build/default/production/_ext/1881668453/sys_int.o
 .debug_info    0x000000000005dcb6       0xcf build/default/production/_ext/1000052432/sys_reset.o
 .debug_info    0x000000000005dd85     0x1c8f build/default/production/_ext/101884895/sys_time.o
 .debug_info    0x000000000005fa14      0x302 build/default/production/_ext/753841488/sys_time_h2_adapter.o
 .debug_info    0x000000000005fd16     0x3557 build/default/production/_ext/1171490990/initialization.o
 .debug_info    0x000000000006326d      0x11b build/default/production/_ext/1171490990/interrupts.o
 .debug_info    0x0000000000063388      0x251 build/default/production/_ext/1171490990/freertos_hooks.o
 .debug_info    0x00000000000635d9       0x22 build/default/production/_ext/1171490990/interrupts_a.o
 .debug_info    0x00000000000635fb      0x15b build/default/production/_ext/1171490990/exceptions.o
 .debug_info    0x0000000000063756      0xa16 build/default/production/_ext/1171490990/tasks.o
 .debug_info    0x000000000006416c      0x661 build/default/production/_ext/1665200909/heap_4.o
 .debug_info    0x00000000000647cd       0x26 build/default/production/_ext/951553248/port_asm.o
 .debug_info    0x00000000000647f3      0xe0d build/default/production/_ext/951553248/port.o
 .debug_info    0x0000000000065600     0x26f0 build/default/production/_ext/404212886/FreeRTOS_tasks.o
 .debug_info    0x0000000000067cf0      0xaba build/default/production/_ext/404212886/event_groups.o
 .debug_info    0x00000000000687aa      0x2f4 build/default/production/_ext/404212886/list.o
 .debug_info    0x0000000000068a9e     0x1b6a build/default/production/_ext/404212886/queue.o
 .debug_info    0x000000000006a608     0x1560 build/default/production/_ext/404212886/stream_buffer.o
 .debug_info    0x000000000006bb68       0x79 build/default/production/_ext/404212886/timers.o
 .debug_info    0x000000000006bbe1       0x79 build/default/production/_ext/404212886/croutine.o
 .debug_info    0x000000000006bc5a       0xde build/default/production/_ext/1360937237/main.o
 .debug_info    0x000000000006bd38      0x358 build/default/production/_ext/1360937237/app.o
 .debug_info    0x000000000006c090     0x1b5c build/default/production/_ext/1360937237/ethernet.o
 .debug_info    0x000000000006dbec      0x6ca /opt/microchip/xc32/v4.60/bin/bin/../../lib/gcc/pic32mx/8.3.1/libgcc.a(_udivdi3.o)
 .debug_info    0x000000000006e2b6       0x3f /opt/microchip/xc32/v4.60/bin/bin/../../lib/gcc/pic32mx/8.3.1/../../../../pic32mx/lib/libpic32.a(default-on-reset.o)
 .debug_info    0x000000000006e2f5       0x3f /opt/microchip/xc32/v4.60/bin/bin/../../lib/gcc/pic32mx/8.3.1/../../../../pic32mx/lib/libpic32.a(default-on-bootstrap.o)
 .debug_info    0x000000000006e334       0x40 /opt/microchip/xc32/v4.60/bin/bin/../../lib/gcc/pic32mx/8.3.1/../../../../pic32mx/lib/libpic32.a(defaultinterrupt.o)
 .debug_info    0x000000000006e374       0xd2 /opt/microchip/xc32/v4.60/bin/bin/../../lib/gcc/pic32mx/8.3.1/../../../../pic32mx/lib/libc-size-musl.a(memcmp.o)
 .debug_info    0x000000000006e446       0xf7 /opt/microchip/xc32/v4.60/bin/bin/../../lib/gcc/pic32mx/8.3.1/../../../../pic32mx/lib/libc-size-musl.a(memcpy.o)
 .debug_info    0x000000000006e53d       0xc0 /opt/microchip/xc32/v4.60/bin/bin/../../lib/gcc/pic32mx/8.3.1/../../../../pic32mx/lib/libc-size-musl.a(memset.o)
 .debug_info    0x000000000006e5fd       0xa3 /opt/microchip/xc32/v4.60/bin/bin/../../lib/gcc/pic32mx/8.3.1/../../../../pic32mx/lib/libc-size-musl.a(strlen.o)
 .debug_info    0x000000000006e6a0       0xd0 /opt/microchip/xc32/v4.60/bin/bin/../../lib/gcc/pic32mx/8.3.1/../../../../pic32mx/lib/libc-size-musl.a(strchr.o)
 .debug_info    0x000000000006e770      0x12a /opt/microchip/xc32/v4.60/bin/bin/../../lib/gcc/pic32mx/8.3.1/../../../../pic32mx/lib/libc-size-musl.a(strchrnul.o)
 .debug_info    0x000000000006e89a       0x93 /opt/microchip/xc32/v4.60/bin/bin/../../lib/gcc/pic32mx/8.3.1/../../../../pic32mx/lib/libc-size-musl.a(strcmp.o)
 .debug_info    0x000000000006e92d       0xbb /opt/microchip/xc32/v4.60/bin/bin/../../lib/gcc/pic32mx/8.3.1/../../../../pic32mx/lib/libc-size-musl.a(strcpy.o)
 .debug_info    0x000000000006e9e8       0xdd /opt/microchip/xc32/v4.60/bin/bin/../../lib/gcc/pic32mx/8.3.1/../../../../pic32mx/lib/libc-size-musl.a(strncmp.o)
 .debug_info    0x000000000006eac5       0xdc /opt/microchip/xc32/v4.60/bin/bin/../../lib/gcc/pic32mx/8.3.1/../../../../pic32mx/lib/libc-size-musl.a(strncpy.o)
 .debug_info    0x000000000006eba1       0xe0 /opt/microchip/xc32/v4.60/bin/bin/../../lib/gcc/pic32mx/8.3.1/../../../../pic32mx/lib/libc-size-musl.a(strrchr.o)
 .debug_info    0x000000000006ec81       0xf0 /opt/microchip/xc32/v4.60/bin/bin/../../lib/gcc/pic32mx/8.3.1/../../../../pic32mx/lib/libc-size-musl.a(strtok.o)
 .debug_info    0x000000000006ed71       0xdb /opt/microchip/xc32/v4.60/bin/bin/../../lib/gcc/pic32mx/8.3.1/../../../../pic32mx/lib/libc-size-musl.a(memrchr.o)
 .debug_info    0x000000000006ee4c       0xab /opt/microchip/xc32/v4.60/bin/bin/../../lib/gcc/pic32mx/8.3.1/../../../../pic32mx/lib/libc-size-musl.a(stpcpy.o)
 .debug_info    0x000000000006eef7       0xdf /opt/microchip/xc32/v4.60/bin/bin/../../lib/gcc/pic32mx/8.3.1/../../../../pic32mx/lib/libc-size-musl.a(stpncpy.o)
 .debug_info    0x000000000006efd6      0x114 /opt/microchip/xc32/v4.60/bin/bin/../../lib/gcc/pic32mx/8.3.1/../../../../pic32mx/lib/libc-size-musl.a(strcspn.o)
 .debug_info    0x000000000006f0ea       0xf1 /opt/microchip/xc32/v4.60/bin/bin/../../lib/gcc/pic32mx/8.3.1/../../../../pic32mx/lib/libc-size-musl.a(strspn.o)
 .debug_info    0x000000000006f1db      0x259 /opt/microchip/xc32/v4.60/bin/bin/../../lib/gcc/pic32mx/8.3.1/../../../../pic32mx/lib/liblmalloc-musl.a(lite_free.o)
 .debug_info    0x000000000006f434      0x1b4 /opt/microchip/xc32/v4.60/bin/bin/../../lib/gcc/pic32mx/8.3.1/../../../../pic32mx/lib/liblmalloc-musl.a(lite_malloc.o)
 .debug_info    0x000000000006f5e8      0x128 /opt/microchip/xc32/v4.60/bin/bin/../../lib/gcc/pic32mx/8.3.1/../../../../pic32mx/lib/libc-musl.a(isalnum.o)
 .debug_info    0x000000000006f710      0x128 /opt/microchip/xc32/v4.60/bin/bin/../../lib/gcc/pic32mx/8.3.1/../../../../pic32mx/lib/libc-musl.a(isxdigit.o)
 .debug_info    0x000000000006f838      0x11b /opt/microchip/xc32/v4.60/bin/bin/../../lib/gcc/pic32mx/8.3.1/../../../../pic32mx/lib/libc-musl.a(tolower.o)
 .debug_info    0x000000000006f953      0x11b /opt/microchip/xc32/v4.60/bin/bin/../../lib/gcc/pic32mx/8.3.1/../../../../pic32mx/lib/libc-musl.a(toupper.o)
 .debug_info    0x000000000006fa6e      0x105 /opt/microchip/xc32/v4.60/bin/bin/../../lib/gcc/pic32mx/8.3.1/../../../../pic32mx/lib/libc-musl.a(expand_heap.o)
 .debug_info    0x000000000006fb73       0xd0 /opt/microchip/xc32/v4.60/bin/bin/../../lib/gcc/pic32mx/8.3.1/../../../../pic32mx/lib/libc-musl.a(rand.o)
 .debug_info    0x000000000006fc43      0x41a /opt/microchip/xc32/v4.60/bin/bin/../../lib/gcc/pic32mx/8.3.1/../../../../pic32mx/lib/libc-musl.a(vsnprintf.o)
 .debug_info    0x000000000007005d      0x3f4 /opt/microchip/xc32/v4.60/bin/bin/../../lib/gcc/pic32mx/8.3.1/../../../../pic32mx/lib/libc-musl.a(stdin.o)
 .debug_info    0x0000000000070451      0x40c /opt/microchip/xc32/v4.60/bin/bin/../../lib/gcc/pic32mx/8.3.1/../../../../pic32mx/lib/libc-musl.a(stdout.o)
 .debug_info    0x000000000007085d       0xe4 /opt/microchip/xc32/v4.60/bin/bin/../../lib/gcc/pic32mx/8.3.1/../../../../pic32mx/lib/libc-musl.a(setbuf.o)
 .debug_info    0x0000000000070941      0x103 /opt/microchip/xc32/v4.60/bin/bin/../../lib/gcc/pic32mx/8.3.1/../../../../pic32mx/lib/libc-musl.a(sprintf.o)
 .debug_info    0x0000000000070a44       0xfd /opt/microchip/xc32/v4.60/bin/bin/../../lib/gcc/pic32mx/8.3.1/../../../../pic32mx/lib/libc-musl.a(vsprintf.o)
 .debug_info    0x0000000000070b41      0x6ec /opt/microchip/xc32/v4.60/bin/bin/../../lib/gcc/pic32mx/8.3.1/../../../../pic32mx/lib/libc-musl.a(strtol.o)
 .debug_info    0x000000000007122d      0x8f7 /opt/microchip/xc32/v4.60/bin/bin/../../lib/gcc/pic32mx/8.3.1/../../../../pic32mx/lib/libc-musl.a(qsort.o)
 .debug_info    0x0000000000071b24      0x58c /opt/microchip/xc32/v4.60/bin/bin/../../lib/gcc/pic32mx/8.3.1/../../../../pic32mx/lib/libc-musl.a(intscan.o)
 .debug_info    0x00000000000720b0      0x391 /opt/microchip/xc32/v4.60/bin/bin/../../lib/gcc/pic32mx/8.3.1/../../../../pic32mx/lib/libc-musl.a(shgetc.o)
 .debug_info    0x0000000000072441      0x373 /opt/microchip/xc32/v4.60/bin/bin/../../lib/gcc/pic32mx/8.3.1/../../../../pic32mx/lib/libc-musl.a(__uflow.o)
 .debug_info    0x00000000000727b4       0xdf /opt/microchip/xc32/v4.60/bin/bin/../../lib/gcc/pic32mx/8.3.1/../../../../pic32mx/lib/libc-musl.a(__io_init_needed.o)
 .debug_info    0x0000000000072893       0xf4 /opt/microchip/xc32/v4.60/bin/bin/../../lib/gcc/pic32mx/8.3.1/../../../../pic32mx/lib/libc-musl.a(__io_rw_needed.o)
 .debug_info    0x0000000000072987      0x29f /opt/microchip/xc32/v4.60/bin/bin/../../lib/gcc/pic32mx/8.3.1/../../../../pic32mx/lib/libc-musl.a(__out.o)
 .debug_info    0x0000000000072c26      0x3f6 /opt/microchip/xc32/v4.60/bin/bin/../../lib/gcc/pic32mx/8.3.1/../../../../pic32mx/lib/libc-musl.a(__stdio_close.o)
 .debug_info    0x000000000007301c      0x3e6 /opt/microchip/xc32/v4.60/bin/bin/../../lib/gcc/pic32mx/8.3.1/../../../../pic32mx/lib/libc-musl.a(__stdio_read.o)
 .debug_info    0x0000000000073402      0x323 /opt/microchip/xc32/v4.60/bin/bin/../../lib/gcc/pic32mx/8.3.1/../../../../pic32mx/lib/libc-musl.a(__towrite_rw.o)
 .debug_info    0x0000000000073725      0x2b2 /opt/microchip/xc32/v4.60/bin/bin/../../lib/gcc/pic32mx/8.3.1/../../../../pic32mx/lib/libc-musl.a(setvbuf.o)
 .debug_info    0x00000000000739d7      0x3ef /opt/microchip/xc32/v4.60/bin/bin/../../lib/gcc/pic32mx/8.3.1/../../../../pic32mx/lib/libc-musl.a(vfprintf.o)
 .debug_info    0x0000000000073dc6      0x144 /opt/microchip/xc32/v4.60/bin/bin/../../lib/gcc/pic32mx/8.3.1/../../../../pic32mx/lib/libc-musl.a(readv.o)
 .debug_info    0x0000000000073f0a      0x373 /opt/microchip/xc32/v4.60/bin/bin/../../lib/gcc/pic32mx/8.3.1/../../../../pic32mx/lib/libc-musl.a(__toread.o)
 .debug_info    0x000000000007427d      0x3d3 /opt/microchip/xc32/v4.60/bin/bin/../../lib/gcc/pic32mx/8.3.1/../../../../pic32mx/lib/libc-musl.a(__fopen_rw.o)
 .debug_info    0x0000000000074650      0x341 /opt/microchip/xc32/v4.60/bin/bin/../../lib/gcc/pic32mx/8.3.1/../../../../pic32mx/lib/libc-musl.a(__ftello_rw.o)
 .debug_info    0x0000000000074991       0xb9 /opt/microchip/xc32/v4.60/bin/bin/../../lib/gcc/pic32mx/8.3.1/../../../../pic32mx/lib/libc-musl.a(__init_stdio.o)
 .debug_info    0x0000000000074a4a      0x139 /opt/microchip/xc32/v4.60/bin/bin/../../lib/gcc/pic32mx/8.3.1/../../../../pic32mx/lib/libc-musl.a(__io_buf_needed.o)
 .debug_info    0x0000000000074b83       0xaf /opt/microchip/xc32/v4.60/bin/bin/../../lib/gcc/pic32mx/8.3.1/../../../../pic32mx/lib/libc-musl.a(__io_file_needed.o)
 .debug_info    0x0000000000074c32      0x17e /opt/microchip/xc32/v4.60/bin/bin/../../lib/gcc/pic32mx/8.3.1/../../../../pic32mx/lib/libc-musl.a(__io_fmt_needed.o)
 .debug_info    0x0000000000074db0      0x122 /opt/microchip/xc32/v4.60/bin/bin/../../lib/gcc/pic32mx/8.3.1/../../../../pic32mx/lib/libc-musl.a(__io_std_needed.o)
 .debug_info    0x0000000000074ed2      0x134 /opt/microchip/xc32/v4.60/bin/bin/../../lib/gcc/pic32mx/8.3.1/../../../../pic32mx/lib/libc-musl.a(__pop_float.o)
 .debug_info    0x0000000000075006      0x14e /opt/microchip/xc32/v4.60/bin/bin/../../lib/gcc/pic32mx/8.3.1/../../../../pic32mx/lib/libc-musl.a(__pop_int.o)
 .debug_info    0x0000000000075154      0x15e /opt/microchip/xc32/v4.60/bin/bin/../../lib/gcc/pic32mx/8.3.1/../../../../pic32mx/lib/libc-musl.a(__pop_ptr.o)
 .debug_info    0x00000000000752b2      0xa27 /opt/microchip/xc32/v4.60/bin/bin/../../lib/gcc/pic32mx/8.3.1/../../../../pic32mx/lib/libc-musl.a(__printf_core.o)
 .debug_info    0x0000000000075cd9      0x284 /opt/microchip/xc32/v4.60/bin/bin/../../lib/gcc/pic32mx/8.3.1/../../../../pic32mx/lib/libc-musl.a(__putc.o)
 .debug_info    0x0000000000075f5d      0x398 /opt/microchip/xc32/v4.60/bin/bin/../../lib/gcc/pic32mx/8.3.1/../../../../pic32mx/lib/libc-musl.a(__stderr.o)
 .debug_info    0x00000000000762f5      0x2cc /opt/microchip/xc32/v4.60/bin/bin/../../lib/gcc/pic32mx/8.3.1/../../../../pic32mx/lib/libc-musl.a(__stdio_exit.o)
 .debug_info    0x00000000000765c1      0x42f /opt/microchip/xc32/v4.60/bin/bin/../../lib/gcc/pic32mx/8.3.1/../../../../pic32mx/lib/libc-musl.a(__stdio_write.o)
 .debug_info    0x00000000000769f0      0x398 /opt/microchip/xc32/v4.60/bin/bin/../../lib/gcc/pic32mx/8.3.1/../../../../pic32mx/lib/libc-musl.a(__stdout.o)
 .debug_info    0x0000000000076d88      0x265 /opt/microchip/xc32/v4.60/bin/bin/../../lib/gcc/pic32mx/8.3.1/../../../../pic32mx/lib/libc-musl.a(__towrite.o)
 .debug_info    0x0000000000076fed      0x217 /opt/microchip/xc32/v4.60/bin/bin/../../lib/gcc/pic32mx/8.3.1/../../../../pic32mx/lib/libc-musl.a(putc.o)
 .debug_info    0x0000000000077204       0xee /opt/microchip/xc32/v4.60/bin/bin/../../lib/gcc/pic32mx/8.3.1/../../../../pic32mx/lib/libc-musl.a(atoi.o)
 .debug_info    0x00000000000772f2      0x144 /opt/microchip/xc32/v4.60/bin/bin/../../lib/gcc/pic32mx/8.3.1/../../../../pic32mx/lib/libc-musl.a(writev.o)
 .debug_info    0x0000000000077436      0x37f /opt/microchip/xc32/v4.60/bin/bin/../../lib/gcc/pic32mx/8.3.1/../../../../pic32mx/lib/libc-musl.a(__overflow.o)
 .debug_info    0x00000000000777b5      0x1b1 /opt/microchip/xc32/v4.60/bin/bin/../../lib/gcc/pic32mx/8.3.1/../../../../pic32mx/lib/libc-musl.a(__fclose.o)
 .debug_info    0x0000000000077966      0x5ec /opt/microchip/xc32/v4.60/bin/bin/../../lib/gcc/pic32mx/8.3.1/../../../../pic32mx/lib/libc-musl.a(__fmt_a.o)
 .debug_info    0x0000000000077f52      0x327 /opt/microchip/xc32/v4.60/bin/bin/../../lib/gcc/pic32mx/8.3.1/../../../../pic32mx/lib/libc-musl.a(__fmt_d.o)
 .debug_info    0x0000000000078279      0x613 /opt/microchip/xc32/v4.60/bin/bin/../../lib/gcc/pic32mx/8.3.1/../../../../pic32mx/lib/libc-musl.a(__fmt_fp.o)
 .debug_info    0x000000000007888c      0x2f8 /opt/microchip/xc32/v4.60/bin/bin/../../lib/gcc/pic32mx/8.3.1/../../../../pic32mx/lib/libc-musl.a(__fmt_o.o)
 .debug_info    0x0000000000078b84      0x2a9 /opt/microchip/xc32/v4.60/bin/bin/../../lib/gcc/pic32mx/8.3.1/../../../../pic32mx/lib/libc-musl.a(__fmt_s.o)
 .debug_info    0x0000000000078e2d      0x2f8 /opt/microchip/xc32/v4.60/bin/bin/../../lib/gcc/pic32mx/8.3.1/../../../../pic32mx/lib/libc-musl.a(__fmt_u.o)
 .debug_info    0x0000000000079125      0x328 /opt/microchip/xc32/v4.60/bin/bin/../../lib/gcc/pic32mx/8.3.1/../../../../pic32mx/lib/libc-musl.a(__fmt_x.o)
 .debug_info    0x000000000007944d      0x2d0 /opt/microchip/xc32/v4.60/bin/bin/../../lib/gcc/pic32mx/8.3.1/../../../../pic32mx/lib/libc-musl.a(__fopen.o)
 .debug_info    0x000000000007971d      0x261 /opt/microchip/xc32/v4.60/bin/bin/../../lib/gcc/pic32mx/8.3.1/../../../../pic32mx/lib/libc-musl.a(__fseeko.o)
 .debug_info    0x000000000007997e      0x283 /opt/microchip/xc32/v4.60/bin/bin/../../lib/gcc/pic32mx/8.3.1/../../../../pic32mx/lib/libc-musl.a(__ftello.o)
 .debug_info    0x0000000000079c01      0x2ac /opt/microchip/xc32/v4.60/bin/bin/../../lib/gcc/pic32mx/8.3.1/../../../../pic32mx/lib/libc-musl.a(__fwrite.o)
 .debug_info    0x0000000000079ead      0x1d0 /opt/microchip/xc32/v4.60/bin/bin/../../lib/gcc/pic32mx/8.3.1/../../../../pic32mx/lib/libc-musl.a(__cvt_u.o)
 .debug_info    0x000000000007a07d      0x528 /opt/microchip/xc32/v4.60/bin/bin/../../lib/gcc/pic32mx/8.3.1/../../../../pic32mx/lib/libm-musl.a(fma.o)
 .debug_info    0x000000000007a5a5      0x109 /opt/microchip/xc32/v4.60/bin/bin/../../lib/gcc/pic32mx/8.3.1/../../../../pic32mx/lib/libm-musl.a(scalbn.o)
 .debug_info    0x000000000007a6ae       0x97 /opt/microchip/xc32/v4.60/bin/bin/../../lib/gcc/pic32mx/8.3.1/../../../../pic32mx/lib/libpic32.a(sbrk.o)
 .debug_info    0x000000000007a745       0x3f /opt/microchip/xc32/v4.60/bin/bin/../../lib/gcc/pic32mx/8.3.1/../../../../pic32mx/lib/libpic32.a(lseek.o)
 .debug_info    0x000000000007a784       0x3f /opt/microchip/xc32/v4.60/bin/bin/../../lib/gcc/pic32mx/8.3.1/../../../../pic32mx/lib/libpic32.a(close.o)
 .debug_info    0x000000000007a7c3       0x77 /opt/microchip/xc32/v4.60/bin/bin/../../lib/gcc/pic32mx/8.3.1/../../../../pic32mx/lib/libe.a(_floatdidf.o)
 .debug_info    0x000000000007a83a      0x1aa /opt/microchip/xc32/v4.60/bin/bin/../../lib/gcc/pic32mx/8.3.1/libgcc.a(_lshrdi3.o)
 .debug_info    0x000000000007a9e4      0x1aa /opt/microchip/xc32/v4.60/bin/bin/../../lib/gcc/pic32mx/8.3.1/libgcc.a(_ashldi3.o)
 .debug_info    0x000000000007ab8e      0x73e /opt/microchip/xc32/v4.60/bin/bin/../../lib/gcc/pic32mx/8.3.1/libgcc.a(_umoddi3.o)

.debug_abbrev   0x0000000000000000     0xfacb
 *.elf(.debug_abbrev)
 *(.debug_abbrev)
 .debug_abbrev  0x0000000000000000      0x200 build/default/production/_ext/732082881/drv_eth_pic32_lib.o
 .debug_abbrev  0x0000000000000200      0x5a4 build/default/production/_ext/732082881/drv_ethmac.o
 .debug_abbrev  0x00000000000007a4      0x5ac build/default/production/_ext/732082881/drv_ethmac_lib.o
 .debug_abbrev  0x0000000000000d50      0x542 build/default/production/_ext/444070925/drv_ethphy.o
 .debug_abbrev  0x0000000000001292      0x237 build/default/production/_ext/444070925/drv_extphy_lan8720.o
 .debug_abbrev  0x00000000000014c9      0x2d1 build/default/production/_ext/438849557/drv_miim_pic32m.o
 .debug_abbrev  0x000000000000179a      0x517 build/default/production/_ext/438849557/drv_miim.o
 .debug_abbrev  0x0000000000001cb1      0x1fd build/default/production/_ext/1033058136/helpers.o
 .debug_abbrev  0x0000000000001eae      0x5a4 build/default/production/_ext/1033058136/dhcp.o
 .debug_abbrev  0x0000000000002452      0x5b2 build/default/production/_ext/1033058136/ipv4.o
 .debug_abbrev  0x0000000000002a04      0x464 build/default/production/_ext/1033058136/tcpip_commands.o
 .debug_abbrev  0x0000000000002e68      0x1fd build/default/production/_ext/1033058136/tcpip_notify.o
 .debug_abbrev  0x0000000000003065      0x528 build/default/production/_ext/1033058136/tcpip_helpers.o
 .debug_abbrev  0x000000000000358d      0x515 build/default/production/_ext/1033058136/tcpip_packet.o
 .debug_abbrev  0x0000000000003aa2      0x38f build/default/production/_ext/1033058136/oahash.o
 .debug_abbrev  0x0000000000003e31      0x5f3 build/default/production/_ext/1033058136/udp.o
 .debug_abbrev  0x0000000000004424      0x55d build/default/production/_ext/1033058136/arp.o
 .debug_abbrev  0x0000000000004981      0x451 build/default/production/_ext/1033058136/icmp.o
 .debug_abbrev  0x0000000000004dd2      0x37b build/default/production/_ext/1033058136/tcpip_heap_internal.o
 .debug_abbrev  0x000000000000514d       0xe7 build/default/production/_ext/1033058136/hash_fnv.o
 .debug_abbrev  0x0000000000005234      0x148 build/default/production/_ext/1033058136/dns.o
 .debug_abbrev  0x000000000000537c       0x14 build/default/production/_ext/1033058136/tcpip_helper_c32.o
 .debug_abbrev  0x0000000000005390      0x23b build/default/production/_ext/1033058136/tcpip_heap_alloc.o
 .debug_abbrev  0x00000000000055cb      0x658 build/default/production/_ext/1033058136/tcpip_manager.o
 .debug_abbrev  0x0000000000005c23      0x1c7 build/default/production/_ext/1529399856/osal_freertos.o
 .debug_abbrev  0x0000000000005dea       0xc3 build/default/production/_ext/60165520/plib_clk.o
 .debug_abbrev  0x0000000000005ead      0x1e3 build/default/production/_ext/1249264884/plib_coretimer.o
 .debug_abbrev  0x0000000000006090       0xe4 build/default/production/_ext/1865200349/plib_evic.o
 .debug_abbrev  0x0000000000006174       0xdb build/default/production/_ext/1865254177/plib_gpio.o
 .debug_abbrev  0x000000000000624f      0x3f3 build/default/production/_ext/1865657120/plib_uart2.o
 .debug_abbrev  0x0000000000006642      0x1c4 build/default/production/_ext/1865657120/plib_uart1.o
 .debug_abbrev  0x0000000000006806       0xd0 build/default/production/_ext/163028504/xc32_monitor.o
 .debug_abbrev  0x00000000000068d6      0x447 build/default/production/_ext/1376093119/sys_command.o
 .debug_abbrev  0x0000000000006d1d      0x2d2 build/default/production/_ext/1832805299/sys_console_uart.o
 .debug_abbrev  0x0000000000006fef      0x330 build/default/production/_ext/1832805299/sys_console.o
 .debug_abbrev  0x000000000000731f      0x18f build/default/production/_ext/944882569/sys_debug.o
 .debug_abbrev  0x00000000000074ae      0x147 build/default/production/_ext/1881668453/sys_int.o
 .debug_abbrev  0x00000000000075f5       0x70 build/default/production/_ext/1000052432/sys_reset.o
 .debug_abbrev  0x0000000000007665      0x4df build/default/production/_ext/101884895/sys_time.o
 .debug_abbrev  0x0000000000007b44      0x166 build/default/production/_ext/753841488/sys_time_h2_adapter.o
 .debug_abbrev  0x0000000000007caa      0x397 build/default/production/_ext/1171490990/initialization.o
 .debug_abbrev  0x0000000000008041       0x65 build/default/production/_ext/1171490990/interrupts.o
 .debug_abbrev  0x00000000000080a6      0x12c build/default/production/_ext/1171490990/freertos_hooks.o
 .debug_abbrev  0x00000000000081d2       0x12 build/default/production/_ext/1171490990/interrupts_a.o
 .debug_abbrev  0x00000000000081e4       0xc8 build/default/production/_ext/1171490990/exceptions.o
 .debug_abbrev  0x00000000000082ac      0x247 build/default/production/_ext/1171490990/tasks.o
 .debug_abbrev  0x00000000000084f3      0x28d build/default/production/_ext/1665200909/heap_4.o
 .debug_abbrev  0x0000000000008780       0x14 build/default/production/_ext/951553248/port_asm.o
 .debug_abbrev  0x0000000000008794      0x37c build/default/production/_ext/951553248/port.o
 .debug_abbrev  0x0000000000008b10      0x39a build/default/production/_ext/404212886/FreeRTOS_tasks.o
 .debug_abbrev  0x0000000000008eaa      0x218 build/default/production/_ext/404212886/event_groups.o
 .debug_abbrev  0x00000000000090c2      0x101 build/default/production/_ext/404212886/list.o
 .debug_abbrev  0x00000000000091c3      0x2a9 build/default/production/_ext/404212886/queue.o
 .debug_abbrev  0x000000000000946c      0x252 build/default/production/_ext/404212886/stream_buffer.o
 .debug_abbrev  0x00000000000096be       0x26 build/default/production/_ext/404212886/timers.o
 .debug_abbrev  0x00000000000096e4       0x26 build/default/production/_ext/404212886/croutine.o
 .debug_abbrev  0x000000000000970a       0x80 build/default/production/_ext/1360937237/main.o
 .debug_abbrev  0x000000000000978a      0x159 build/default/production/_ext/1360937237/app.o
 .debug_abbrev  0x00000000000098e3      0x3b9 build/default/production/_ext/1360937237/ethernet.o
 .debug_abbrev  0x0000000000009c9c      0x184 /opt/microchip/xc32/v4.60/bin/bin/../../lib/gcc/pic32mx/8.3.1/libgcc.a(_udivdi3.o)
 .debug_abbrev  0x0000000000009e20       0x2e /opt/microchip/xc32/v4.60/bin/bin/../../lib/gcc/pic32mx/8.3.1/../../../../pic32mx/lib/libpic32.a(default-on-reset.o)
 .debug_abbrev  0x0000000000009e4e       0x2e /opt/microchip/xc32/v4.60/bin/bin/../../lib/gcc/pic32mx/8.3.1/../../../../pic32mx/lib/libpic32.a(default-on-bootstrap.o)
 .debug_abbrev  0x0000000000009e7c       0x31 /opt/microchip/xc32/v4.60/bin/bin/../../lib/gcc/pic32mx/8.3.1/../../../../pic32mx/lib/libpic32.a(defaultinterrupt.o)
 .debug_abbrev  0x0000000000009ead       0xa7 /opt/microchip/xc32/v4.60/bin/bin/../../lib/gcc/pic32mx/8.3.1/../../../../pic32mx/lib/libc-size-musl.a(memcmp.o)
 .debug_abbrev  0x0000000000009f54       0xaa /opt/microchip/xc32/v4.60/bin/bin/../../lib/gcc/pic32mx/8.3.1/../../../../pic32mx/lib/libc-size-musl.a(memcpy.o)
 .debug_abbrev  0x0000000000009ffe       0x91 /opt/microchip/xc32/v4.60/bin/bin/../../lib/gcc/pic32mx/8.3.1/../../../../pic32mx/lib/libc-size-musl.a(memset.o)
 .debug_abbrev  0x000000000000a08f       0x91 /opt/microchip/xc32/v4.60/bin/bin/../../lib/gcc/pic32mx/8.3.1/../../../../pic32mx/lib/libc-size-musl.a(strlen.o)
 .debug_abbrev  0x000000000000a120       0xad /opt/microchip/xc32/v4.60/bin/bin/../../lib/gcc/pic32mx/8.3.1/../../../../pic32mx/lib/libc-size-musl.a(strchr.o)
 .debug_abbrev  0x000000000000a1cd       0xbc /opt/microchip/xc32/v4.60/bin/bin/../../lib/gcc/pic32mx/8.3.1/../../../../pic32mx/lib/libc-size-musl.a(strchrnul.o)
 .debug_abbrev  0x000000000000a289       0x6e /opt/microchip/xc32/v4.60/bin/bin/../../lib/gcc/pic32mx/8.3.1/../../../../pic32mx/lib/libc-size-musl.a(strcmp.o)
 .debug_abbrev  0x000000000000a2f7       0xa2 /opt/microchip/xc32/v4.60/bin/bin/../../lib/gcc/pic32mx/8.3.1/../../../../pic32mx/lib/libc-size-musl.a(strcpy.o)
 .debug_abbrev  0x000000000000a399       0xa2 /opt/microchip/xc32/v4.60/bin/bin/../../lib/gcc/pic32mx/8.3.1/../../../../pic32mx/lib/libc-size-musl.a(strncmp.o)
 .debug_abbrev  0x000000000000a43b       0x9d /opt/microchip/xc32/v4.60/bin/bin/../../lib/gcc/pic32mx/8.3.1/../../../../pic32mx/lib/libc-size-musl.a(strncpy.o)
 .debug_abbrev  0x000000000000a4d8       0xa6 /opt/microchip/xc32/v4.60/bin/bin/../../lib/gcc/pic32mx/8.3.1/../../../../pic32mx/lib/libc-size-musl.a(strrchr.o)
 .debug_abbrev  0x000000000000a57e       0xac /opt/microchip/xc32/v4.60/bin/bin/../../lib/gcc/pic32mx/8.3.1/../../../../pic32mx/lib/libc-size-musl.a(strtok.o)
 .debug_abbrev  0x000000000000a62a       0xae /opt/microchip/xc32/v4.60/bin/bin/../../lib/gcc/pic32mx/8.3.1/../../../../pic32mx/lib/libc-size-musl.a(memrchr.o)
 .debug_abbrev  0x000000000000a6d8       0x6e /opt/microchip/xc32/v4.60/bin/bin/../../lib/gcc/pic32mx/8.3.1/../../../../pic32mx/lib/libc-size-musl.a(stpcpy.o)
 .debug_abbrev  0x000000000000a746       0xa5 /opt/microchip/xc32/v4.60/bin/bin/../../lib/gcc/pic32mx/8.3.1/../../../../pic32mx/lib/libc-size-musl.a(stpncpy.o)
 .debug_abbrev  0x000000000000a7eb       0xe1 /opt/microchip/xc32/v4.60/bin/bin/../../lib/gcc/pic32mx/8.3.1/../../../../pic32mx/lib/libc-size-musl.a(strcspn.o)
 .debug_abbrev  0x000000000000a8cc       0xd2 /opt/microchip/xc32/v4.60/bin/bin/../../lib/gcc/pic32mx/8.3.1/../../../../pic32mx/lib/libc-size-musl.a(strspn.o)
 .debug_abbrev  0x000000000000a99e      0x19c /opt/microchip/xc32/v4.60/bin/bin/../../lib/gcc/pic32mx/8.3.1/../../../../pic32mx/lib/liblmalloc-musl.a(lite_free.o)
 .debug_abbrev  0x000000000000ab3a      0x117 /opt/microchip/xc32/v4.60/bin/bin/../../lib/gcc/pic32mx/8.3.1/../../../../pic32mx/lib/liblmalloc-musl.a(lite_malloc.o)
 .debug_abbrev  0x000000000000ac51      0x105 /opt/microchip/xc32/v4.60/bin/bin/../../lib/gcc/pic32mx/8.3.1/../../../../pic32mx/lib/libc-musl.a(isalnum.o)
 .debug_abbrev  0x000000000000ad56      0x105 /opt/microchip/xc32/v4.60/bin/bin/../../lib/gcc/pic32mx/8.3.1/../../../../pic32mx/lib/libc-musl.a(isxdigit.o)
 .debug_abbrev  0x000000000000ae5b       0xf1 /opt/microchip/xc32/v4.60/bin/bin/../../lib/gcc/pic32mx/8.3.1/../../../../pic32mx/lib/libc-musl.a(tolower.o)
 .debug_abbrev  0x000000000000af4c       0xf1 /opt/microchip/xc32/v4.60/bin/bin/../../lib/gcc/pic32mx/8.3.1/../../../../pic32mx/lib/libc-musl.a(toupper.o)
 .debug_abbrev  0x000000000000b03d       0xc4 /opt/microchip/xc32/v4.60/bin/bin/../../lib/gcc/pic32mx/8.3.1/../../../../pic32mx/lib/libc-musl.a(expand_heap.o)
 .debug_abbrev  0x000000000000b101       0x96 /opt/microchip/xc32/v4.60/bin/bin/../../lib/gcc/pic32mx/8.3.1/../../../../pic32mx/lib/libc-musl.a(rand.o)
 .debug_abbrev  0x000000000000b197      0x182 /opt/microchip/xc32/v4.60/bin/bin/../../lib/gcc/pic32mx/8.3.1/../../../../pic32mx/lib/libc-musl.a(vsnprintf.o)
 .debug_abbrev  0x000000000000b319      0x19f /opt/microchip/xc32/v4.60/bin/bin/../../lib/gcc/pic32mx/8.3.1/../../../../pic32mx/lib/libc-musl.a(stdin.o)
 .debug_abbrev  0x000000000000b4b8      0x1bd /opt/microchip/xc32/v4.60/bin/bin/../../lib/gcc/pic32mx/8.3.1/../../../../pic32mx/lib/libc-musl.a(stdout.o)
 .debug_abbrev  0x000000000000b675       0xa8 /opt/microchip/xc32/v4.60/bin/bin/../../lib/gcc/pic32mx/8.3.1/../../../../pic32mx/lib/libc-musl.a(setbuf.o)
 .debug_abbrev  0x000000000000b71d       0xdb /opt/microchip/xc32/v4.60/bin/bin/../../lib/gcc/pic32mx/8.3.1/../../../../pic32mx/lib/libc-musl.a(sprintf.o)
 .debug_abbrev  0x000000000000b7f8       0xb1 /opt/microchip/xc32/v4.60/bin/bin/../../lib/gcc/pic32mx/8.3.1/../../../../pic32mx/lib/libc-musl.a(vsprintf.o)
 .debug_abbrev  0x000000000000b8a9      0x192 /opt/microchip/xc32/v4.60/bin/bin/../../lib/gcc/pic32mx/8.3.1/../../../../pic32mx/lib/libc-musl.a(strtol.o)
 .debug_abbrev  0x000000000000ba3b      0x231 /opt/microchip/xc32/v4.60/bin/bin/../../lib/gcc/pic32mx/8.3.1/../../../../pic32mx/lib/libc-musl.a(qsort.o)
 .debug_abbrev  0x000000000000bc6c      0x1f8 /opt/microchip/xc32/v4.60/bin/bin/../../lib/gcc/pic32mx/8.3.1/../../../../pic32mx/lib/libc-musl.a(intscan.o)
 .debug_abbrev  0x000000000000be64      0x166 /opt/microchip/xc32/v4.60/bin/bin/../../lib/gcc/pic32mx/8.3.1/../../../../pic32mx/lib/libc-musl.a(shgetc.o)
 .debug_abbrev  0x000000000000bfca      0x141 /opt/microchip/xc32/v4.60/bin/bin/../../lib/gcc/pic32mx/8.3.1/../../../../pic32mx/lib/libc-musl.a(__uflow.o)
 .debug_abbrev  0x000000000000c10b       0x81 /opt/microchip/xc32/v4.60/bin/bin/../../lib/gcc/pic32mx/8.3.1/../../../../pic32mx/lib/libc-musl.a(__io_init_needed.o)
 .debug_abbrev  0x000000000000c18c       0x67 /opt/microchip/xc32/v4.60/bin/bin/../../lib/gcc/pic32mx/8.3.1/../../../../pic32mx/lib/libc-musl.a(__io_rw_needed.o)
 .debug_abbrev  0x000000000000c1f3      0x17a /opt/microchip/xc32/v4.60/bin/bin/../../lib/gcc/pic32mx/8.3.1/../../../../pic32mx/lib/libc-musl.a(__out.o)
 .debug_abbrev  0x000000000000c36d      0x15a /opt/microchip/xc32/v4.60/bin/bin/../../lib/gcc/pic32mx/8.3.1/../../../../pic32mx/lib/libc-musl.a(__stdio_close.o)
 .debug_abbrev  0x000000000000c4c7      0x16c /opt/microchip/xc32/v4.60/bin/bin/../../lib/gcc/pic32mx/8.3.1/../../../../pic32mx/lib/libc-musl.a(__stdio_read.o)
 .debug_abbrev  0x000000000000c633       0xf5 /opt/microchip/xc32/v4.60/bin/bin/../../lib/gcc/pic32mx/8.3.1/../../../../pic32mx/lib/libc-musl.a(__towrite_rw.o)
 .debug_abbrev  0x000000000000c728      0x135 /opt/microchip/xc32/v4.60/bin/bin/../../lib/gcc/pic32mx/8.3.1/../../../../pic32mx/lib/libc-musl.a(setvbuf.o)
 .debug_abbrev  0x000000000000c85d      0x178 /opt/microchip/xc32/v4.60/bin/bin/../../lib/gcc/pic32mx/8.3.1/../../../../pic32mx/lib/libc-musl.a(vfprintf.o)
 .debug_abbrev  0x000000000000c9d5       0xf7 /opt/microchip/xc32/v4.60/bin/bin/../../lib/gcc/pic32mx/8.3.1/../../../../pic32mx/lib/libc-musl.a(readv.o)
 .debug_abbrev  0x000000000000cacc      0x148 /opt/microchip/xc32/v4.60/bin/bin/../../lib/gcc/pic32mx/8.3.1/../../../../pic32mx/lib/libc-musl.a(__toread.o)
 .debug_abbrev  0x000000000000cc14      0x12c /opt/microchip/xc32/v4.60/bin/bin/../../lib/gcc/pic32mx/8.3.1/../../../../pic32mx/lib/libc-musl.a(__fopen_rw.o)
 .debug_abbrev  0x000000000000cd40      0x10b /opt/microchip/xc32/v4.60/bin/bin/../../lib/gcc/pic32mx/8.3.1/../../../../pic32mx/lib/libc-musl.a(__ftello_rw.o)
 .debug_abbrev  0x000000000000ce4b       0x65 /opt/microchip/xc32/v4.60/bin/bin/../../lib/gcc/pic32mx/8.3.1/../../../../pic32mx/lib/libc-musl.a(__init_stdio.o)
 .debug_abbrev  0x000000000000ceb0       0x67 /opt/microchip/xc32/v4.60/bin/bin/../../lib/gcc/pic32mx/8.3.1/../../../../pic32mx/lib/libc-musl.a(__io_buf_needed.o)
 .debug_abbrev  0x000000000000cf17       0x67 /opt/microchip/xc32/v4.60/bin/bin/../../lib/gcc/pic32mx/8.3.1/../../../../pic32mx/lib/libc-musl.a(__io_file_needed.o)
 .debug_abbrev  0x000000000000cf7e       0x67 /opt/microchip/xc32/v4.60/bin/bin/../../lib/gcc/pic32mx/8.3.1/../../../../pic32mx/lib/libc-musl.a(__io_fmt_needed.o)
 .debug_abbrev  0x000000000000cfe5       0x67 /opt/microchip/xc32/v4.60/bin/bin/../../lib/gcc/pic32mx/8.3.1/../../../../pic32mx/lib/libc-musl.a(__io_std_needed.o)
 .debug_abbrev  0x000000000000d04c       0xc3 /opt/microchip/xc32/v4.60/bin/bin/../../lib/gcc/pic32mx/8.3.1/../../../../pic32mx/lib/libc-musl.a(__pop_float.o)
 .debug_abbrev  0x000000000000d10f       0xc3 /opt/microchip/xc32/v4.60/bin/bin/../../lib/gcc/pic32mx/8.3.1/../../../../pic32mx/lib/libc-musl.a(__pop_int.o)
 .debug_abbrev  0x000000000000d1d2       0xd7 /opt/microchip/xc32/v4.60/bin/bin/../../lib/gcc/pic32mx/8.3.1/../../../../pic32mx/lib/libc-musl.a(__pop_ptr.o)
 .debug_abbrev  0x000000000000d2a9      0x318 /opt/microchip/xc32/v4.60/bin/bin/../../lib/gcc/pic32mx/8.3.1/../../../../pic32mx/lib/libc-musl.a(__printf_core.o)
 .debug_abbrev  0x000000000000d5c1      0x109 /opt/microchip/xc32/v4.60/bin/bin/../../lib/gcc/pic32mx/8.3.1/../../../../pic32mx/lib/libc-musl.a(__putc.o)
 .debug_abbrev  0x000000000000d6ca      0x16a /opt/microchip/xc32/v4.60/bin/bin/../../lib/gcc/pic32mx/8.3.1/../../../../pic32mx/lib/libc-musl.a(__stderr.o)
 .debug_abbrev  0x000000000000d834      0x170 /opt/microchip/xc32/v4.60/bin/bin/../../lib/gcc/pic32mx/8.3.1/../../../../pic32mx/lib/libc-musl.a(__stdio_exit.o)
 .debug_abbrev  0x000000000000d9a4      0x1ce /opt/microchip/xc32/v4.60/bin/bin/../../lib/gcc/pic32mx/8.3.1/../../../../pic32mx/lib/libc-musl.a(__stdio_write.o)
 .debug_abbrev  0x000000000000db72      0x16a /opt/microchip/xc32/v4.60/bin/bin/../../lib/gcc/pic32mx/8.3.1/../../../../pic32mx/lib/libc-musl.a(__stdout.o)
 .debug_abbrev  0x000000000000dcdc      0x125 /opt/microchip/xc32/v4.60/bin/bin/../../lib/gcc/pic32mx/8.3.1/../../../../pic32mx/lib/libc-musl.a(__towrite.o)
 .debug_abbrev  0x000000000000de01      0x122 /opt/microchip/xc32/v4.60/bin/bin/../../lib/gcc/pic32mx/8.3.1/../../../../pic32mx/lib/libc-musl.a(putc.o)
 .debug_abbrev  0x000000000000df23       0xc4 /opt/microchip/xc32/v4.60/bin/bin/../../lib/gcc/pic32mx/8.3.1/../../../../pic32mx/lib/libc-musl.a(atoi.o)
 .debug_abbrev  0x000000000000dfe7       0xf7 /opt/microchip/xc32/v4.60/bin/bin/../../lib/gcc/pic32mx/8.3.1/../../../../pic32mx/lib/libc-musl.a(writev.o)
 .debug_abbrev  0x000000000000e0de      0x141 /opt/microchip/xc32/v4.60/bin/bin/../../lib/gcc/pic32mx/8.3.1/../../../../pic32mx/lib/libc-musl.a(__overflow.o)
 .debug_abbrev  0x000000000000e21f       0xdd /opt/microchip/xc32/v4.60/bin/bin/../../lib/gcc/pic32mx/8.3.1/../../../../pic32mx/lib/libc-musl.a(__fclose.o)
 .debug_abbrev  0x000000000000e2fc      0x1d5 /opt/microchip/xc32/v4.60/bin/bin/../../lib/gcc/pic32mx/8.3.1/../../../../pic32mx/lib/libc-musl.a(__fmt_a.o)
 .debug_abbrev  0x000000000000e4d1      0x161 /opt/microchip/xc32/v4.60/bin/bin/../../lib/gcc/pic32mx/8.3.1/../../../../pic32mx/lib/libc-musl.a(__fmt_d.o)
 .debug_abbrev  0x000000000000e632      0x1d8 /opt/microchip/xc32/v4.60/bin/bin/../../lib/gcc/pic32mx/8.3.1/../../../../pic32mx/lib/libc-musl.a(__fmt_fp.o)
 .debug_abbrev  0x000000000000e80a      0x161 /opt/microchip/xc32/v4.60/bin/bin/../../lib/gcc/pic32mx/8.3.1/../../../../pic32mx/lib/libc-musl.a(__fmt_o.o)
 .debug_abbrev  0x000000000000e96b      0x14c /opt/microchip/xc32/v4.60/bin/bin/../../lib/gcc/pic32mx/8.3.1/../../../../pic32mx/lib/libc-musl.a(__fmt_s.o)
 .debug_abbrev  0x000000000000eab7      0x161 /opt/microchip/xc32/v4.60/bin/bin/../../lib/gcc/pic32mx/8.3.1/../../../../pic32mx/lib/libc-musl.a(__fmt_u.o)
 .debug_abbrev  0x000000000000ec18      0x150 /opt/microchip/xc32/v4.60/bin/bin/../../lib/gcc/pic32mx/8.3.1/../../../../pic32mx/lib/libc-musl.a(__fmt_x.o)
 .debug_abbrev  0x000000000000ed68      0x168 /opt/microchip/xc32/v4.60/bin/bin/../../lib/gcc/pic32mx/8.3.1/../../../../pic32mx/lib/libc-musl.a(__fopen.o)
 .debug_abbrev  0x000000000000eed0       0xf8 /opt/microchip/xc32/v4.60/bin/bin/../../lib/gcc/pic32mx/8.3.1/../../../../pic32mx/lib/libc-musl.a(__fseeko.o)
 .debug_abbrev  0x000000000000efc8      0x111 /opt/microchip/xc32/v4.60/bin/bin/../../lib/gcc/pic32mx/8.3.1/../../../../pic32mx/lib/libc-musl.a(__ftello.o)
 .debug_abbrev  0x000000000000f0d9      0x121 /opt/microchip/xc32/v4.60/bin/bin/../../lib/gcc/pic32mx/8.3.1/../../../../pic32mx/lib/libc-musl.a(__fwrite.o)
 .debug_abbrev  0x000000000000f1fa       0xe5 /opt/microchip/xc32/v4.60/bin/bin/../../lib/gcc/pic32mx/8.3.1/../../../../pic32mx/lib/libc-musl.a(__cvt_u.o)
 .debug_abbrev  0x000000000000f2df      0x249 /opt/microchip/xc32/v4.60/bin/bin/../../lib/gcc/pic32mx/8.3.1/../../../../pic32mx/lib/libm-musl.a(fma.o)
 .debug_abbrev  0x000000000000f528       0xac /opt/microchip/xc32/v4.60/bin/bin/../../lib/gcc/pic32mx/8.3.1/../../../../pic32mx/lib/libm-musl.a(scalbn.o)
 .debug_abbrev  0x000000000000f5d4       0x5e /opt/microchip/xc32/v4.60/bin/bin/../../lib/gcc/pic32mx/8.3.1/../../../../pic32mx/lib/libpic32.a(sbrk.o)
 .debug_abbrev  0x000000000000f632       0x2e /opt/microchip/xc32/v4.60/bin/bin/../../lib/gcc/pic32mx/8.3.1/../../../../pic32mx/lib/libpic32.a(lseek.o)
 .debug_abbrev  0x000000000000f660       0x2e /opt/microchip/xc32/v4.60/bin/bin/../../lib/gcc/pic32mx/8.3.1/../../../../pic32mx/lib/libpic32.a(close.o)
 .debug_abbrev  0x000000000000f68e       0x61 /opt/microchip/xc32/v4.60/bin/bin/../../lib/gcc/pic32mx/8.3.1/../../../../pic32mx/lib/libe.a(_floatdidf.o)
 .debug_abbrev  0x000000000000f6ef      0x121 /opt/microchip/xc32/v4.60/bin/bin/../../lib/gcc/pic32mx/8.3.1/libgcc.a(_lshrdi3.o)
 .debug_abbrev  0x000000000000f810      0x121 /opt/microchip/xc32/v4.60/bin/bin/../../lib/gcc/pic32mx/8.3.1/libgcc.a(_ashldi3.o)
 .debug_abbrev  0x000000000000f931      0x19a /opt/microchip/xc32/v4.60/bin/bin/../../lib/gcc/pic32mx/8.3.1/libgcc.a(_umoddi3.o)

.debug_line     0x0000000000000000    0x2f4f7
 *.elf(.debug_line)
 *(.debug_line)
 .debug_line    0x0000000000000000      0x520 build/default/production/_ext/732082881/drv_eth_pic32_lib.o
 .debug_line    0x0000000000000520     0x1e55 build/default/production/_ext/732082881/drv_ethmac.o
 .debug_line    0x0000000000002375     0x1905 build/default/production/_ext/732082881/drv_ethmac_lib.o
 .debug_line    0x0000000000003c7a     0x262d build/default/production/_ext/444070925/drv_ethphy.o
 .debug_line    0x00000000000062a7      0x343 build/default/production/_ext/444070925/drv_extphy_lan8720.o
 .debug_line    0x00000000000065ea      0x3d0 build/default/production/_ext/438849557/drv_miim_pic32m.o
 .debug_line    0x00000000000069ba     0x149b build/default/production/_ext/438849557/drv_miim.o
 .debug_line    0x0000000000007e55      0x2e4 build/default/production/_ext/1033058136/helpers.o
 .debug_line    0x0000000000008139     0x2709 build/default/production/_ext/1033058136/dhcp.o
 .debug_line    0x000000000000a842     0x1b4f build/default/production/_ext/1033058136/ipv4.o
 .debug_line    0x000000000000c391     0x11e7 build/default/production/_ext/1033058136/tcpip_commands.o
 .debug_line    0x000000000000d578      0x32e build/default/production/_ext/1033058136/tcpip_notify.o
 .debug_line    0x000000000000d8a6     0x1d51 build/default/production/_ext/1033058136/tcpip_helpers.o
 .debug_line    0x000000000000f5f7      0x748 build/default/production/_ext/1033058136/tcpip_packet.o
 .debug_line    0x000000000000fd3f      0x4ed build/default/production/_ext/1033058136/oahash.o
 .debug_line    0x000000000001022c     0x2927 build/default/production/_ext/1033058136/udp.o
 .debug_line    0x0000000000012b53     0x1c74 build/default/production/_ext/1033058136/arp.o
 .debug_line    0x00000000000147c7      0x496 build/default/production/_ext/1033058136/icmp.o
 .debug_line    0x0000000000014c5d      0x886 build/default/production/_ext/1033058136/tcpip_heap_internal.o
 .debug_line    0x00000000000154e3      0x142 build/default/production/_ext/1033058136/hash_fnv.o
 .debug_line    0x0000000000015625      0x178 build/default/production/_ext/1033058136/dns.o
 .debug_line    0x000000000001579d      0x102 build/default/production/_ext/1033058136/tcpip_helper_c32.o
 .debug_line    0x000000000001589f      0x1b4 build/default/production/_ext/1033058136/tcpip_heap_alloc.o
 .debug_line    0x0000000000015a53     0x39c5 build/default/production/_ext/1033058136/tcpip_manager.o
 .debug_line    0x0000000000019418      0x3d9 build/default/production/_ext/1529399856/osal_freertos.o
 .debug_line    0x00000000000197f1      0x131 build/default/production/_ext/60165520/plib_clk.o
 .debug_line    0x0000000000019922      0x22d build/default/production/_ext/1249264884/plib_coretimer.o
 .debug_line    0x0000000000019b4f      0x236 build/default/production/_ext/1865200349/plib_evic.o
 .debug_line    0x0000000000019d85      0x211 build/default/production/_ext/1865254177/plib_gpio.o
 .debug_line    0x0000000000019f96      0xb19 build/default/production/_ext/1865657120/plib_uart2.o
 .debug_line    0x000000000001aaaf      0x418 build/default/production/_ext/1865657120/plib_uart1.o
 .debug_line    0x000000000001aec7      0x120 build/default/production/_ext/163028504/xc32_monitor.o
 .debug_line    0x000000000001afe7     0x11d7 build/default/production/_ext/1376093119/sys_command.o
 .debug_line    0x000000000001c1be      0x4d1 build/default/production/_ext/1832805299/sys_console_uart.o
 .debug_line    0x000000000001c68f      0x5ce build/default/production/_ext/1832805299/sys_console.o
 .debug_line    0x000000000001cc5d      0x1cc build/default/production/_ext/944882569/sys_debug.o
 .debug_line    0x000000000001ce29      0x16d build/default/production/_ext/1881668453/sys_int.o
 .debug_line    0x000000000001cf96      0x142 build/default/production/_ext/1000052432/sys_reset.o
 .debug_line    0x000000000001d0d8     0x1001 build/default/production/_ext/101884895/sys_time.o
 .debug_line    0x000000000001e0d9      0x1aa build/default/production/_ext/753841488/sys_time_h2_adapter.o
 .debug_line    0x000000000001e283      0x802 build/default/production/_ext/1171490990/initialization.o
 .debug_line    0x000000000001ea85       0x96 build/default/production/_ext/1171490990/interrupts.o
 .debug_line    0x000000000001eb1b      0x222 build/default/production/_ext/1171490990/freertos_hooks.o
 .debug_line    0x000000000001ed3d       0xc3 build/default/production/_ext/1171490990/interrupts_a.o
 .debug_line    0x000000000001ee00      0x180 build/default/production/_ext/1171490990/exceptions.o
 .debug_line    0x000000000001ef80      0x3a7 build/default/production/_ext/1171490990/tasks.o
 .debug_line    0x000000000001f327      0x568 build/default/production/_ext/1665200909/heap_4.o
 .debug_line    0x000000000001f88f       0xfc build/default/production/_ext/951553248/port_asm.o
 .debug_line    0x000000000001f98b      0x2ec build/default/production/_ext/951553248/port.o
 .debug_line    0x000000000001fc77     0x1605 build/default/production/_ext/404212886/FreeRTOS_tasks.o
 .debug_line    0x000000000002127c      0x580 build/default/production/_ext/404212886/event_groups.o
 .debug_line    0x00000000000217fc      0x2d2 build/default/production/_ext/404212886/list.o
 .debug_line    0x0000000000021ace      0xce3 build/default/production/_ext/404212886/queue.o
 .debug_line    0x00000000000227b1      0x8cd build/default/production/_ext/404212886/stream_buffer.o
 .debug_line    0x000000000002307e       0x1d build/default/production/_ext/404212886/timers.o
 .debug_line    0x000000000002309b       0x1d build/default/production/_ext/404212886/croutine.o
 .debug_line    0x00000000000230b8       0x9d build/default/production/_ext/1360937237/main.o
 .debug_line    0x0000000000023155      0x2da build/default/production/_ext/1360937237/app.o
 .debug_line    0x000000000002342f      0x663 build/default/production/_ext/1360937237/ethernet.o
 .debug_line    0x0000000000023a92      0x2d8 /opt/microchip/xc32/v4.60/bin/bin/../../lib/gcc/pic32mx/8.3.1/libgcc.a(_udivdi3.o)
 .debug_line    0x0000000000023d6a       0xa5 /opt/microchip/xc32/v4.60/bin/bin/../../lib/gcc/pic32mx/8.3.1/../../../../pic32mx/lib/libpic32.a(default-on-reset.o)
 .debug_line    0x0000000000023e0f       0xa9 /opt/microchip/xc32/v4.60/bin/bin/../../lib/gcc/pic32mx/8.3.1/../../../../pic32mx/lib/libpic32.a(default-on-bootstrap.o)
 .debug_line    0x0000000000023eb8        0x0 /opt/microchip/xc32/v4.60/bin/bin/../../lib/gcc/pic32mx/8.3.1/../../../../pic32mx/lib/libpic32.a(errno.o)
 .debug_line    0x0000000000023eb8       0xc8 /opt/microchip/xc32/v4.60/bin/bin/../../lib/gcc/pic32mx/8.3.1/../../../../pic32mx/lib/libpic32.a(defaultinterrupt.o)
 .debug_line    0x0000000000023f80      0x129 /opt/microchip/xc32/v4.60/bin/bin/../../lib/gcc/pic32mx/8.3.1/../../../../pic32mx/lib/libc-size-musl.a(memcmp.o)
 .debug_line    0x00000000000240a9      0x133 /opt/microchip/xc32/v4.60/bin/bin/../../lib/gcc/pic32mx/8.3.1/../../../../pic32mx/lib/libc-size-musl.a(memcpy.o)
 .debug_line    0x00000000000241dc      0x127 /opt/microchip/xc32/v4.60/bin/bin/../../lib/gcc/pic32mx/8.3.1/../../../../pic32mx/lib/libc-size-musl.a(memset.o)
 .debug_line    0x0000000000024303      0x12b /opt/microchip/xc32/v4.60/bin/bin/../../lib/gcc/pic32mx/8.3.1/../../../../pic32mx/lib/libc-size-musl.a(strlen.o)
 .debug_line    0x000000000002442e       0xb8 /opt/microchip/xc32/v4.60/bin/bin/../../lib/gcc/pic32mx/8.3.1/../../../../pic32mx/lib/libc-size-musl.a(strchr.o)
 .debug_line    0x00000000000244e6      0x1ef /opt/microchip/xc32/v4.60/bin/bin/../../lib/gcc/pic32mx/8.3.1/../../../../pic32mx/lib/libc-size-musl.a(strchrnul.o)
 .debug_line    0x00000000000246d5       0xbe /opt/microchip/xc32/v4.60/bin/bin/../../lib/gcc/pic32mx/8.3.1/../../../../pic32mx/lib/libc-size-musl.a(strcmp.o)
 .debug_line    0x0000000000024793       0xac /opt/microchip/xc32/v4.60/bin/bin/../../lib/gcc/pic32mx/8.3.1/../../../../pic32mx/lib/libc-size-musl.a(strcpy.o)
 .debug_line    0x000000000002483f      0x131 /opt/microchip/xc32/v4.60/bin/bin/../../lib/gcc/pic32mx/8.3.1/../../../../pic32mx/lib/libc-size-musl.a(strncmp.o)
 .debug_line    0x0000000000024970      0x11a /opt/microchip/xc32/v4.60/bin/bin/../../lib/gcc/pic32mx/8.3.1/../../../../pic32mx/lib/libc-size-musl.a(strncpy.o)
 .debug_line    0x0000000000024a8a      0x11a /opt/microchip/xc32/v4.60/bin/bin/../../lib/gcc/pic32mx/8.3.1/../../../../pic32mx/lib/libc-size-musl.a(strrchr.o)
 .debug_line    0x0000000000024ba4      0x161 /opt/microchip/xc32/v4.60/bin/bin/../../lib/gcc/pic32mx/8.3.1/../../../../pic32mx/lib/libc-size-musl.a(strtok.o)
 .debug_line    0x0000000000024d05      0x120 /opt/microchip/xc32/v4.60/bin/bin/../../lib/gcc/pic32mx/8.3.1/../../../../pic32mx/lib/libc-size-musl.a(memrchr.o)
 .debug_line    0x0000000000024e25       0xbe /opt/microchip/xc32/v4.60/bin/bin/../../lib/gcc/pic32mx/8.3.1/../../../../pic32mx/lib/libc-size-musl.a(stpcpy.o)
 .debug_line    0x0000000000024ee3      0x161 /opt/microchip/xc32/v4.60/bin/bin/../../lib/gcc/pic32mx/8.3.1/../../../../pic32mx/lib/libc-size-musl.a(stpncpy.o)
 .debug_line    0x0000000000025044      0x1dc /opt/microchip/xc32/v4.60/bin/bin/../../lib/gcc/pic32mx/8.3.1/../../../../pic32mx/lib/libc-size-musl.a(strcspn.o)
 .debug_line    0x0000000000025220      0x181 /opt/microchip/xc32/v4.60/bin/bin/../../lib/gcc/pic32mx/8.3.1/../../../../pic32mx/lib/libc-size-musl.a(strspn.o)
 .debug_line    0x00000000000253a1      0x280 /opt/microchip/xc32/v4.60/bin/bin/../../lib/gcc/pic32mx/8.3.1/../../../../pic32mx/lib/liblmalloc-musl.a(lite_free.o)
 .debug_line    0x0000000000025621      0x21d /opt/microchip/xc32/v4.60/bin/bin/../../lib/gcc/pic32mx/8.3.1/../../../../pic32mx/lib/liblmalloc-musl.a(lite_malloc.o)
 .debug_line    0x000000000002583e      0x1a8 /opt/microchip/xc32/v4.60/bin/bin/../../lib/gcc/pic32mx/8.3.1/../../../../pic32mx/lib/libc-musl.a(isalnum.o)
 .debug_line    0x00000000000259e6      0x1ac /opt/microchip/xc32/v4.60/bin/bin/../../lib/gcc/pic32mx/8.3.1/../../../../pic32mx/lib/libc-musl.a(isxdigit.o)
 .debug_line    0x0000000000025b92      0x1aa /opt/microchip/xc32/v4.60/bin/bin/../../lib/gcc/pic32mx/8.3.1/../../../../pic32mx/lib/libc-musl.a(tolower.o)
 .debug_line    0x0000000000025d3c      0x1aa /opt/microchip/xc32/v4.60/bin/bin/../../lib/gcc/pic32mx/8.3.1/../../../../pic32mx/lib/libc-musl.a(toupper.o)
 .debug_line    0x0000000000025ee6      0x13c /opt/microchip/xc32/v4.60/bin/bin/../../lib/gcc/pic32mx/8.3.1/../../../../pic32mx/lib/libc-musl.a(expand_heap.o)
 .debug_line    0x0000000000026022      0x13d /opt/microchip/xc32/v4.60/bin/bin/../../lib/gcc/pic32mx/8.3.1/../../../../pic32mx/lib/libc-musl.a(rand.o)
 .debug_line    0x000000000002615f      0x275 /opt/microchip/xc32/v4.60/bin/bin/../../lib/gcc/pic32mx/8.3.1/../../../../pic32mx/lib/libc-musl.a(vsnprintf.o)
 .debug_line    0x00000000000263d4      0x226 /opt/microchip/xc32/v4.60/bin/bin/../../lib/gcc/pic32mx/8.3.1/../../../../pic32mx/lib/libc-musl.a(stdin.o)
 .debug_line    0x00000000000265fa      0x254 /opt/microchip/xc32/v4.60/bin/bin/../../lib/gcc/pic32mx/8.3.1/../../../../pic32mx/lib/libc-musl.a(stdout.o)
 .debug_line    0x000000000002684e      0x189 /opt/microchip/xc32/v4.60/bin/bin/../../lib/gcc/pic32mx/8.3.1/../../../../pic32mx/lib/libc-musl.a(setbuf.o)
 .debug_line    0x00000000000269d7      0x198 /opt/microchip/xc32/v4.60/bin/bin/../../lib/gcc/pic32mx/8.3.1/../../../../pic32mx/lib/libc-musl.a(sprintf.o)
 .debug_line    0x0000000000026b6f      0x189 /opt/microchip/xc32/v4.60/bin/bin/../../lib/gcc/pic32mx/8.3.1/../../../../pic32mx/lib/libc-musl.a(vsprintf.o)
 .debug_line    0x0000000000026cf8      0x32f /opt/microchip/xc32/v4.60/bin/bin/../../lib/gcc/pic32mx/8.3.1/../../../../pic32mx/lib/libc-musl.a(strtol.o)
 .debug_line    0x0000000000027027      0x62d /opt/microchip/xc32/v4.60/bin/bin/../../lib/gcc/pic32mx/8.3.1/../../../../pic32mx/lib/libc-musl.a(qsort.o)
 .debug_line    0x0000000000027654      0x4e5 /opt/microchip/xc32/v4.60/bin/bin/../../lib/gcc/pic32mx/8.3.1/../../../../pic32mx/lib/libc-musl.a(intscan.o)
 .debug_line    0x0000000000027b39      0x23b /opt/microchip/xc32/v4.60/bin/bin/../../lib/gcc/pic32mx/8.3.1/../../../../pic32mx/lib/libc-musl.a(shgetc.o)
 .debug_line    0x0000000000027d74      0x20e /opt/microchip/xc32/v4.60/bin/bin/../../lib/gcc/pic32mx/8.3.1/../../../../pic32mx/lib/libc-musl.a(__uflow.o)
 .debug_line    0x0000000000027f82      0x145 /opt/microchip/xc32/v4.60/bin/bin/../../lib/gcc/pic32mx/8.3.1/../../../../pic32mx/lib/libc-musl.a(__io_init_needed.o)
 .debug_line    0x00000000000280c7      0x135 /opt/microchip/xc32/v4.60/bin/bin/../../lib/gcc/pic32mx/8.3.1/../../../../pic32mx/lib/libc-musl.a(__io_rw_needed.o)
 .debug_line    0x00000000000281fc      0x28c /opt/microchip/xc32/v4.60/bin/bin/../../lib/gcc/pic32mx/8.3.1/../../../../pic32mx/lib/libc-musl.a(__out.o)
 .debug_line    0x0000000000028488      0x2d9 /opt/microchip/xc32/v4.60/bin/bin/../../lib/gcc/pic32mx/8.3.1/../../../../pic32mx/lib/libc-musl.a(__stdio_close.o)
 .debug_line    0x0000000000028761      0x283 /opt/microchip/xc32/v4.60/bin/bin/../../lib/gcc/pic32mx/8.3.1/../../../../pic32mx/lib/libc-musl.a(__stdio_read.o)
 .debug_line    0x00000000000289e4      0x230 /opt/microchip/xc32/v4.60/bin/bin/../../lib/gcc/pic32mx/8.3.1/../../../../pic32mx/lib/libc-musl.a(__towrite_rw.o)
 .debug_line    0x0000000000028c14      0x287 /opt/microchip/xc32/v4.60/bin/bin/../../lib/gcc/pic32mx/8.3.1/../../../../pic32mx/lib/libc-musl.a(setvbuf.o)
 .debug_line    0x0000000000028e9b      0x240 /opt/microchip/xc32/v4.60/bin/bin/../../lib/gcc/pic32mx/8.3.1/../../../../pic32mx/lib/libc-musl.a(vfprintf.o)
 .debug_line    0x00000000000290db      0x1a7 /opt/microchip/xc32/v4.60/bin/bin/../../lib/gcc/pic32mx/8.3.1/../../../../pic32mx/lib/libc-musl.a(readv.o)
 .debug_line    0x0000000000029282      0x268 /opt/microchip/xc32/v4.60/bin/bin/../../lib/gcc/pic32mx/8.3.1/../../../../pic32mx/lib/libc-musl.a(__toread.o)
 .debug_line    0x00000000000294ea      0x2d5 /opt/microchip/xc32/v4.60/bin/bin/../../lib/gcc/pic32mx/8.3.1/../../../../pic32mx/lib/libc-musl.a(__fopen_rw.o)
 .debug_line    0x00000000000297bf      0x221 /opt/microchip/xc32/v4.60/bin/bin/../../lib/gcc/pic32mx/8.3.1/../../../../pic32mx/lib/libc-musl.a(__ftello_rw.o)
 .debug_line    0x00000000000299e0       0xc8 /opt/microchip/xc32/v4.60/bin/bin/../../lib/gcc/pic32mx/8.3.1/../../../../pic32mx/lib/libc-musl.a(__init_stdio.o)
 .debug_line    0x0000000000029aa8      0x139 /opt/microchip/xc32/v4.60/bin/bin/../../lib/gcc/pic32mx/8.3.1/../../../../pic32mx/lib/libc-musl.a(__io_buf_needed.o)
 .debug_line    0x0000000000029be1       0xbc /opt/microchip/xc32/v4.60/bin/bin/../../lib/gcc/pic32mx/8.3.1/../../../../pic32mx/lib/libc-musl.a(__io_file_needed.o)
 .debug_line    0x0000000000029c9d       0xc8 /opt/microchip/xc32/v4.60/bin/bin/../../lib/gcc/pic32mx/8.3.1/../../../../pic32mx/lib/libc-musl.a(__io_fmt_needed.o)
 .debug_line    0x0000000000029d65      0x138 /opt/microchip/xc32/v4.60/bin/bin/../../lib/gcc/pic32mx/8.3.1/../../../../pic32mx/lib/libc-musl.a(__io_std_needed.o)
 .debug_line    0x0000000000029e9d      0x1a4 /opt/microchip/xc32/v4.60/bin/bin/../../lib/gcc/pic32mx/8.3.1/../../../../pic32mx/lib/libc-musl.a(__pop_float.o)
 .debug_line    0x000000000002a041      0x243 /opt/microchip/xc32/v4.60/bin/bin/../../lib/gcc/pic32mx/8.3.1/../../../../pic32mx/lib/libc-musl.a(__pop_int.o)
 .debug_line    0x000000000002a284      0x1fc /opt/microchip/xc32/v4.60/bin/bin/../../lib/gcc/pic32mx/8.3.1/../../../../pic32mx/lib/libc-musl.a(__pop_ptr.o)
 .debug_line    0x000000000002a480      0x6f7 /opt/microchip/xc32/v4.60/bin/bin/../../lib/gcc/pic32mx/8.3.1/../../../../pic32mx/lib/libc-musl.a(__printf_core.o)
 .debug_line    0x000000000002ab77      0x1af /opt/microchip/xc32/v4.60/bin/bin/../../lib/gcc/pic32mx/8.3.1/../../../../pic32mx/lib/libc-musl.a(__putc.o)
 .debug_line    0x000000000002ad26      0x22e /opt/microchip/xc32/v4.60/bin/bin/../../lib/gcc/pic32mx/8.3.1/../../../../pic32mx/lib/libc-musl.a(__stderr.o)
 .debug_line    0x000000000002af54      0x1c7 /opt/microchip/xc32/v4.60/bin/bin/../../lib/gcc/pic32mx/8.3.1/../../../../pic32mx/lib/libc-musl.a(__stdio_exit.o)
 .debug_line    0x000000000002b11b      0x362 /opt/microchip/xc32/v4.60/bin/bin/../../lib/gcc/pic32mx/8.3.1/../../../../pic32mx/lib/libc-musl.a(__stdio_write.o)
 .debug_line    0x000000000002b47d      0x22e /opt/microchip/xc32/v4.60/bin/bin/../../lib/gcc/pic32mx/8.3.1/../../../../pic32mx/lib/libc-musl.a(__stdout.o)
 .debug_line    0x000000000002b6ab      0x1ce /opt/microchip/xc32/v4.60/bin/bin/../../lib/gcc/pic32mx/8.3.1/../../../../pic32mx/lib/libc-musl.a(__towrite.o)
 .debug_line    0x000000000002b879      0x1f9 /opt/microchip/xc32/v4.60/bin/bin/../../lib/gcc/pic32mx/8.3.1/../../../../pic32mx/lib/libc-musl.a(putc.o)
 .debug_line    0x000000000002ba72      0x16c /opt/microchip/xc32/v4.60/bin/bin/../../lib/gcc/pic32mx/8.3.1/../../../../pic32mx/lib/libc-musl.a(atoi.o)
 .debug_line    0x000000000002bbde      0x1a8 /opt/microchip/xc32/v4.60/bin/bin/../../lib/gcc/pic32mx/8.3.1/../../../../pic32mx/lib/libc-musl.a(writev.o)
 .debug_line    0x000000000002bd86      0x23e /opt/microchip/xc32/v4.60/bin/bin/../../lib/gcc/pic32mx/8.3.1/../../../../pic32mx/lib/libc-musl.a(__overflow.o)
 .debug_line    0x000000000002bfc4      0x19e /opt/microchip/xc32/v4.60/bin/bin/../../lib/gcc/pic32mx/8.3.1/../../../../pic32mx/lib/libc-musl.a(__fclose.o)
 .debug_line    0x000000000002c162      0x683 /opt/microchip/xc32/v4.60/bin/bin/../../lib/gcc/pic32mx/8.3.1/../../../../pic32mx/lib/libc-musl.a(__fmt_a.o)
 .debug_line    0x000000000002c7e5      0x247 /opt/microchip/xc32/v4.60/bin/bin/../../lib/gcc/pic32mx/8.3.1/../../../../pic32mx/lib/libc-musl.a(__fmt_d.o)
 .debug_line    0x000000000002ca2c      0x6e1 /opt/microchip/xc32/v4.60/bin/bin/../../lib/gcc/pic32mx/8.3.1/../../../../pic32mx/lib/libc-musl.a(__fmt_fp.o)
 .debug_line    0x000000000002d10d      0x1f8 /opt/microchip/xc32/v4.60/bin/bin/../../lib/gcc/pic32mx/8.3.1/../../../../pic32mx/lib/libc-musl.a(__fmt_o.o)
 .debug_line    0x000000000002d305      0x23e /opt/microchip/xc32/v4.60/bin/bin/../../lib/gcc/pic32mx/8.3.1/../../../../pic32mx/lib/libc-musl.a(__fmt_s.o)
 .debug_line    0x000000000002d543      0x1d1 /opt/microchip/xc32/v4.60/bin/bin/../../lib/gcc/pic32mx/8.3.1/../../../../pic32mx/lib/libc-musl.a(__fmt_u.o)
 .debug_line    0x000000000002d714      0x311 /opt/microchip/xc32/v4.60/bin/bin/../../lib/gcc/pic32mx/8.3.1/../../../../pic32mx/lib/libc-musl.a(__fmt_x.o)
 .debug_line    0x000000000002da25      0x265 /opt/microchip/xc32/v4.60/bin/bin/../../lib/gcc/pic32mx/8.3.1/../../../../pic32mx/lib/libc-musl.a(__fopen.o)
 .debug_line    0x000000000002dc8a      0x192 /opt/microchip/xc32/v4.60/bin/bin/../../lib/gcc/pic32mx/8.3.1/../../../../pic32mx/lib/libc-musl.a(__fseeko.o)
 .debug_line    0x000000000002de1c      0x1c3 /opt/microchip/xc32/v4.60/bin/bin/../../lib/gcc/pic32mx/8.3.1/../../../../pic32mx/lib/libc-musl.a(__ftello.o)
 .debug_line    0x000000000002dfdf      0x1d5 /opt/microchip/xc32/v4.60/bin/bin/../../lib/gcc/pic32mx/8.3.1/../../../../pic32mx/lib/libc-musl.a(__fwrite.o)
 .debug_line    0x000000000002e1b4      0x22b /opt/microchip/xc32/v4.60/bin/bin/../../lib/gcc/pic32mx/8.3.1/../../../../pic32mx/lib/libc-musl.a(__cvt_u.o)
 .debug_line    0x000000000002e3df      0x69e /opt/microchip/xc32/v4.60/bin/bin/../../lib/gcc/pic32mx/8.3.1/../../../../pic32mx/lib/libm-musl.a(fma.o)
 .debug_line    0x000000000002ea7d      0x17a /opt/microchip/xc32/v4.60/bin/bin/../../lib/gcc/pic32mx/8.3.1/../../../../pic32mx/lib/libm-musl.a(scalbn.o)
 .debug_line    0x000000000002ebf7      0x1ae /opt/microchip/xc32/v4.60/bin/bin/../../lib/gcc/pic32mx/8.3.1/../../../../pic32mx/lib/libpic32.a(sbrk.o)
 .debug_line    0x000000000002eda5       0x9a /opt/microchip/xc32/v4.60/bin/bin/../../lib/gcc/pic32mx/8.3.1/../../../../pic32mx/lib/libpic32.a(lseek.o)
 .debug_line    0x000000000002ee3f       0x9a /opt/microchip/xc32/v4.60/bin/bin/../../lib/gcc/pic32mx/8.3.1/../../../../pic32mx/lib/libpic32.a(close.o)
 .debug_line    0x000000000002eed9      0x156 /opt/microchip/xc32/v4.60/bin/bin/../../lib/gcc/pic32mx/8.3.1/../../../../pic32mx/lib/libe.a(_floatdidf.o)
 .debug_line    0x000000000002f02f       0xdc /opt/microchip/xc32/v4.60/bin/bin/../../lib/gcc/pic32mx/8.3.1/libgcc.a(_lshrdi3.o)
 .debug_line    0x000000000002f10b       0xdd /opt/microchip/xc32/v4.60/bin/bin/../../lib/gcc/pic32mx/8.3.1/libgcc.a(_ashldi3.o)
 .debug_line    0x000000000002f1e8      0x30f /opt/microchip/xc32/v4.60/bin/bin/../../lib/gcc/pic32mx/8.3.1/libgcc.a(_umoddi3.o)

.debug_frame    0x0000000000000000     0x8960
 *.elf(.debug_frame)
 *(.debug_frame)
 .debug_frame   0x0000000000000000      0x460 build/default/production/_ext/732082881/drv_eth_pic32_lib.o
 .debug_frame   0x0000000000000460      0x580 build/default/production/_ext/732082881/drv_ethmac.o
 .debug_frame   0x00000000000009e0      0x324 build/default/production/_ext/732082881/drv_ethmac_lib.o
 .debug_frame   0x0000000000000d04      0x920 build/default/production/_ext/444070925/drv_ethphy.o
 .debug_frame   0x0000000000001624       0x54 build/default/production/_ext/444070925/drv_extphy_lan8720.o
 .debug_frame   0x0000000000001678      0x12c build/default/production/_ext/438849557/drv_miim_pic32m.o
 .debug_frame   0x00000000000017a4      0x410 build/default/production/_ext/438849557/drv_miim.o
 .debug_frame   0x0000000000001bb4       0xb4 build/default/production/_ext/1033058136/helpers.o
 .debug_frame   0x0000000000001c68      0x5b8 build/default/production/_ext/1033058136/dhcp.o
 .debug_frame   0x0000000000002220      0x45c build/default/production/_ext/1033058136/ipv4.o
 .debug_frame   0x000000000000267c      0x26c build/default/production/_ext/1033058136/tcpip_commands.o
 .debug_frame   0x00000000000028e8       0xd4 build/default/production/_ext/1033058136/tcpip_notify.o
 .debug_frame   0x00000000000029bc      0x844 build/default/production/_ext/1033058136/tcpip_helpers.o
 .debug_frame   0x0000000000003200      0x174 build/default/production/_ext/1033058136/tcpip_packet.o
 .debug_frame   0x0000000000003374       0xd0 build/default/production/_ext/1033058136/oahash.o
 .debug_frame   0x0000000000003444      0x700 build/default/production/_ext/1033058136/udp.o
 .debug_frame   0x0000000000003b44      0x478 build/default/production/_ext/1033058136/arp.o
 .debug_frame   0x0000000000003fbc       0xb0 build/default/production/_ext/1033058136/icmp.o
 .debug_frame   0x000000000000406c      0x128 build/default/production/_ext/1033058136/tcpip_heap_internal.o
 .debug_frame   0x0000000000004194       0x30 build/default/production/_ext/1033058136/hash_fnv.o
 .debug_frame   0x00000000000041c4       0xb0 build/default/production/_ext/1033058136/dns.o
 .debug_frame   0x0000000000004274       0xbc build/default/production/_ext/1033058136/tcpip_heap_alloc.o
 .debug_frame   0x0000000000004330      0xbec build/default/production/_ext/1033058136/tcpip_manager.o
 .debug_frame   0x0000000000004f1c      0x1b4 build/default/production/_ext/1529399856/osal_freertos.o
 .debug_frame   0x00000000000050d0       0x20 build/default/production/_ext/60165520/plib_clk.o
 .debug_frame   0x00000000000050f0      0x110 build/default/production/_ext/1249264884/plib_coretimer.o
 .debug_frame   0x0000000000005200       0xd4 build/default/production/_ext/1865200349/plib_evic.o
 .debug_frame   0x00000000000052d4       0xa0 build/default/production/_ext/1865254177/plib_gpio.o
 .debug_frame   0x0000000000005374      0x21c build/default/production/_ext/1865657120/plib_uart2.o
 .debug_frame   0x0000000000005590      0x104 build/default/production/_ext/1865657120/plib_uart1.o
 .debug_frame   0x0000000000005694       0x3c build/default/production/_ext/163028504/xc32_monitor.o
 .debug_frame   0x00000000000056d0      0x368 build/default/production/_ext/1376093119/sys_command.o
 .debug_frame   0x0000000000005a38      0x12c build/default/production/_ext/1832805299/sys_console_uart.o
 .debug_frame   0x0000000000005b64      0x18c build/default/production/_ext/1832805299/sys_console.o
 .debug_frame   0x0000000000005cf0       0x70 build/default/production/_ext/944882569/sys_debug.o
 .debug_frame   0x0000000000005d60       0xa0 build/default/production/_ext/1881668453/sys_int.o
 .debug_frame   0x0000000000005e00       0x28 build/default/production/_ext/1000052432/sys_reset.o
 .debug_frame   0x0000000000005e28      0x3dc build/default/production/_ext/101884895/sys_time.o
 .debug_frame   0x0000000000006204       0x9c build/default/production/_ext/753841488/sys_time_h2_adapter.o
 .debug_frame   0x00000000000062a0       0x4c build/default/production/_ext/1171490990/initialization.o
 .debug_frame   0x00000000000062ec       0x64 build/default/production/_ext/1171490990/interrupts.o
 .debug_frame   0x0000000000006350       0x7c build/default/production/_ext/1171490990/freertos_hooks.o
 .debug_frame   0x00000000000063cc       0x40 build/default/production/_ext/1171490990/exceptions.o
 .debug_frame   0x000000000000640c       0x90 build/default/production/_ext/1171490990/tasks.o
 .debug_frame   0x000000000000649c       0xd8 build/default/production/_ext/1665200909/heap_4.o
 .debug_frame   0x0000000000006574       0xf0 build/default/production/_ext/951553248/port.o
 .debug_frame   0x0000000000006664      0x52c build/default/production/_ext/404212886/FreeRTOS_tasks.o
 .debug_frame   0x0000000000006b90      0x134 build/default/production/_ext/404212886/event_groups.o
 .debug_frame   0x0000000000006cc4       0x60 build/default/production/_ext/404212886/list.o
 .debug_frame   0x0000000000006d24      0x2e0 build/default/production/_ext/404212886/queue.o
 .debug_frame   0x0000000000007004      0x284 build/default/production/_ext/404212886/stream_buffer.o
 .debug_frame   0x0000000000007288       0x28 build/default/production/_ext/1360937237/main.o
 .debug_frame   0x00000000000072b0       0x48 build/default/production/_ext/1360937237/app.o
 .debug_frame   0x00000000000072f8      0x13c build/default/production/_ext/1360937237/ethernet.o
 .debug_frame   0x0000000000007434       0x20 /opt/microchip/xc32/v4.60/bin/bin/../../lib/gcc/pic32mx/8.3.1/libgcc.a(_udivdi3.o)
 .debug_frame   0x0000000000007454       0x20 /opt/microchip/xc32/v4.60/bin/bin/../../lib/gcc/pic32mx/8.3.1/../../../../pic32mx/lib/libpic32.a(default-on-reset.o)
 .debug_frame   0x0000000000007474       0x20 /opt/microchip/xc32/v4.60/bin/bin/../../lib/gcc/pic32mx/8.3.1/../../../../pic32mx/lib/libpic32.a(default-on-bootstrap.o)
 .debug_frame   0x0000000000007494       0x20 /opt/microchip/xc32/v4.60/bin/bin/../../lib/gcc/pic32mx/8.3.1/../../../../pic32mx/lib/libpic32.a(defaultinterrupt.o)
 .debug_frame   0x00000000000074b4       0x20 /opt/microchip/xc32/v4.60/bin/bin/../../lib/gcc/pic32mx/8.3.1/../../../../pic32mx/lib/libc-size-musl.a(memcmp.o)
 .debug_frame   0x00000000000074d4       0x20 /opt/microchip/xc32/v4.60/bin/bin/../../lib/gcc/pic32mx/8.3.1/../../../../pic32mx/lib/libc-size-musl.a(memcpy.o)
 .debug_frame   0x00000000000074f4       0x20 /opt/microchip/xc32/v4.60/bin/bin/../../lib/gcc/pic32mx/8.3.1/../../../../pic32mx/lib/libc-size-musl.a(memset.o)
 .debug_frame   0x0000000000007514       0x20 /opt/microchip/xc32/v4.60/bin/bin/../../lib/gcc/pic32mx/8.3.1/../../../../pic32mx/lib/libc-size-musl.a(strlen.o)
 .debug_frame   0x0000000000007534       0x2c /opt/microchip/xc32/v4.60/bin/bin/../../lib/gcc/pic32mx/8.3.1/../../../../pic32mx/lib/libc-size-musl.a(strchr.o)
 .debug_frame   0x0000000000007560       0x30 /opt/microchip/xc32/v4.60/bin/bin/../../lib/gcc/pic32mx/8.3.1/../../../../pic32mx/lib/libc-size-musl.a(strchrnul.o)
 .debug_frame   0x0000000000007590       0x20 /opt/microchip/xc32/v4.60/bin/bin/../../lib/gcc/pic32mx/8.3.1/../../../../pic32mx/lib/libc-size-musl.a(strcmp.o)
 .debug_frame   0x00000000000075b0       0x2c /opt/microchip/xc32/v4.60/bin/bin/../../lib/gcc/pic32mx/8.3.1/../../../../pic32mx/lib/libc-size-musl.a(strcpy.o)
 .debug_frame   0x00000000000075dc       0x20 /opt/microchip/xc32/v4.60/bin/bin/../../lib/gcc/pic32mx/8.3.1/../../../../pic32mx/lib/libc-size-musl.a(strncmp.o)
 .debug_frame   0x00000000000075fc       0x2c /opt/microchip/xc32/v4.60/bin/bin/../../lib/gcc/pic32mx/8.3.1/../../../../pic32mx/lib/libc-size-musl.a(strncpy.o)
 .debug_frame   0x0000000000007628       0x2c /opt/microchip/xc32/v4.60/bin/bin/../../lib/gcc/pic32mx/8.3.1/../../../../pic32mx/lib/libc-size-musl.a(strrchr.o)
 .debug_frame   0x0000000000007654       0x34 /opt/microchip/xc32/v4.60/bin/bin/../../lib/gcc/pic32mx/8.3.1/../../../../pic32mx/lib/libc-size-musl.a(strtok.o)
 .debug_frame   0x0000000000007688       0x20 /opt/microchip/xc32/v4.60/bin/bin/../../lib/gcc/pic32mx/8.3.1/../../../../pic32mx/lib/libc-size-musl.a(memrchr.o)
 .debug_frame   0x00000000000076a8       0x20 /opt/microchip/xc32/v4.60/bin/bin/../../lib/gcc/pic32mx/8.3.1/../../../../pic32mx/lib/libc-size-musl.a(stpcpy.o)
 .debug_frame   0x00000000000076c8       0x20 /opt/microchip/xc32/v4.60/bin/bin/../../lib/gcc/pic32mx/8.3.1/../../../../pic32mx/lib/libc-size-musl.a(stpncpy.o)
 .debug_frame   0x00000000000076e8       0x30 /opt/microchip/xc32/v4.60/bin/bin/../../lib/gcc/pic32mx/8.3.1/../../../../pic32mx/lib/libc-size-musl.a(strcspn.o)
 .debug_frame   0x0000000000007718       0x34 /opt/microchip/xc32/v4.60/bin/bin/../../lib/gcc/pic32mx/8.3.1/../../../../pic32mx/lib/libc-size-musl.a(strspn.o)
 .debug_frame   0x000000000000774c       0x40 /opt/microchip/xc32/v4.60/bin/bin/../../lib/gcc/pic32mx/8.3.1/../../../../pic32mx/lib/liblmalloc-musl.a(lite_free.o)
 .debug_frame   0x000000000000778c       0x34 /opt/microchip/xc32/v4.60/bin/bin/../../lib/gcc/pic32mx/8.3.1/../../../../pic32mx/lib/liblmalloc-musl.a(lite_malloc.o)
 .debug_frame   0x00000000000077c0       0x3c /opt/microchip/xc32/v4.60/bin/bin/../../lib/gcc/pic32mx/8.3.1/../../../../pic32mx/lib/libc-musl.a(isalnum.o)
 .debug_frame   0x00000000000077fc       0x3c /opt/microchip/xc32/v4.60/bin/bin/../../lib/gcc/pic32mx/8.3.1/../../../../pic32mx/lib/libc-musl.a(isxdigit.o)
 .debug_frame   0x0000000000007838       0x3c /opt/microchip/xc32/v4.60/bin/bin/../../lib/gcc/pic32mx/8.3.1/../../../../pic32mx/lib/libc-musl.a(tolower.o)
 .debug_frame   0x0000000000007874       0x3c /opt/microchip/xc32/v4.60/bin/bin/../../lib/gcc/pic32mx/8.3.1/../../../../pic32mx/lib/libc-musl.a(toupper.o)
 .debug_frame   0x00000000000078b0       0x2c /opt/microchip/xc32/v4.60/bin/bin/../../lib/gcc/pic32mx/8.3.1/../../../../pic32mx/lib/libc-musl.a(expand_heap.o)
 .debug_frame   0x00000000000078dc       0x30 /opt/microchip/xc32/v4.60/bin/bin/../../lib/gcc/pic32mx/8.3.1/../../../../pic32mx/lib/libc-musl.a(rand.o)
 .debug_frame   0x000000000000790c       0x38 /opt/microchip/xc32/v4.60/bin/bin/../../lib/gcc/pic32mx/8.3.1/../../../../pic32mx/lib/libc-musl.a(vsnprintf.o)
 .debug_frame   0x0000000000007944       0x3c /opt/microchip/xc32/v4.60/bin/bin/../../lib/gcc/pic32mx/8.3.1/../../../../pic32mx/lib/libc-musl.a(stdin.o)
 .debug_frame   0x0000000000007980       0x4c /opt/microchip/xc32/v4.60/bin/bin/../../lib/gcc/pic32mx/8.3.1/../../../../pic32mx/lib/libc-musl.a(stdout.o)
 .debug_frame   0x00000000000079cc       0x2c /opt/microchip/xc32/v4.60/bin/bin/../../lib/gcc/pic32mx/8.3.1/../../../../pic32mx/lib/libc-musl.a(setbuf.o)
 .debug_frame   0x00000000000079f8       0x2c /opt/microchip/xc32/v4.60/bin/bin/../../lib/gcc/pic32mx/8.3.1/../../../../pic32mx/lib/libc-musl.a(sprintf.o)
 .debug_frame   0x0000000000007a24       0x2c /opt/microchip/xc32/v4.60/bin/bin/../../lib/gcc/pic32mx/8.3.1/../../../../pic32mx/lib/libc-musl.a(vsprintf.o)
 .debug_frame   0x0000000000007a50       0xdc /opt/microchip/xc32/v4.60/bin/bin/../../lib/gcc/pic32mx/8.3.1/../../../../pic32mx/lib/libc-musl.a(strtol.o)
 .debug_frame   0x0000000000007b2c       0xfc /opt/microchip/xc32/v4.60/bin/bin/../../lib/gcc/pic32mx/8.3.1/../../../../pic32mx/lib/libc-musl.a(qsort.o)
 .debug_frame   0x0000000000007c28       0x40 /opt/microchip/xc32/v4.60/bin/bin/../../lib/gcc/pic32mx/8.3.1/../../../../pic32mx/lib/libc-musl.a(intscan.o)
 .debug_frame   0x0000000000007c68       0x40 /opt/microchip/xc32/v4.60/bin/bin/../../lib/gcc/pic32mx/8.3.1/../../../../pic32mx/lib/libc-musl.a(shgetc.o)
 .debug_frame   0x0000000000007ca8       0x30 /opt/microchip/xc32/v4.60/bin/bin/../../lib/gcc/pic32mx/8.3.1/../../../../pic32mx/lib/libc-musl.a(__uflow.o)
 .debug_frame   0x0000000000007cd8       0x48 /opt/microchip/xc32/v4.60/bin/bin/../../lib/gcc/pic32mx/8.3.1/../../../../pic32mx/lib/libc-musl.a(__io_init_needed.o)
 .debug_frame   0x0000000000007d20       0x2c /opt/microchip/xc32/v4.60/bin/bin/../../lib/gcc/pic32mx/8.3.1/../../../../pic32mx/lib/libc-musl.a(__io_rw_needed.o)
 .debug_frame   0x0000000000007d4c       0x50 /opt/microchip/xc32/v4.60/bin/bin/../../lib/gcc/pic32mx/8.3.1/../../../../pic32mx/lib/libc-musl.a(__out.o)
 .debug_frame   0x0000000000007d9c       0x50 /opt/microchip/xc32/v4.60/bin/bin/../../lib/gcc/pic32mx/8.3.1/../../../../pic32mx/lib/libc-musl.a(__stdio_close.o)
 .debug_frame   0x0000000000007dec       0x34 /opt/microchip/xc32/v4.60/bin/bin/../../lib/gcc/pic32mx/8.3.1/../../../../pic32mx/lib/libc-musl.a(__stdio_read.o)
 .debug_frame   0x0000000000007e20       0x20 /opt/microchip/xc32/v4.60/bin/bin/../../lib/gcc/pic32mx/8.3.1/../../../../pic32mx/lib/libc-musl.a(__towrite_rw.o)
 .debug_frame   0x0000000000007e40       0x50 /opt/microchip/xc32/v4.60/bin/bin/../../lib/gcc/pic32mx/8.3.1/../../../../pic32mx/lib/libc-musl.a(setvbuf.o)
 .debug_frame   0x0000000000007e90       0x48 /opt/microchip/xc32/v4.60/bin/bin/../../lib/gcc/pic32mx/8.3.1/../../../../pic32mx/lib/libc-musl.a(vfprintf.o)
 .debug_frame   0x0000000000007ed8       0x38 /opt/microchip/xc32/v4.60/bin/bin/../../lib/gcc/pic32mx/8.3.1/../../../../pic32mx/lib/libc-musl.a(readv.o)
 .debug_frame   0x0000000000007f10       0x4c /opt/microchip/xc32/v4.60/bin/bin/../../lib/gcc/pic32mx/8.3.1/../../../../pic32mx/lib/libc-musl.a(__toread.o)
 .debug_frame   0x0000000000007f5c       0x2c /opt/microchip/xc32/v4.60/bin/bin/../../lib/gcc/pic32mx/8.3.1/../../../../pic32mx/lib/libc-musl.a(__fopen_rw.o)
 .debug_frame   0x0000000000007f88       0x20 /opt/microchip/xc32/v4.60/bin/bin/../../lib/gcc/pic32mx/8.3.1/../../../../pic32mx/lib/libc-musl.a(__ftello_rw.o)
 .debug_frame   0x0000000000007fa8       0x3c /opt/microchip/xc32/v4.60/bin/bin/../../lib/gcc/pic32mx/8.3.1/../../../../pic32mx/lib/libc-musl.a(__init_stdio.o)
 .debug_frame   0x0000000000007fe4       0x2c /opt/microchip/xc32/v4.60/bin/bin/../../lib/gcc/pic32mx/8.3.1/../../../../pic32mx/lib/libc-musl.a(__io_buf_needed.o)
 .debug_frame   0x0000000000008010       0x2c /opt/microchip/xc32/v4.60/bin/bin/../../lib/gcc/pic32mx/8.3.1/../../../../pic32mx/lib/libc-musl.a(__io_file_needed.o)
 .debug_frame   0x000000000000803c       0x2c /opt/microchip/xc32/v4.60/bin/bin/../../lib/gcc/pic32mx/8.3.1/../../../../pic32mx/lib/libc-musl.a(__io_fmt_needed.o)
 .debug_frame   0x0000000000008068       0x2c /opt/microchip/xc32/v4.60/bin/bin/../../lib/gcc/pic32mx/8.3.1/../../../../pic32mx/lib/libc-musl.a(__io_std_needed.o)
 .debug_frame   0x0000000000008094       0x20 /opt/microchip/xc32/v4.60/bin/bin/../../lib/gcc/pic32mx/8.3.1/../../../../pic32mx/lib/libc-musl.a(__pop_float.o)
 .debug_frame   0x00000000000080b4       0x20 /opt/microchip/xc32/v4.60/bin/bin/../../lib/gcc/pic32mx/8.3.1/../../../../pic32mx/lib/libc-musl.a(__pop_int.o)
 .debug_frame   0x00000000000080d4       0x20 /opt/microchip/xc32/v4.60/bin/bin/../../lib/gcc/pic32mx/8.3.1/../../../../pic32mx/lib/libc-musl.a(__pop_ptr.o)
 .debug_frame   0x00000000000080f4       0xc8 /opt/microchip/xc32/v4.60/bin/bin/../../lib/gcc/pic32mx/8.3.1/../../../../pic32mx/lib/libc-musl.a(__printf_core.o)
 .debug_frame   0x00000000000081bc       0x2c /opt/microchip/xc32/v4.60/bin/bin/../../lib/gcc/pic32mx/8.3.1/../../../../pic32mx/lib/libc-musl.a(__putc.o)
 .debug_frame   0x00000000000081e8       0x4c /opt/microchip/xc32/v4.60/bin/bin/../../lib/gcc/pic32mx/8.3.1/../../../../pic32mx/lib/libc-musl.a(__stderr.o)
 .debug_frame   0x0000000000008234       0x4c /opt/microchip/xc32/v4.60/bin/bin/../../lib/gcc/pic32mx/8.3.1/../../../../pic32mx/lib/libc-musl.a(__stdio_exit.o)
 .debug_frame   0x0000000000008280       0x5c /opt/microchip/xc32/v4.60/bin/bin/../../lib/gcc/pic32mx/8.3.1/../../../../pic32mx/lib/libc-musl.a(__stdio_write.o)
 .debug_frame   0x00000000000082dc       0x4c /opt/microchip/xc32/v4.60/bin/bin/../../lib/gcc/pic32mx/8.3.1/../../../../pic32mx/lib/libc-musl.a(__stdout.o)
 .debug_frame   0x0000000000008328       0x3c /opt/microchip/xc32/v4.60/bin/bin/../../lib/gcc/pic32mx/8.3.1/../../../../pic32mx/lib/libc-musl.a(__towrite.o)
 .debug_frame   0x0000000000008364       0x64 /opt/microchip/xc32/v4.60/bin/bin/../../lib/gcc/pic32mx/8.3.1/../../../../pic32mx/lib/libc-musl.a(putc.o)
 .debug_frame   0x00000000000083c8       0x20 /opt/microchip/xc32/v4.60/bin/bin/../../lib/gcc/pic32mx/8.3.1/../../../../pic32mx/lib/libc-musl.a(atoi.o)
 .debug_frame   0x00000000000083e8       0x38 /opt/microchip/xc32/v4.60/bin/bin/../../lib/gcc/pic32mx/8.3.1/../../../../pic32mx/lib/libc-musl.a(writev.o)
 .debug_frame   0x0000000000008420       0x30 /opt/microchip/xc32/v4.60/bin/bin/../../lib/gcc/pic32mx/8.3.1/../../../../pic32mx/lib/libc-musl.a(__overflow.o)
 .debug_frame   0x0000000000008450       0x2c /opt/microchip/xc32/v4.60/bin/bin/../../lib/gcc/pic32mx/8.3.1/../../../../pic32mx/lib/libc-musl.a(__fclose.o)
 .debug_frame   0x000000000000847c       0x44 /opt/microchip/xc32/v4.60/bin/bin/../../lib/gcc/pic32mx/8.3.1/../../../../pic32mx/lib/libc-musl.a(__fmt_a.o)
 .debug_frame   0x00000000000084c0       0x38 /opt/microchip/xc32/v4.60/bin/bin/../../lib/gcc/pic32mx/8.3.1/../../../../pic32mx/lib/libc-musl.a(__fmt_d.o)
 .debug_frame   0x00000000000084f8       0x44 /opt/microchip/xc32/v4.60/bin/bin/../../lib/gcc/pic32mx/8.3.1/../../../../pic32mx/lib/libc-musl.a(__fmt_fp.o)
 .debug_frame   0x000000000000853c       0x34 /opt/microchip/xc32/v4.60/bin/bin/../../lib/gcc/pic32mx/8.3.1/../../../../pic32mx/lib/libc-musl.a(__fmt_o.o)
 .debug_frame   0x0000000000008570       0x34 /opt/microchip/xc32/v4.60/bin/bin/../../lib/gcc/pic32mx/8.3.1/../../../../pic32mx/lib/libc-musl.a(__fmt_s.o)
 .debug_frame   0x00000000000085a4       0x34 /opt/microchip/xc32/v4.60/bin/bin/../../lib/gcc/pic32mx/8.3.1/../../../../pic32mx/lib/libc-musl.a(__fmt_u.o)
 .debug_frame   0x00000000000085d8       0x40 /opt/microchip/xc32/v4.60/bin/bin/../../lib/gcc/pic32mx/8.3.1/../../../../pic32mx/lib/libc-musl.a(__fmt_x.o)
 .debug_frame   0x0000000000008618       0x58 /opt/microchip/xc32/v4.60/bin/bin/../../lib/gcc/pic32mx/8.3.1/../../../../pic32mx/lib/libc-musl.a(__fopen.o)
 .debug_frame   0x0000000000008670       0x2c /opt/microchip/xc32/v4.60/bin/bin/../../lib/gcc/pic32mx/8.3.1/../../../../pic32mx/lib/libc-musl.a(__fseeko.o)
 .debug_frame   0x000000000000869c       0x3c /opt/microchip/xc32/v4.60/bin/bin/../../lib/gcc/pic32mx/8.3.1/../../../../pic32mx/lib/libc-musl.a(__ftello.o)
 .debug_frame   0x00000000000086d8       0x48 /opt/microchip/xc32/v4.60/bin/bin/../../lib/gcc/pic32mx/8.3.1/../../../../pic32mx/lib/libc-musl.a(__fwrite.o)
 .debug_frame   0x0000000000008720       0x40 /opt/microchip/xc32/v4.60/bin/bin/../../lib/gcc/pic32mx/8.3.1/../../../../pic32mx/lib/libc-musl.a(__cvt_u.o)
 .debug_frame   0x0000000000008760       0x70 /opt/microchip/xc32/v4.60/bin/bin/../../lib/gcc/pic32mx/8.3.1/../../../../pic32mx/lib/libm-musl.a(fma.o)
 .debug_frame   0x00000000000087d0       0x34 /opt/microchip/xc32/v4.60/bin/bin/../../lib/gcc/pic32mx/8.3.1/../../../../pic32mx/lib/libm-musl.a(scalbn.o)
 .debug_frame   0x0000000000008804       0x9c /opt/microchip/xc32/v4.60/bin/bin/../../lib/gcc/pic32mx/8.3.1/../../../../pic32mx/lib/libpic32.a(sbrk.o)
 .debug_frame   0x00000000000088a0       0x20 /opt/microchip/xc32/v4.60/bin/bin/../../lib/gcc/pic32mx/8.3.1/../../../../pic32mx/lib/libpic32.a(lseek.o)
 .debug_frame   0x00000000000088c0       0x20 /opt/microchip/xc32/v4.60/bin/bin/../../lib/gcc/pic32mx/8.3.1/../../../../pic32mx/lib/libpic32.a(close.o)
 .debug_frame   0x00000000000088e0       0x20 /opt/microchip/xc32/v4.60/bin/bin/../../lib/gcc/pic32mx/8.3.1/../../../../pic32mx/lib/libe.a(_floatdidf.o)
 .debug_frame   0x0000000000008900       0x20 /opt/microchip/xc32/v4.60/bin/bin/../../lib/gcc/pic32mx/8.3.1/libgcc.a(_lshrdi3.o)
 .debug_frame   0x0000000000008920       0x20 /opt/microchip/xc32/v4.60/bin/bin/../../lib/gcc/pic32mx/8.3.1/libgcc.a(_ashldi3.o)
 .debug_frame   0x0000000000008940       0x20 /opt/microchip/xc32/v4.60/bin/bin/../../lib/gcc/pic32mx/8.3.1/libgcc.a(_umoddi3.o)

.debug_str      0x0000000000000000    0x58c64
 *.elf(.debug_str)
 *(.debug_str)
 .debug_str     0x0000000000000000     0x1a1f build/default/production/_ext/732082881/drv_eth_pic32_lib.o
 .debug_str     0x0000000000001a1f     0x56c7 build/default/production/_ext/732082881/drv_ethmac.o
 .debug_str     0x00000000000070e6     0x4465 build/default/production/_ext/732082881/drv_ethmac_lib.o
 .debug_str     0x000000000000b54b     0x30f7 build/default/production/_ext/444070925/drv_ethphy.o
 .debug_str     0x000000000000e642     0x117e build/default/production/_ext/444070925/drv_extphy_lan8720.o
 .debug_str     0x000000000000f7c0     0x177c build/default/production/_ext/438849557/drv_miim_pic32m.o
 .debug_str     0x0000000000010f3c     0x16cd build/default/production/_ext/438849557/drv_miim.o
 .debug_str     0x0000000000012609      0x36c build/default/production/_ext/1033058136/helpers.o
 .debug_str     0x0000000000012975     0x4510 build/default/production/_ext/1033058136/dhcp.o
 .debug_str     0x0000000000016e85     0x42f1 build/default/production/_ext/1033058136/ipv4.o
 .debug_str     0x000000000001b176     0x2de7 build/default/production/_ext/1033058136/tcpip_commands.o
 .debug_str     0x000000000001df5d      0x7e6 build/default/production/_ext/1033058136/tcpip_notify.o
 .debug_str     0x000000000001e743     0x1919 build/default/production/_ext/1033058136/tcpip_helpers.o
 .debug_str     0x000000000002005c     0x2318 build/default/production/_ext/1033058136/tcpip_packet.o
 .debug_str     0x0000000000022374      0x5c2 build/default/production/_ext/1033058136/oahash.o
 .debug_str     0x0000000000022936     0x4249 build/default/production/_ext/1033058136/udp.o
 .debug_str     0x0000000000026b7f     0x3593 build/default/production/_ext/1033058136/arp.o
 .debug_str     0x000000000002a112     0x22a9 build/default/production/_ext/1033058136/icmp.o
 .debug_str     0x000000000002c3bb      0xfdf build/default/production/_ext/1033058136/tcpip_heap_internal.o
 .debug_str     0x000000000002d39a      0x2b1 build/default/production/_ext/1033058136/hash_fnv.o
 .debug_str     0x000000000002d64b      0x7ac build/default/production/_ext/1033058136/dns.o
 .debug_str     0x000000000002ddf7       0x6d build/default/production/_ext/1033058136/tcpip_helper_c32.o
 .debug_str     0x000000000002de64      0x9aa build/default/production/_ext/1033058136/tcpip_heap_alloc.o
 .debug_str     0x000000000002e80e     0x55ec build/default/production/_ext/1033058136/tcpip_manager.o
 .debug_str     0x0000000000033dfa      0x69c build/default/production/_ext/1529399856/osal_freertos.o
 .debug_str     0x0000000000034496      0x3aa build/default/production/_ext/60165520/plib_clk.o
 .debug_str     0x0000000000034840      0x553 build/default/production/_ext/1249264884/plib_coretimer.o
 .debug_str     0x0000000000034d93      0x3e1 build/default/production/_ext/1865200349/plib_evic.o
 .debug_str     0x0000000000035174      0x3ac build/default/production/_ext/1865254177/plib_gpio.o
 .debug_str     0x0000000000035520      0xa59 build/default/production/_ext/1865657120/plib_uart2.o
 .debug_str     0x0000000000035f79      0x4de build/default/production/_ext/1865657120/plib_uart1.o
 .debug_str     0x0000000000036457      0x2ce build/default/production/_ext/163028504/xc32_monitor.o
 .debug_str     0x0000000000036725      0xbf3 build/default/production/_ext/1376093119/sys_command.o
 .debug_str     0x0000000000037318      0xb0f build/default/production/_ext/1832805299/sys_console_uart.o
 .debug_str     0x0000000000037e27      0xa66 build/default/production/_ext/1832805299/sys_console.o
 .debug_str     0x000000000003888d      0x4b8 build/default/production/_ext/944882569/sys_debug.o
 .debug_str     0x0000000000038d45      0x3a5 build/default/production/_ext/1881668453/sys_int.o
 .debug_str     0x00000000000390ea      0x2c0 build/default/production/_ext/1000052432/sys_reset.o
 .debug_str     0x00000000000393aa      0xd5c build/default/production/_ext/101884895/sys_time.o
 .debug_str     0x000000000003a106      0x430 build/default/production/_ext/753841488/sys_time_h2_adapter.o
 .debug_str     0x000000000003a536     0x3d33 build/default/production/_ext/1171490990/initialization.o
 .debug_str     0x000000000003e269      0x309 build/default/production/_ext/1171490990/interrupts.o
 .debug_str     0x000000000003e572      0x38d build/default/production/_ext/1171490990/freertos_hooks.o
 .debug_str     0x000000000003e8ff       0x57 build/default/production/_ext/1171490990/interrupts_a.o
 .debug_str     0x000000000003e956      0x3a3 build/default/production/_ext/1171490990/exceptions.o
 .debug_str     0x000000000003ecf9      0xacb build/default/production/_ext/1171490990/tasks.o
 .debug_str     0x000000000003f7c4      0x612 build/default/production/_ext/1665200909/heap_4.o
 .debug_str     0x000000000003fdd6       0x7c build/default/production/_ext/951553248/port_asm.o
 .debug_str     0x000000000003fe52      0x7ed build/default/production/_ext/951553248/port.o
 .debug_str     0x000000000004063f     0x102e build/default/production/_ext/404212886/FreeRTOS_tasks.o
 .debug_str     0x000000000004166d      0x701 build/default/production/_ext/404212886/event_groups.o
 .debug_str     0x0000000000041d6e      0x3d6 build/default/production/_ext/404212886/list.o
 .debug_str     0x0000000000042144      0xa8f build/default/production/_ext/404212886/queue.o
 .debug_str     0x0000000000042bd3      0x9d0 build/default/production/_ext/404212886/stream_buffer.o
 .debug_str     0x00000000000435a3      0x295 build/default/production/_ext/404212886/timers.o
 .debug_str     0x0000000000043838      0x297 build/default/production/_ext/404212886/croutine.o
 .debug_str     0x0000000000043acf      0x296 build/default/production/_ext/1360937237/main.o
 .debug_str     0x0000000000043d65      0x445 build/default/production/_ext/1360937237/app.o
 .debug_str     0x00000000000441aa     0x1b70 build/default/production/_ext/1360937237/ethernet.o
 .debug_str     0x0000000000045d1a      0x375 /opt/microchip/xc32/v4.60/bin/bin/../../lib/gcc/pic32mx/8.3.1/libgcc.a(_udivdi3.o)
 .debug_str     0x000000000004608f      0x331 /opt/microchip/xc32/v4.60/bin/bin/../../lib/gcc/pic32mx/8.3.1/../../../../pic32mx/lib/libpic32.a(default-on-reset.o)
 .debug_str     0x00000000000463c0      0x339 /opt/microchip/xc32/v4.60/bin/bin/../../lib/gcc/pic32mx/8.3.1/../../../../pic32mx/lib/libpic32.a(default-on-bootstrap.o)
 .debug_str     0x00000000000466f9      0x31c /opt/microchip/xc32/v4.60/bin/bin/../../lib/gcc/pic32mx/8.3.1/../../../../pic32mx/lib/libpic32.a(errno.o)
 .debug_str     0x0000000000046a15      0x34b /opt/microchip/xc32/v4.60/bin/bin/../../lib/gcc/pic32mx/8.3.1/../../../../pic32mx/lib/libpic32.a(defaultinterrupt.o)
 .debug_str     0x0000000000046d60      0x28e /opt/microchip/xc32/v4.60/bin/bin/../../lib/gcc/pic32mx/8.3.1/../../../../pic32mx/lib/libc-size-musl.a(memcmp.o)
 .debug_str     0x0000000000046fee      0x2a8 /opt/microchip/xc32/v4.60/bin/bin/../../lib/gcc/pic32mx/8.3.1/../../../../pic32mx/lib/libc-size-musl.a(memcpy.o)
 .debug_str     0x0000000000047296      0x294 /opt/microchip/xc32/v4.60/bin/bin/../../lib/gcc/pic32mx/8.3.1/../../../../pic32mx/lib/libc-size-musl.a(memset.o)
 .debug_str     0x000000000004752a      0x29a /opt/microchip/xc32/v4.60/bin/bin/../../lib/gcc/pic32mx/8.3.1/../../../../pic32mx/lib/libc-size-musl.a(strlen.o)
 .debug_str     0x00000000000477c4      0x28a /opt/microchip/xc32/v4.60/bin/bin/../../lib/gcc/pic32mx/8.3.1/../../../../pic32mx/lib/libc-size-musl.a(strchr.o)
 .debug_str     0x0000000000047a4e      0x303 /opt/microchip/xc32/v4.60/bin/bin/../../lib/gcc/pic32mx/8.3.1/../../../../pic32mx/lib/libc-size-musl.a(strchrnul.o)
 .debug_str     0x0000000000047d51      0x27e /opt/microchip/xc32/v4.60/bin/bin/../../lib/gcc/pic32mx/8.3.1/../../../../pic32mx/lib/libc-size-musl.a(strcmp.o)
 .debug_str     0x0000000000047fcf      0x28c /opt/microchip/xc32/v4.60/bin/bin/../../lib/gcc/pic32mx/8.3.1/../../../../pic32mx/lib/libc-size-musl.a(strcpy.o)
 .debug_str     0x000000000004825b      0x295 /opt/microchip/xc32/v4.60/bin/bin/../../lib/gcc/pic32mx/8.3.1/../../../../pic32mx/lib/libc-size-musl.a(strncmp.o)
 .debug_str     0x00000000000484f0      0x291 /opt/microchip/xc32/v4.60/bin/bin/../../lib/gcc/pic32mx/8.3.1/../../../../pic32mx/lib/libc-size-musl.a(strncpy.o)
 .debug_str     0x0000000000048781      0x291 /opt/microchip/xc32/v4.60/bin/bin/../../lib/gcc/pic32mx/8.3.1/../../../../pic32mx/lib/libc-size-musl.a(strrchr.o)
 .debug_str     0x0000000000048a12      0x28d /opt/microchip/xc32/v4.60/bin/bin/../../lib/gcc/pic32mx/8.3.1/../../../../pic32mx/lib/libc-size-musl.a(strtok.o)
 .debug_str     0x0000000000048c9f      0x2ae /opt/microchip/xc32/v4.60/bin/bin/../../lib/gcc/pic32mx/8.3.1/../../../../pic32mx/lib/libc-size-musl.a(memrchr.o)
 .debug_str     0x0000000000048f4d      0x2a4 /opt/microchip/xc32/v4.60/bin/bin/../../lib/gcc/pic32mx/8.3.1/../../../../pic32mx/lib/libc-size-musl.a(stpcpy.o)
 .debug_str     0x00000000000491f1      0x2b3 /opt/microchip/xc32/v4.60/bin/bin/../../lib/gcc/pic32mx/8.3.1/../../../../pic32mx/lib/libc-size-musl.a(stpncpy.o)
 .debug_str     0x00000000000494a4      0x2a2 /opt/microchip/xc32/v4.60/bin/bin/../../lib/gcc/pic32mx/8.3.1/../../../../pic32mx/lib/libc-size-musl.a(strcspn.o)
 .debug_str     0x0000000000049746      0x2a5 /opt/microchip/xc32/v4.60/bin/bin/../../lib/gcc/pic32mx/8.3.1/../../../../pic32mx/lib/libc-size-musl.a(strspn.o)
 .debug_str     0x00000000000499eb      0x36e /opt/microchip/xc32/v4.60/bin/bin/../../lib/gcc/pic32mx/8.3.1/../../../../pic32mx/lib/liblmalloc-musl.a(lite_free.o)
 .debug_str     0x0000000000049d59      0x366 /opt/microchip/xc32/v4.60/bin/bin/../../lib/gcc/pic32mx/8.3.1/../../../../pic32mx/lib/liblmalloc-musl.a(lite_malloc.o)
 .debug_str     0x000000000004a0bf      0x2c8 /opt/microchip/xc32/v4.60/bin/bin/../../lib/gcc/pic32mx/8.3.1/../../../../pic32mx/lib/libc-musl.a(isalnum.o)
 .debug_str     0x000000000004a387      0x2cb /opt/microchip/xc32/v4.60/bin/bin/../../lib/gcc/pic32mx/8.3.1/../../../../pic32mx/lib/libc-musl.a(isxdigit.o)
 .debug_str     0x000000000004a652      0x2c8 /opt/microchip/xc32/v4.60/bin/bin/../../lib/gcc/pic32mx/8.3.1/../../../../pic32mx/lib/libc-musl.a(tolower.o)
 .debug_str     0x000000000004a91a      0x2c8 /opt/microchip/xc32/v4.60/bin/bin/../../lib/gcc/pic32mx/8.3.1/../../../../pic32mx/lib/libc-musl.a(toupper.o)
 .debug_str     0x000000000004abe2      0x312 /opt/microchip/xc32/v4.60/bin/bin/../../lib/gcc/pic32mx/8.3.1/../../../../pic32mx/lib/libc-musl.a(expand_heap.o)
 .debug_str     0x000000000004aef4      0x2f1 /opt/microchip/xc32/v4.60/bin/bin/../../lib/gcc/pic32mx/8.3.1/../../../../pic32mx/lib/libc-musl.a(rand.o)
 .debug_str     0x000000000004b1e5      0x3eb /opt/microchip/xc32/v4.60/bin/bin/../../lib/gcc/pic32mx/8.3.1/../../../../pic32mx/lib/libc-musl.a(vsnprintf.o)
 .debug_str     0x000000000004b5d0      0x3e3 /opt/microchip/xc32/v4.60/bin/bin/../../lib/gcc/pic32mx/8.3.1/../../../../pic32mx/lib/libc-musl.a(stdin.o)
 .debug_str     0x000000000004b9b3      0x407 /opt/microchip/xc32/v4.60/bin/bin/../../lib/gcc/pic32mx/8.3.1/../../../../pic32mx/lib/libc-musl.a(stdout.o)
 .debug_str     0x000000000004bdba      0x29c /opt/microchip/xc32/v4.60/bin/bin/../../lib/gcc/pic32mx/8.3.1/../../../../pic32mx/lib/libc-musl.a(setbuf.o)
 .debug_str     0x000000000004c056      0x2ab /opt/microchip/xc32/v4.60/bin/bin/../../lib/gcc/pic32mx/8.3.1/../../../../pic32mx/lib/libc-musl.a(sprintf.o)
 .debug_str     0x000000000004c301      0x2ae /opt/microchip/xc32/v4.60/bin/bin/../../lib/gcc/pic32mx/8.3.1/../../../../pic32mx/lib/libc-musl.a(vsprintf.o)
 .debug_str     0x000000000004c5af      0x40f /opt/microchip/xc32/v4.60/bin/bin/../../lib/gcc/pic32mx/8.3.1/../../../../pic32mx/lib/libc-musl.a(strtol.o)
 .debug_str     0x000000000004c9be      0x369 /opt/microchip/xc32/v4.60/bin/bin/../../lib/gcc/pic32mx/8.3.1/../../../../pic32mx/lib/libc-musl.a(qsort.o)
 .debug_str     0x000000000004cd27      0x3d1 /opt/microchip/xc32/v4.60/bin/bin/../../lib/gcc/pic32mx/8.3.1/../../../../pic32mx/lib/libc-musl.a(intscan.o)
 .debug_str     0x000000000004d0f8      0x3ae /opt/microchip/xc32/v4.60/bin/bin/../../lib/gcc/pic32mx/8.3.1/../../../../pic32mx/lib/libc-musl.a(shgetc.o)
 .debug_str     0x000000000004d4a6      0x3a4 /opt/microchip/xc32/v4.60/bin/bin/../../lib/gcc/pic32mx/8.3.1/../../../../pic32mx/lib/libc-musl.a(__uflow.o)
 .debug_str     0x000000000004d84a      0x341 /opt/microchip/xc32/v4.60/bin/bin/../../lib/gcc/pic32mx/8.3.1/../../../../pic32mx/lib/libc-musl.a(__io_init_needed.o)
 .debug_str     0x000000000004db8b      0x350 /opt/microchip/xc32/v4.60/bin/bin/../../lib/gcc/pic32mx/8.3.1/../../../../pic32mx/lib/libc-musl.a(__io_rw_needed.o)
 .debug_str     0x000000000004dedb      0x347 /opt/microchip/xc32/v4.60/bin/bin/../../lib/gcc/pic32mx/8.3.1/../../../../pic32mx/lib/libc-musl.a(__out.o)
 .debug_str     0x000000000004e222      0x3ca /opt/microchip/xc32/v4.60/bin/bin/../../lib/gcc/pic32mx/8.3.1/../../../../pic32mx/lib/libc-musl.a(__stdio_close.o)
 .debug_str     0x000000000004e5ec      0x3cf /opt/microchip/xc32/v4.60/bin/bin/../../lib/gcc/pic32mx/8.3.1/../../../../pic32mx/lib/libc-musl.a(__stdio_read.o)
 .debug_str     0x000000000004e9bb      0x3aa /opt/microchip/xc32/v4.60/bin/bin/../../lib/gcc/pic32mx/8.3.1/../../../../pic32mx/lib/libc-musl.a(__towrite_rw.o)
 .debug_str     0x000000000004ed65      0x37f /opt/microchip/xc32/v4.60/bin/bin/../../lib/gcc/pic32mx/8.3.1/../../../../pic32mx/lib/libc-musl.a(setvbuf.o)
 .debug_str     0x000000000004f0e4      0x3ef /opt/microchip/xc32/v4.60/bin/bin/../../lib/gcc/pic32mx/8.3.1/../../../../pic32mx/lib/libc-musl.a(vfprintf.o)
 .debug_str     0x000000000004f4d3      0x2cb /opt/microchip/xc32/v4.60/bin/bin/../../lib/gcc/pic32mx/8.3.1/../../../../pic32mx/lib/libc-musl.a(readv.o)
 .debug_str     0x000000000004f79e      0x3cb /opt/microchip/xc32/v4.60/bin/bin/../../lib/gcc/pic32mx/8.3.1/../../../../pic32mx/lib/libc-musl.a(__toread.o)
 .debug_str     0x000000000004fb69      0x3c2 /opt/microchip/xc32/v4.60/bin/bin/../../lib/gcc/pic32mx/8.3.1/../../../../pic32mx/lib/libc-musl.a(__fopen_rw.o)
 .debug_str     0x000000000004ff2b      0x3ac /opt/microchip/xc32/v4.60/bin/bin/../../lib/gcc/pic32mx/8.3.1/../../../../pic32mx/lib/libc-musl.a(__ftello_rw.o)
 .debug_str     0x00000000000502d7      0x307 /opt/microchip/xc32/v4.60/bin/bin/../../lib/gcc/pic32mx/8.3.1/../../../../pic32mx/lib/libc-musl.a(__init_stdio.o)
 .debug_str     0x00000000000505de      0x37c /opt/microchip/xc32/v4.60/bin/bin/../../lib/gcc/pic32mx/8.3.1/../../../../pic32mx/lib/libc-musl.a(__io_buf_needed.o)
 .debug_str     0x000000000005095a      0x314 /opt/microchip/xc32/v4.60/bin/bin/../../lib/gcc/pic32mx/8.3.1/../../../../pic32mx/lib/libc-musl.a(__io_file_needed.o)
 .debug_str     0x0000000000050c6e      0x3a3 /opt/microchip/xc32/v4.60/bin/bin/../../lib/gcc/pic32mx/8.3.1/../../../../pic32mx/lib/libc-musl.a(__io_fmt_needed.o)
 .debug_str     0x0000000000051011      0x370 /opt/microchip/xc32/v4.60/bin/bin/../../lib/gcc/pic32mx/8.3.1/../../../../pic32mx/lib/libc-musl.a(__io_std_needed.o)
 .debug_str     0x0000000000051381      0x330 /opt/microchip/xc32/v4.60/bin/bin/../../lib/gcc/pic32mx/8.3.1/../../../../pic32mx/lib/libc-musl.a(__pop_float.o)
 .debug_str     0x00000000000516b1      0x33b /opt/microchip/xc32/v4.60/bin/bin/../../lib/gcc/pic32mx/8.3.1/../../../../pic32mx/lib/libc-musl.a(__pop_int.o)
 .debug_str     0x00000000000519ec      0x33d /opt/microchip/xc32/v4.60/bin/bin/../../lib/gcc/pic32mx/8.3.1/../../../../pic32mx/lib/libc-musl.a(__pop_ptr.o)
 .debug_str     0x0000000000051d29      0x451 /opt/microchip/xc32/v4.60/bin/bin/../../lib/gcc/pic32mx/8.3.1/../../../../pic32mx/lib/libc-musl.a(__printf_core.o)
 .debug_str     0x000000000005217a      0x365 /opt/microchip/xc32/v4.60/bin/bin/../../lib/gcc/pic32mx/8.3.1/../../../../pic32mx/lib/libc-musl.a(__putc.o)
 .debug_str     0x00000000000524df      0x3da /opt/microchip/xc32/v4.60/bin/bin/../../lib/gcc/pic32mx/8.3.1/../../../../pic32mx/lib/libc-musl.a(__stderr.o)
 .debug_str     0x00000000000528b9      0x399 /opt/microchip/xc32/v4.60/bin/bin/../../lib/gcc/pic32mx/8.3.1/../../../../pic32mx/lib/libc-musl.a(__stdio_exit.o)
 .debug_str     0x0000000000052c52      0x3b3 /opt/microchip/xc32/v4.60/bin/bin/../../lib/gcc/pic32mx/8.3.1/../../../../pic32mx/lib/libc-musl.a(__stdio_write.o)
 .debug_str     0x0000000000053005      0x3da /opt/microchip/xc32/v4.60/bin/bin/../../lib/gcc/pic32mx/8.3.1/../../../../pic32mx/lib/libc-musl.a(__stdout.o)
 .debug_str     0x00000000000533df      0x356 /opt/microchip/xc32/v4.60/bin/bin/../../lib/gcc/pic32mx/8.3.1/../../../../pic32mx/lib/libc-musl.a(__towrite.o)
 .debug_str     0x0000000000053735      0x357 /opt/microchip/xc32/v4.60/bin/bin/../../lib/gcc/pic32mx/8.3.1/../../../../pic32mx/lib/libc-musl.a(putc.o)
 .debug_str     0x0000000000053a8c      0x29b /opt/microchip/xc32/v4.60/bin/bin/../../lib/gcc/pic32mx/8.3.1/../../../../pic32mx/lib/libc-musl.a(atoi.o)
 .debug_str     0x0000000000053d27      0x2ce /opt/microchip/xc32/v4.60/bin/bin/../../lib/gcc/pic32mx/8.3.1/../../../../pic32mx/lib/libc-musl.a(writev.o)
 .debug_str     0x0000000000053ff5      0x3ab /opt/microchip/xc32/v4.60/bin/bin/../../lib/gcc/pic32mx/8.3.1/../../../../pic32mx/lib/libc-musl.a(__overflow.o)
 .debug_str     0x00000000000543a0      0x336 /opt/microchip/xc32/v4.60/bin/bin/../../lib/gcc/pic32mx/8.3.1/../../../../pic32mx/lib/libc-musl.a(__fclose.o)
 .debug_str     0x00000000000546d6      0x3a0 /opt/microchip/xc32/v4.60/bin/bin/../../lib/gcc/pic32mx/8.3.1/../../../../pic32mx/lib/libc-musl.a(__fmt_a.o)
 .debug_str     0x0000000000054a76      0x362 /opt/microchip/xc32/v4.60/bin/bin/../../lib/gcc/pic32mx/8.3.1/../../../../pic32mx/lib/libc-musl.a(__fmt_d.o)
 .debug_str     0x0000000000054dd8      0x3c1 /opt/microchip/xc32/v4.60/bin/bin/../../lib/gcc/pic32mx/8.3.1/../../../../pic32mx/lib/libc-musl.a(__fmt_fp.o)
 .debug_str     0x0000000000055199      0x362 /opt/microchip/xc32/v4.60/bin/bin/../../lib/gcc/pic32mx/8.3.1/../../../../pic32mx/lib/libc-musl.a(__fmt_o.o)
 .debug_str     0x00000000000554fb      0x34e /opt/microchip/xc32/v4.60/bin/bin/../../lib/gcc/pic32mx/8.3.1/../../../../pic32mx/lib/libc-musl.a(__fmt_s.o)
 .debug_str     0x0000000000055849      0x362 /opt/microchip/xc32/v4.60/bin/bin/../../lib/gcc/pic32mx/8.3.1/../../../../pic32mx/lib/libc-musl.a(__fmt_u.o)
 .debug_str     0x0000000000055bab      0x362 /opt/microchip/xc32/v4.60/bin/bin/../../lib/gcc/pic32mx/8.3.1/../../../../pic32mx/lib/libc-musl.a(__fmt_x.o)
 .debug_str     0x0000000000055f0d      0x373 /opt/microchip/xc32/v4.60/bin/bin/../../lib/gcc/pic32mx/8.3.1/../../../../pic32mx/lib/libc-musl.a(__fopen.o)
 .debug_str     0x0000000000056280      0x353 /opt/microchip/xc32/v4.60/bin/bin/../../lib/gcc/pic32mx/8.3.1/../../../../pic32mx/lib/libc-musl.a(__fseeko.o)
 .debug_str     0x00000000000565d3      0x358 /opt/microchip/xc32/v4.60/bin/bin/../../lib/gcc/pic32mx/8.3.1/../../../../pic32mx/lib/libc-musl.a(__ftello.o)
 .debug_str     0x000000000005692b      0x36f /opt/microchip/xc32/v4.60/bin/bin/../../lib/gcc/pic32mx/8.3.1/../../../../pic32mx/lib/libc-musl.a(__fwrite.o)
 .debug_str     0x0000000000056c9a      0x31e /opt/microchip/xc32/v4.60/bin/bin/../../lib/gcc/pic32mx/8.3.1/../../../../pic32mx/lib/libc-musl.a(__cvt_u.o)
 .debug_str     0x0000000000056fb8      0x333 /opt/microchip/xc32/v4.60/bin/bin/../../lib/gcc/pic32mx/8.3.1/../../../../pic32mx/lib/libm-musl.a(fma.o)
 .debug_str     0x00000000000572eb      0x2eb /opt/microchip/xc32/v4.60/bin/bin/../../lib/gcc/pic32mx/8.3.1/../../../../pic32mx/lib/libm-musl.a(scalbn.o)
 .debug_str     0x00000000000575d6      0x361 /opt/microchip/xc32/v4.60/bin/bin/../../lib/gcc/pic32mx/8.3.1/../../../../pic32mx/lib/libpic32.a(sbrk.o)
 .debug_str     0x0000000000057937      0x322 /opt/microchip/xc32/v4.60/bin/bin/../../lib/gcc/pic32mx/8.3.1/../../../../pic32mx/lib/libpic32.a(lseek.o)
 .debug_str     0x0000000000057c59      0x322 /opt/microchip/xc32/v4.60/bin/bin/../../lib/gcc/pic32mx/8.3.1/../../../../pic32mx/lib/libpic32.a(close.o)
 .debug_str     0x0000000000057f7b      0x304 /opt/microchip/xc32/v4.60/bin/bin/../../lib/gcc/pic32mx/8.3.1/../../../../pic32mx/lib/libe.a(_floatdidf.o)
 .debug_str     0x000000000005827f      0x338 /opt/microchip/xc32/v4.60/bin/bin/../../lib/gcc/pic32mx/8.3.1/libgcc.a(_lshrdi3.o)
 .debug_str     0x00000000000585b7      0x338 /opt/microchip/xc32/v4.60/bin/bin/../../lib/gcc/pic32mx/8.3.1/libgcc.a(_ashldi3.o)
 .debug_str     0x00000000000588ef      0x375 /opt/microchip/xc32/v4.60/bin/bin/../../lib/gcc/pic32mx/8.3.1/libgcc.a(_umoddi3.o)

.debug_loc      0x0000000000000000    0x3bf9e
 *.elf(.debug_loc)
 *(.debug_loc)
 .debug_loc     0x0000000000000000      0x19a build/default/production/_ext/732082881/drv_eth_pic32_lib.o
 .debug_loc     0x000000000000019a     0x2ec5 build/default/production/_ext/732082881/drv_ethmac.o
 .debug_loc     0x000000000000305f     0x29df build/default/production/_ext/732082881/drv_ethmac_lib.o
 .debug_loc     0x0000000000005a3e     0x4620 build/default/production/_ext/444070925/drv_ethphy.o
 .debug_loc     0x000000000000a05e      0x1a4 build/default/production/_ext/444070925/drv_extphy_lan8720.o
 .debug_loc     0x000000000000a202      0x5b5 build/default/production/_ext/438849557/drv_miim_pic32m.o
 .debug_loc     0x000000000000a7b7     0x29a0 build/default/production/_ext/438849557/drv_miim.o
 .debug_loc     0x000000000000d157      0x426 build/default/production/_ext/1033058136/helpers.o
 .debug_loc     0x000000000000d57d     0x3744 build/default/production/_ext/1033058136/dhcp.o
 .debug_loc     0x0000000000010cc1     0x2a8f build/default/production/_ext/1033058136/ipv4.o
 .debug_loc     0x0000000000013750     0x1842 build/default/production/_ext/1033058136/tcpip_commands.o
 .debug_loc     0x0000000000014f92      0x4e1 build/default/production/_ext/1033058136/tcpip_notify.o
 .debug_loc     0x0000000000015473     0x33b7 build/default/production/_ext/1033058136/tcpip_helpers.o
 .debug_loc     0x000000000001882a      0xaf2 build/default/production/_ext/1033058136/tcpip_packet.o
 .debug_loc     0x000000000001931c      0x96b build/default/production/_ext/1033058136/oahash.o
 .debug_loc     0x0000000000019c87     0x407d build/default/production/_ext/1033058136/udp.o
 .debug_loc     0x000000000001dd04     0x34bb build/default/production/_ext/1033058136/arp.o
 .debug_loc     0x00000000000211bf      0x2e2 build/default/production/_ext/1033058136/icmp.o
 .debug_loc     0x00000000000214a1      0xb1c build/default/production/_ext/1033058136/tcpip_heap_internal.o
 .debug_loc     0x0000000000021fbd      0x15f build/default/production/_ext/1033058136/hash_fnv.o
 .debug_loc     0x000000000002211c      0x1d3 build/default/production/_ext/1033058136/tcpip_heap_alloc.o
 .debug_loc     0x00000000000222ef     0x6465 build/default/production/_ext/1033058136/tcpip_manager.o
 .debug_loc     0x0000000000028754      0x573 build/default/production/_ext/1529399856/osal_freertos.o
 .debug_loc     0x0000000000028cc7       0xe6 build/default/production/_ext/1249264884/plib_coretimer.o
 .debug_loc     0x0000000000028dad       0xef build/default/production/_ext/1865200349/plib_evic.o
 .debug_loc     0x0000000000028e9c      0x172 build/default/production/_ext/1865254177/plib_gpio.o
 .debug_loc     0x000000000002900e      0xb31 build/default/production/_ext/1865657120/plib_uart2.o
 .debug_loc     0x0000000000029b3f      0x452 build/default/production/_ext/1865657120/plib_uart1.o
 .debug_loc     0x0000000000029f91       0x86 build/default/production/_ext/163028504/xc32_monitor.o
 .debug_loc     0x000000000002a017     0x1724 build/default/production/_ext/1376093119/sys_command.o
 .debug_loc     0x000000000002b73b      0x509 build/default/production/_ext/1832805299/sys_console_uart.o
 .debug_loc     0x000000000002bc44      0x621 build/default/production/_ext/1832805299/sys_console.o
 .debug_loc     0x000000000002c265       0x46 build/default/production/_ext/944882569/sys_debug.o
 .debug_loc     0x000000000002c2ab      0x102 build/default/production/_ext/1881668453/sys_int.o
 .debug_loc     0x000000000002c3ad     0x1859 build/default/production/_ext/101884895/sys_time.o
 .debug_loc     0x000000000002dc06       0xb2 build/default/production/_ext/753841488/sys_time_h2_adapter.o
 .debug_loc     0x000000000002dcb8       0x25 build/default/production/_ext/1171490990/initialization.o
 .debug_loc     0x000000000002dcdd      0x10d build/default/production/_ext/1171490990/freertos_hooks.o
 .debug_loc     0x000000000002ddea       0x94 build/default/production/_ext/1171490990/tasks.o
 .debug_loc     0x000000000002de7e      0x56c build/default/production/_ext/1665200909/heap_4.o
 .debug_loc     0x000000000002e3ea      0x13e build/default/production/_ext/951553248/port.o
 .debug_loc     0x000000000002e528     0x223c build/default/production/_ext/404212886/FreeRTOS_tasks.o
 .debug_loc     0x0000000000030764      0xaf7 build/default/production/_ext/404212886/event_groups.o
 .debug_loc     0x000000000003125b       0x61 build/default/production/_ext/404212886/list.o
 .debug_loc     0x00000000000312bc     0x1674 build/default/production/_ext/404212886/queue.o
 .debug_loc     0x0000000000032930     0x1508 build/default/production/_ext/404212886/stream_buffer.o
 .debug_loc     0x0000000000033e38      0x3d1 build/default/production/_ext/1360937237/ethernet.o
 .debug_loc     0x0000000000034209      0x9f5 /opt/microchip/xc32/v4.60/bin/bin/../../lib/gcc/pic32mx/8.3.1/libgcc.a(_udivdi3.o)
 .debug_loc     0x0000000000034bfe       0xf4 /opt/microchip/xc32/v4.60/bin/bin/../../lib/gcc/pic32mx/8.3.1/../../../../pic32mx/lib/libc-size-musl.a(memcmp.o)
 .debug_loc     0x0000000000034cf2       0xd6 /opt/microchip/xc32/v4.60/bin/bin/../../lib/gcc/pic32mx/8.3.1/../../../../pic32mx/lib/libc-size-musl.a(memcpy.o)
 .debug_loc     0x0000000000034dc8       0xb6 /opt/microchip/xc32/v4.60/bin/bin/../../lib/gcc/pic32mx/8.3.1/../../../../pic32mx/lib/libc-size-musl.a(memset.o)
 .debug_loc     0x0000000000034e7e       0x44 /opt/microchip/xc32/v4.60/bin/bin/../../lib/gcc/pic32mx/8.3.1/../../../../pic32mx/lib/libc-size-musl.a(strlen.o)
 .debug_loc     0x0000000000034ec2       0x6c /opt/microchip/xc32/v4.60/bin/bin/../../lib/gcc/pic32mx/8.3.1/../../../../pic32mx/lib/libc-size-musl.a(strchr.o)
 .debug_loc     0x0000000000034f2e       0xa8 /opt/microchip/xc32/v4.60/bin/bin/../../lib/gcc/pic32mx/8.3.1/../../../../pic32mx/lib/libc-size-musl.a(strchrnul.o)
 .debug_loc     0x0000000000034fd6       0x44 /opt/microchip/xc32/v4.60/bin/bin/../../lib/gcc/pic32mx/8.3.1/../../../../pic32mx/lib/libc-size-musl.a(strcmp.o)
 .debug_loc     0x000000000003501a       0x54 /opt/microchip/xc32/v4.60/bin/bin/../../lib/gcc/pic32mx/8.3.1/../../../../pic32mx/lib/libc-size-musl.a(strcpy.o)
 .debug_loc     0x000000000003506e       0xec /opt/microchip/xc32/v4.60/bin/bin/../../lib/gcc/pic32mx/8.3.1/../../../../pic32mx/lib/libc-size-musl.a(strncmp.o)
 .debug_loc     0x000000000003515a       0x79 /opt/microchip/xc32/v4.60/bin/bin/../../lib/gcc/pic32mx/8.3.1/../../../../pic32mx/lib/libc-size-musl.a(strncpy.o)
 .debug_loc     0x00000000000351d3       0x63 /opt/microchip/xc32/v4.60/bin/bin/../../lib/gcc/pic32mx/8.3.1/../../../../pic32mx/lib/libc-size-musl.a(strrchr.o)
 .debug_loc     0x0000000000035236       0x88 /opt/microchip/xc32/v4.60/bin/bin/../../lib/gcc/pic32mx/8.3.1/../../../../pic32mx/lib/libc-size-musl.a(strtok.o)
 .debug_loc     0x00000000000352be       0x71 /opt/microchip/xc32/v4.60/bin/bin/../../lib/gcc/pic32mx/8.3.1/../../../../pic32mx/lib/libc-size-musl.a(memrchr.o)
 .debug_loc     0x000000000003532f       0x5e /opt/microchip/xc32/v4.60/bin/bin/../../lib/gcc/pic32mx/8.3.1/../../../../pic32mx/lib/libc-size-musl.a(stpcpy.o)
 .debug_loc     0x000000000003538d      0x141 /opt/microchip/xc32/v4.60/bin/bin/../../lib/gcc/pic32mx/8.3.1/../../../../pic32mx/lib/libc-size-musl.a(stpncpy.o)
 .debug_loc     0x00000000000354ce       0xed /opt/microchip/xc32/v4.60/bin/bin/../../lib/gcc/pic32mx/8.3.1/../../../../pic32mx/lib/libc-size-musl.a(strcspn.o)
 .debug_loc     0x00000000000355bb       0xd3 /opt/microchip/xc32/v4.60/bin/bin/../../lib/gcc/pic32mx/8.3.1/../../../../pic32mx/lib/libc-size-musl.a(strspn.o)
 .debug_loc     0x000000000003568e      0x1d2 /opt/microchip/xc32/v4.60/bin/bin/../../lib/gcc/pic32mx/8.3.1/../../../../pic32mx/lib/liblmalloc-musl.a(lite_free.o)
 .debug_loc     0x0000000000035860       0xc5 /opt/microchip/xc32/v4.60/bin/bin/../../lib/gcc/pic32mx/8.3.1/../../../../pic32mx/lib/liblmalloc-musl.a(lite_malloc.o)
 .debug_loc     0x0000000000035925       0x59 /opt/microchip/xc32/v4.60/bin/bin/../../lib/gcc/pic32mx/8.3.1/../../../../pic32mx/lib/libc-musl.a(isalnum.o)
 .debug_loc     0x000000000003597e       0x4a /opt/microchip/xc32/v4.60/bin/bin/../../lib/gcc/pic32mx/8.3.1/../../../../pic32mx/lib/libc-musl.a(isxdigit.o)
 .debug_loc     0x00000000000359c8       0x4f /opt/microchip/xc32/v4.60/bin/bin/../../lib/gcc/pic32mx/8.3.1/../../../../pic32mx/lib/libc-musl.a(expand_heap.o)
 .debug_loc     0x0000000000035a17       0x24 /opt/microchip/xc32/v4.60/bin/bin/../../lib/gcc/pic32mx/8.3.1/../../../../pic32mx/lib/libc-musl.a(rand.o)
 .debug_loc     0x0000000000035a3b       0xef /opt/microchip/xc32/v4.60/bin/bin/../../lib/gcc/pic32mx/8.3.1/../../../../pic32mx/lib/libc-musl.a(vsnprintf.o)
 .debug_loc     0x0000000000035b2a       0x4a /opt/microchip/xc32/v4.60/bin/bin/../../lib/gcc/pic32mx/8.3.1/../../../../pic32mx/lib/libc-musl.a(setbuf.o)
 .debug_loc     0x0000000000035b74       0x5f /opt/microchip/xc32/v4.60/bin/bin/../../lib/gcc/pic32mx/8.3.1/../../../../pic32mx/lib/libc-musl.a(sprintf.o)
 .debug_loc     0x0000000000035bd3       0x89 /opt/microchip/xc32/v4.60/bin/bin/../../lib/gcc/pic32mx/8.3.1/../../../../pic32mx/lib/libc-musl.a(vsprintf.o)
 .debug_loc     0x0000000000035c5c      0x39f /opt/microchip/xc32/v4.60/bin/bin/../../lib/gcc/pic32mx/8.3.1/../../../../pic32mx/lib/libc-musl.a(strtol.o)
 .debug_loc     0x0000000000035ffb      0x925 /opt/microchip/xc32/v4.60/bin/bin/../../lib/gcc/pic32mx/8.3.1/../../../../pic32mx/lib/libc-musl.a(qsort.o)
 .debug_loc     0x0000000000036920      0x5f7 /opt/microchip/xc32/v4.60/bin/bin/../../lib/gcc/pic32mx/8.3.1/../../../../pic32mx/lib/libc-musl.a(intscan.o)
 .debug_loc     0x0000000000036f17       0x54 /opt/microchip/xc32/v4.60/bin/bin/../../lib/gcc/pic32mx/8.3.1/../../../../pic32mx/lib/libc-musl.a(shgetc.o)
 .debug_loc     0x0000000000036f6b       0x3f /opt/microchip/xc32/v4.60/bin/bin/../../lib/gcc/pic32mx/8.3.1/../../../../pic32mx/lib/libc-musl.a(__uflow.o)
 .debug_loc     0x0000000000036faa      0x1ab /opt/microchip/xc32/v4.60/bin/bin/../../lib/gcc/pic32mx/8.3.1/../../../../pic32mx/lib/libc-musl.a(__out.o)
 .debug_loc     0x0000000000037155      0x130 /opt/microchip/xc32/v4.60/bin/bin/../../lib/gcc/pic32mx/8.3.1/../../../../pic32mx/lib/libc-musl.a(__stdio_close.o)
 .debug_loc     0x0000000000037285       0xe7 /opt/microchip/xc32/v4.60/bin/bin/../../lib/gcc/pic32mx/8.3.1/../../../../pic32mx/lib/libc-musl.a(__stdio_read.o)
 .debug_loc     0x000000000003736c      0x15f /opt/microchip/xc32/v4.60/bin/bin/../../lib/gcc/pic32mx/8.3.1/../../../../pic32mx/lib/libc-musl.a(setvbuf.o)
 .debug_loc     0x00000000000374cb       0x9f /opt/microchip/xc32/v4.60/bin/bin/../../lib/gcc/pic32mx/8.3.1/../../../../pic32mx/lib/libc-musl.a(vfprintf.o)
 .debug_loc     0x000000000003756a      0x12c /opt/microchip/xc32/v4.60/bin/bin/../../lib/gcc/pic32mx/8.3.1/../../../../pic32mx/lib/libc-musl.a(readv.o)
 .debug_loc     0x0000000000037696       0x3f /opt/microchip/xc32/v4.60/bin/bin/../../lib/gcc/pic32mx/8.3.1/../../../../pic32mx/lib/libc-musl.a(__toread.o)
 .debug_loc     0x00000000000376d5       0x2f /opt/microchip/xc32/v4.60/bin/bin/../../lib/gcc/pic32mx/8.3.1/../../../../pic32mx/lib/libc-musl.a(__fopen_rw.o)
 .debug_loc     0x0000000000037704       0x25 /opt/microchip/xc32/v4.60/bin/bin/../../lib/gcc/pic32mx/8.3.1/../../../../pic32mx/lib/libc-musl.a(__ftello_rw.o)
 .debug_loc     0x0000000000037729       0x40 /opt/microchip/xc32/v4.60/bin/bin/../../lib/gcc/pic32mx/8.3.1/../../../../pic32mx/lib/libc-musl.a(__pop_ptr.o)
 .debug_loc     0x0000000000037769      0x56c /opt/microchip/xc32/v4.60/bin/bin/../../lib/gcc/pic32mx/8.3.1/../../../../pic32mx/lib/libc-musl.a(__printf_core.o)
 .debug_loc     0x0000000000037cd5       0x9e /opt/microchip/xc32/v4.60/bin/bin/../../lib/gcc/pic32mx/8.3.1/../../../../pic32mx/lib/libc-musl.a(__putc.o)
 .debug_loc     0x0000000000037d73      0x366 /opt/microchip/xc32/v4.60/bin/bin/../../lib/gcc/pic32mx/8.3.1/../../../../pic32mx/lib/libc-musl.a(__stdio_write.o)
 .debug_loc     0x00000000000380d9       0x47 /opt/microchip/xc32/v4.60/bin/bin/../../lib/gcc/pic32mx/8.3.1/../../../../pic32mx/lib/libc-musl.a(__towrite.o)
 .debug_loc     0x0000000000038120       0xdb /opt/microchip/xc32/v4.60/bin/bin/../../lib/gcc/pic32mx/8.3.1/../../../../pic32mx/lib/libc-musl.a(putc.o)
 .debug_loc     0x00000000000381fb       0xbe /opt/microchip/xc32/v4.60/bin/bin/../../lib/gcc/pic32mx/8.3.1/../../../../pic32mx/lib/libc-musl.a(atoi.o)
 .debug_loc     0x00000000000382b9      0x12c /opt/microchip/xc32/v4.60/bin/bin/../../lib/gcc/pic32mx/8.3.1/../../../../pic32mx/lib/libc-musl.a(writev.o)
 .debug_loc     0x00000000000383e5       0x9b /opt/microchip/xc32/v4.60/bin/bin/../../lib/gcc/pic32mx/8.3.1/../../../../pic32mx/lib/libc-musl.a(__overflow.o)
 .debug_loc     0x0000000000038480       0x64 /opt/microchip/xc32/v4.60/bin/bin/../../lib/gcc/pic32mx/8.3.1/../../../../pic32mx/lib/libc-musl.a(__fclose.o)
 .debug_loc     0x00000000000384e4      0xb74 /opt/microchip/xc32/v4.60/bin/bin/../../lib/gcc/pic32mx/8.3.1/../../../../pic32mx/lib/libc-musl.a(__fmt_a.o)
 .debug_loc     0x0000000000039058      0x241 /opt/microchip/xc32/v4.60/bin/bin/../../lib/gcc/pic32mx/8.3.1/../../../../pic32mx/lib/libc-musl.a(__fmt_d.o)
 .debug_loc     0x0000000000039299      0xc7e /opt/microchip/xc32/v4.60/bin/bin/../../lib/gcc/pic32mx/8.3.1/../../../../pic32mx/lib/libc-musl.a(__fmt_fp.o)
 .debug_loc     0x0000000000039f17       0xf2 /opt/microchip/xc32/v4.60/bin/bin/../../lib/gcc/pic32mx/8.3.1/../../../../pic32mx/lib/libc-musl.a(__fmt_o.o)
 .debug_loc     0x000000000003a009      0x11f /opt/microchip/xc32/v4.60/bin/bin/../../lib/gcc/pic32mx/8.3.1/../../../../pic32mx/lib/libc-musl.a(__fmt_s.o)
 .debug_loc     0x000000000003a128       0xf2 /opt/microchip/xc32/v4.60/bin/bin/../../lib/gcc/pic32mx/8.3.1/../../../../pic32mx/lib/libc-musl.a(__fmt_u.o)
 .debug_loc     0x000000000003a21a      0x317 /opt/microchip/xc32/v4.60/bin/bin/../../lib/gcc/pic32mx/8.3.1/../../../../pic32mx/lib/libc-musl.a(__fmt_x.o)
 .debug_loc     0x000000000003a531       0x2f /opt/microchip/xc32/v4.60/bin/bin/../../lib/gcc/pic32mx/8.3.1/../../../../pic32mx/lib/libc-musl.a(__fopen.o)
 .debug_loc     0x000000000003a560       0x6f /opt/microchip/xc32/v4.60/bin/bin/../../lib/gcc/pic32mx/8.3.1/../../../../pic32mx/lib/libc-musl.a(__fseeko.o)
 .debug_loc     0x000000000003a5cf       0x4a /opt/microchip/xc32/v4.60/bin/bin/../../lib/gcc/pic32mx/8.3.1/../../../../pic32mx/lib/libc-musl.a(__ftello.o)
 .debug_loc     0x000000000003a619       0xc6 /opt/microchip/xc32/v4.60/bin/bin/../../lib/gcc/pic32mx/8.3.1/../../../../pic32mx/lib/libc-musl.a(__fwrite.o)
 .debug_loc     0x000000000003a6df      0x1fe /opt/microchip/xc32/v4.60/bin/bin/../../lib/gcc/pic32mx/8.3.1/../../../../pic32mx/lib/libc-musl.a(__cvt_u.o)
 .debug_loc     0x000000000003a8dd      0x9f0 /opt/microchip/xc32/v4.60/bin/bin/../../lib/gcc/pic32mx/8.3.1/../../../../pic32mx/lib/libm-musl.a(fma.o)
 .debug_loc     0x000000000003b2cd      0x1bd /opt/microchip/xc32/v4.60/bin/bin/../../lib/gcc/pic32mx/8.3.1/../../../../pic32mx/lib/libm-musl.a(scalbn.o)
 .debug_loc     0x000000000003b48a       0x6c /opt/microchip/xc32/v4.60/bin/bin/../../lib/gcc/pic32mx/8.3.1/../../../../pic32mx/lib/libpic32.a(sbrk.o)
 .debug_loc     0x000000000003b4f6       0x99 /opt/microchip/xc32/v4.60/bin/bin/../../lib/gcc/pic32mx/8.3.1/libgcc.a(_lshrdi3.o)
 .debug_loc     0x000000000003b58f       0x75 /opt/microchip/xc32/v4.60/bin/bin/../../lib/gcc/pic32mx/8.3.1/libgcc.a(_ashldi3.o)
 .debug_loc     0x000000000003b604      0x99a /opt/microchip/xc32/v4.60/bin/bin/../../lib/gcc/pic32mx/8.3.1/libgcc.a(_umoddi3.o)

.debug_macinfo
 *.elf(.debug_macinfo)
 *(.debug_macinfo)

.debug_weaknames
 *.elf(.debug_weaknames)
 *(.debug_weaknames)

.debug_funcnames
 *.elf(.debug_funcnames)
 *(.debug_funcnames)

.debug_typenames
 *.elf(.debug_typenames)
 *(.debug_typenames)

.debug_varnames
 *.elf(.debug_varnames)
 *(.debug_varnames)

.debug_pubtypes
 *.elf(.debug_pubtypes)
 *(.debug_pubtypes)

.debug_ranges   0x0000000000000000     0x2fd0
 *.elf(.debug_ranges)
 *(.debug_ranges)
 .debug_ranges  0x0000000000000000      0x128 build/default/production/_ext/732082881/drv_ethmac.o
 .debug_ranges  0x0000000000000128      0x340 build/default/production/_ext/732082881/drv_ethmac_lib.o
 .debug_ranges  0x0000000000000468      0x1d8 build/default/production/_ext/444070925/drv_ethphy.o
 .debug_ranges  0x0000000000000640       0x30 build/default/production/_ext/438849557/drv_miim_pic32m.o
 .debug_ranges  0x0000000000000670      0x230 build/default/production/_ext/438849557/drv_miim.o
 .debug_ranges  0x00000000000008a0      0x2b0 build/default/production/_ext/1033058136/dhcp.o
 .debug_ranges  0x0000000000000b50      0x230 build/default/production/_ext/1033058136/ipv4.o
 .debug_ranges  0x0000000000000d80       0xc0 build/default/production/_ext/1033058136/tcpip_commands.o
 .debug_ranges  0x0000000000000e40       0x18 build/default/production/_ext/1033058136/tcpip_notify.o
 .debug_ranges  0x0000000000000e58      0x118 build/default/production/_ext/1033058136/tcpip_helpers.o
 .debug_ranges  0x0000000000000f70       0x48 build/default/production/_ext/1033058136/tcpip_packet.o
 .debug_ranges  0x0000000000000fb8       0xe8 build/default/production/_ext/1033058136/oahash.o
 .debug_ranges  0x00000000000010a0      0x350 build/default/production/_ext/1033058136/udp.o
 .debug_ranges  0x00000000000013f0      0x608 build/default/production/_ext/1033058136/arp.o
 .debug_ranges  0x00000000000019f8       0x18 build/default/production/_ext/1033058136/icmp.o
 .debug_ranges  0x0000000000001a10       0x10 build/default/production/_ext/1033058136/tcpip_heap_internal.o
 .debug_ranges  0x0000000000001a20      0x550 build/default/production/_ext/1033058136/tcpip_manager.o
 .debug_ranges  0x0000000000001f70      0x110 build/default/production/_ext/1865657120/plib_uart2.o
 .debug_ranges  0x0000000000002080      0x1f0 build/default/production/_ext/1376093119/sys_command.o
 .debug_ranges  0x0000000000002270       0x68 build/default/production/_ext/101884895/sys_time.o
 .debug_ranges  0x00000000000022d8       0x40 build/default/production/_ext/1171490990/interrupts_a.o
 .debug_ranges  0x0000000000002318       0xf0 build/default/production/_ext/404212886/FreeRTOS_tasks.o
 .debug_ranges  0x0000000000002408       0x18 build/default/production/_ext/404212886/event_groups.o
 .debug_ranges  0x0000000000002420      0x108 build/default/production/_ext/404212886/queue.o
 .debug_ranges  0x0000000000002528       0x28 build/default/production/_ext/404212886/stream_buffer.o
 .debug_ranges  0x0000000000002550       0x18 build/default/production/_ext/1360937237/app.o
 .debug_ranges  0x0000000000002568       0x18 build/default/production/_ext/1360937237/ethernet.o
 .debug_ranges  0x0000000000002580       0xd8 /opt/microchip/xc32/v4.60/bin/bin/../../lib/gcc/pic32mx/8.3.1/libgcc.a(_udivdi3.o)
 .debug_ranges  0x0000000000002658       0x10 /opt/microchip/xc32/v4.60/bin/bin/../../lib/gcc/pic32mx/8.3.1/../../../../pic32mx/lib/libpic32.a(default-on-reset.o)
 .debug_ranges  0x0000000000002668       0x10 /opt/microchip/xc32/v4.60/bin/bin/../../lib/gcc/pic32mx/8.3.1/../../../../pic32mx/lib/libpic32.a(default-on-bootstrap.o)
 .debug_ranges  0x0000000000002678       0x10 /opt/microchip/xc32/v4.60/bin/bin/../../lib/gcc/pic32mx/8.3.1/../../../../pic32mx/lib/libpic32.a(defaultinterrupt.o)
 .debug_ranges  0x0000000000002688       0x10 /opt/microchip/xc32/v4.60/bin/bin/../../lib/gcc/pic32mx/8.3.1/../../../../pic32mx/lib/libc-size-musl.a(memcmp.o)
 .debug_ranges  0x0000000000002698       0x10 /opt/microchip/xc32/v4.60/bin/bin/../../lib/gcc/pic32mx/8.3.1/../../../../pic32mx/lib/libc-size-musl.a(memcpy.o)
 .debug_ranges  0x00000000000026a8       0x10 /opt/microchip/xc32/v4.60/bin/bin/../../lib/gcc/pic32mx/8.3.1/../../../../pic32mx/lib/libc-size-musl.a(memset.o)
 .debug_ranges  0x00000000000026b8       0x10 /opt/microchip/xc32/v4.60/bin/bin/../../lib/gcc/pic32mx/8.3.1/../../../../pic32mx/lib/libc-size-musl.a(strlen.o)
 .debug_ranges  0x00000000000026c8       0x10 /opt/microchip/xc32/v4.60/bin/bin/../../lib/gcc/pic32mx/8.3.1/../../../../pic32mx/lib/libc-size-musl.a(strchr.o)
 .debug_ranges  0x00000000000026d8       0x10 /opt/microchip/xc32/v4.60/bin/bin/../../lib/gcc/pic32mx/8.3.1/../../../../pic32mx/lib/libc-size-musl.a(strchrnul.o)
 .debug_ranges  0x00000000000026e8       0x10 /opt/microchip/xc32/v4.60/bin/bin/../../lib/gcc/pic32mx/8.3.1/../../../../pic32mx/lib/libc-size-musl.a(strcmp.o)
 .debug_ranges  0x00000000000026f8       0x10 /opt/microchip/xc32/v4.60/bin/bin/../../lib/gcc/pic32mx/8.3.1/../../../../pic32mx/lib/libc-size-musl.a(strcpy.o)
 .debug_ranges  0x0000000000002708       0x10 /opt/microchip/xc32/v4.60/bin/bin/../../lib/gcc/pic32mx/8.3.1/../../../../pic32mx/lib/libc-size-musl.a(strncmp.o)
 .debug_ranges  0x0000000000002718       0x10 /opt/microchip/xc32/v4.60/bin/bin/../../lib/gcc/pic32mx/8.3.1/../../../../pic32mx/lib/libc-size-musl.a(strncpy.o)
 .debug_ranges  0x0000000000002728       0x10 /opt/microchip/xc32/v4.60/bin/bin/../../lib/gcc/pic32mx/8.3.1/../../../../pic32mx/lib/libc-size-musl.a(strrchr.o)
 .debug_ranges  0x0000000000002738       0x10 /opt/microchip/xc32/v4.60/bin/bin/../../lib/gcc/pic32mx/8.3.1/../../../../pic32mx/lib/libc-size-musl.a(strtok.o)
 .debug_ranges  0x0000000000002748       0x10 /opt/microchip/xc32/v4.60/bin/bin/../../lib/gcc/pic32mx/8.3.1/../../../../pic32mx/lib/libc-size-musl.a(memrchr.o)
 .debug_ranges  0x0000000000002758       0x10 /opt/microchip/xc32/v4.60/bin/bin/../../lib/gcc/pic32mx/8.3.1/../../../../pic32mx/lib/libc-size-musl.a(stpcpy.o)
 .debug_ranges  0x0000000000002768       0x10 /opt/microchip/xc32/v4.60/bin/bin/../../lib/gcc/pic32mx/8.3.1/../../../../pic32mx/lib/libc-size-musl.a(stpncpy.o)
 .debug_ranges  0x0000000000002778       0x10 /opt/microchip/xc32/v4.60/bin/bin/../../lib/gcc/pic32mx/8.3.1/../../../../pic32mx/lib/libc-size-musl.a(strcspn.o)
 .debug_ranges  0x0000000000002788       0x10 /opt/microchip/xc32/v4.60/bin/bin/../../lib/gcc/pic32mx/8.3.1/../../../../pic32mx/lib/libc-size-musl.a(strspn.o)
 .debug_ranges  0x0000000000002798       0x38 /opt/microchip/xc32/v4.60/bin/bin/../../lib/gcc/pic32mx/8.3.1/../../../../pic32mx/lib/liblmalloc-musl.a(lite_free.o)
 .debug_ranges  0x00000000000027d0       0x10 /opt/microchip/xc32/v4.60/bin/bin/../../lib/gcc/pic32mx/8.3.1/../../../../pic32mx/lib/liblmalloc-musl.a(lite_malloc.o)
 .debug_ranges  0x00000000000027e0       0x18 /opt/microchip/xc32/v4.60/bin/bin/../../lib/gcc/pic32mx/8.3.1/../../../../pic32mx/lib/libc-musl.a(isalnum.o)
 .debug_ranges  0x00000000000027f8       0x18 /opt/microchip/xc32/v4.60/bin/bin/../../lib/gcc/pic32mx/8.3.1/../../../../pic32mx/lib/libc-musl.a(isxdigit.o)
 .debug_ranges  0x0000000000002810       0x18 /opt/microchip/xc32/v4.60/bin/bin/../../lib/gcc/pic32mx/8.3.1/../../../../pic32mx/lib/libc-musl.a(tolower.o)
 .debug_ranges  0x0000000000002828       0x18 /opt/microchip/xc32/v4.60/bin/bin/../../lib/gcc/pic32mx/8.3.1/../../../../pic32mx/lib/libc-musl.a(toupper.o)
 .debug_ranges  0x0000000000002840       0x10 /opt/microchip/xc32/v4.60/bin/bin/../../lib/gcc/pic32mx/8.3.1/../../../../pic32mx/lib/libc-musl.a(expand_heap.o)
 .debug_ranges  0x0000000000002850       0x18 /opt/microchip/xc32/v4.60/bin/bin/../../lib/gcc/pic32mx/8.3.1/../../../../pic32mx/lib/libc-musl.a(rand.o)
 .debug_ranges  0x0000000000002868       0x10 /opt/microchip/xc32/v4.60/bin/bin/../../lib/gcc/pic32mx/8.3.1/../../../../pic32mx/lib/libc-musl.a(vsnprintf.o)
 .debug_ranges  0x0000000000002878       0x18 /opt/microchip/xc32/v4.60/bin/bin/../../lib/gcc/pic32mx/8.3.1/../../../../pic32mx/lib/libc-musl.a(stdin.o)
 .debug_ranges  0x0000000000002890       0x20 /opt/microchip/xc32/v4.60/bin/bin/../../lib/gcc/pic32mx/8.3.1/../../../../pic32mx/lib/libc-musl.a(stdout.o)
 .debug_ranges  0x00000000000028b0       0x10 /opt/microchip/xc32/v4.60/bin/bin/../../lib/gcc/pic32mx/8.3.1/../../../../pic32mx/lib/libc-musl.a(setbuf.o)
 .debug_ranges  0x00000000000028c0       0x10 /opt/microchip/xc32/v4.60/bin/bin/../../lib/gcc/pic32mx/8.3.1/../../../../pic32mx/lib/libc-musl.a(sprintf.o)
 .debug_ranges  0x00000000000028d0       0x10 /opt/microchip/xc32/v4.60/bin/bin/../../lib/gcc/pic32mx/8.3.1/../../../../pic32mx/lib/libc-musl.a(vsprintf.o)
 .debug_ranges  0x00000000000028e0       0x40 /opt/microchip/xc32/v4.60/bin/bin/../../lib/gcc/pic32mx/8.3.1/../../../../pic32mx/lib/libc-musl.a(strtol.o)
 .debug_ranges  0x0000000000002920       0x58 /opt/microchip/xc32/v4.60/bin/bin/../../lib/gcc/pic32mx/8.3.1/../../../../pic32mx/lib/libc-musl.a(qsort.o)
 .debug_ranges  0x0000000000002978       0x38 /opt/microchip/xc32/v4.60/bin/bin/../../lib/gcc/pic32mx/8.3.1/../../../../pic32mx/lib/libc-musl.a(intscan.o)
 .debug_ranges  0x00000000000029b0       0x18 /opt/microchip/xc32/v4.60/bin/bin/../../lib/gcc/pic32mx/8.3.1/../../../../pic32mx/lib/libc-musl.a(shgetc.o)
 .debug_ranges  0x00000000000029c8       0x10 /opt/microchip/xc32/v4.60/bin/bin/../../lib/gcc/pic32mx/8.3.1/../../../../pic32mx/lib/libc-musl.a(__uflow.o)
 .debug_ranges  0x00000000000029d8       0x18 /opt/microchip/xc32/v4.60/bin/bin/../../lib/gcc/pic32mx/8.3.1/../../../../pic32mx/lib/libc-musl.a(__io_init_needed.o)
 .debug_ranges  0x00000000000029f0       0x10 /opt/microchip/xc32/v4.60/bin/bin/../../lib/gcc/pic32mx/8.3.1/../../../../pic32mx/lib/libc-musl.a(__io_rw_needed.o)
 .debug_ranges  0x0000000000002a00       0x30 /opt/microchip/xc32/v4.60/bin/bin/../../lib/gcc/pic32mx/8.3.1/../../../../pic32mx/lib/libc-musl.a(__out.o)
 .debug_ranges  0x0000000000002a30       0x18 /opt/microchip/xc32/v4.60/bin/bin/../../lib/gcc/pic32mx/8.3.1/../../../../pic32mx/lib/libc-musl.a(__stdio_close.o)
 .debug_ranges  0x0000000000002a48       0x10 /opt/microchip/xc32/v4.60/bin/bin/../../lib/gcc/pic32mx/8.3.1/../../../../pic32mx/lib/libc-musl.a(__stdio_read.o)
 .debug_ranges  0x0000000000002a58       0x10 /opt/microchip/xc32/v4.60/bin/bin/../../lib/gcc/pic32mx/8.3.1/../../../../pic32mx/lib/libc-musl.a(__towrite_rw.o)
 .debug_ranges  0x0000000000002a68       0x18 /opt/microchip/xc32/v4.60/bin/bin/../../lib/gcc/pic32mx/8.3.1/../../../../pic32mx/lib/libc-musl.a(setvbuf.o)
 .debug_ranges  0x0000000000002a80       0x18 /opt/microchip/xc32/v4.60/bin/bin/../../lib/gcc/pic32mx/8.3.1/../../../../pic32mx/lib/libc-musl.a(vfprintf.o)
 .debug_ranges  0x0000000000002a98       0x10 /opt/microchip/xc32/v4.60/bin/bin/../../lib/gcc/pic32mx/8.3.1/../../../../pic32mx/lib/libc-musl.a(readv.o)
 .debug_ranges  0x0000000000002aa8       0x18 /opt/microchip/xc32/v4.60/bin/bin/../../lib/gcc/pic32mx/8.3.1/../../../../pic32mx/lib/libc-musl.a(__toread.o)
 .debug_ranges  0x0000000000002ac0       0x10 /opt/microchip/xc32/v4.60/bin/bin/../../lib/gcc/pic32mx/8.3.1/../../../../pic32mx/lib/libc-musl.a(__fopen_rw.o)
 .debug_ranges  0x0000000000002ad0       0x10 /opt/microchip/xc32/v4.60/bin/bin/../../lib/gcc/pic32mx/8.3.1/../../../../pic32mx/lib/libc-musl.a(__ftello_rw.o)
 .debug_ranges  0x0000000000002ae0       0x18 /opt/microchip/xc32/v4.60/bin/bin/../../lib/gcc/pic32mx/8.3.1/../../../../pic32mx/lib/libc-musl.a(__init_stdio.o)
 .debug_ranges  0x0000000000002af8       0x10 /opt/microchip/xc32/v4.60/bin/bin/../../lib/gcc/pic32mx/8.3.1/../../../../pic32mx/lib/libc-musl.a(__io_buf_needed.o)
 .debug_ranges  0x0000000000002b08       0x10 /opt/microchip/xc32/v4.60/bin/bin/../../lib/gcc/pic32mx/8.3.1/../../../../pic32mx/lib/libc-musl.a(__io_file_needed.o)
 .debug_ranges  0x0000000000002b18       0x10 /opt/microchip/xc32/v4.60/bin/bin/../../lib/gcc/pic32mx/8.3.1/../../../../pic32mx/lib/libc-musl.a(__io_fmt_needed.o)
 .debug_ranges  0x0000000000002b28       0x10 /opt/microchip/xc32/v4.60/bin/bin/../../lib/gcc/pic32mx/8.3.1/../../../../pic32mx/lib/libc-musl.a(__io_std_needed.o)
 .debug_ranges  0x0000000000002b38       0x10 /opt/microchip/xc32/v4.60/bin/bin/../../lib/gcc/pic32mx/8.3.1/../../../../pic32mx/lib/libc-musl.a(__pop_float.o)
 .debug_ranges  0x0000000000002b48       0x10 /opt/microchip/xc32/v4.60/bin/bin/../../lib/gcc/pic32mx/8.3.1/../../../../pic32mx/lib/libc-musl.a(__pop_int.o)
 .debug_ranges  0x0000000000002b58       0x10 /opt/microchip/xc32/v4.60/bin/bin/../../lib/gcc/pic32mx/8.3.1/../../../../pic32mx/lib/libc-musl.a(__pop_ptr.o)
 .debug_ranges  0x0000000000002b68       0xe8 /opt/microchip/xc32/v4.60/bin/bin/../../lib/gcc/pic32mx/8.3.1/../../../../pic32mx/lib/libc-musl.a(__printf_core.o)
 .debug_ranges  0x0000000000002c50       0x10 /opt/microchip/xc32/v4.60/bin/bin/../../lib/gcc/pic32mx/8.3.1/../../../../pic32mx/lib/libc-musl.a(__putc.o)
 .debug_ranges  0x0000000000002c60       0x20 /opt/microchip/xc32/v4.60/bin/bin/../../lib/gcc/pic32mx/8.3.1/../../../../pic32mx/lib/libc-musl.a(__stderr.o)
 .debug_ranges  0x0000000000002c80       0x20 /opt/microchip/xc32/v4.60/bin/bin/../../lib/gcc/pic32mx/8.3.1/../../../../pic32mx/lib/libc-musl.a(__stdio_exit.o)
 .debug_ranges  0x0000000000002ca0       0x18 /opt/microchip/xc32/v4.60/bin/bin/../../lib/gcc/pic32mx/8.3.1/../../../../pic32mx/lib/libc-musl.a(__stdio_write.o)
 .debug_ranges  0x0000000000002cb8       0x20 /opt/microchip/xc32/v4.60/bin/bin/../../lib/gcc/pic32mx/8.3.1/../../../../pic32mx/lib/libc-musl.a(__stdout.o)
 .debug_ranges  0x0000000000002cd8       0x18 /opt/microchip/xc32/v4.60/bin/bin/../../lib/gcc/pic32mx/8.3.1/../../../../pic32mx/lib/libc-musl.a(__towrite.o)
 .debug_ranges  0x0000000000002cf0       0x20 /opt/microchip/xc32/v4.60/bin/bin/../../lib/gcc/pic32mx/8.3.1/../../../../pic32mx/lib/libc-musl.a(putc.o)
 .debug_ranges  0x0000000000002d10       0x28 /opt/microchip/xc32/v4.60/bin/bin/../../lib/gcc/pic32mx/8.3.1/../../../../pic32mx/lib/libc-musl.a(atoi.o)
 .debug_ranges  0x0000000000002d38       0x10 /opt/microchip/xc32/v4.60/bin/bin/../../lib/gcc/pic32mx/8.3.1/../../../../pic32mx/lib/libc-musl.a(writev.o)
 .debug_ranges  0x0000000000002d48       0x10 /opt/microchip/xc32/v4.60/bin/bin/../../lib/gcc/pic32mx/8.3.1/../../../../pic32mx/lib/libc-musl.a(__overflow.o)
 .debug_ranges  0x0000000000002d58       0x10 /opt/microchip/xc32/v4.60/bin/bin/../../lib/gcc/pic32mx/8.3.1/../../../../pic32mx/lib/libc-musl.a(__fclose.o)
 .debug_ranges  0x0000000000002d68       0x10 /opt/microchip/xc32/v4.60/bin/bin/../../lib/gcc/pic32mx/8.3.1/../../../../pic32mx/lib/libc-musl.a(__fmt_a.o)
 .debug_ranges  0x0000000000002d78       0x10 /opt/microchip/xc32/v4.60/bin/bin/../../lib/gcc/pic32mx/8.3.1/../../../../pic32mx/lib/libc-musl.a(__fmt_d.o)
 .debug_ranges  0x0000000000002d88       0x10 /opt/microchip/xc32/v4.60/bin/bin/../../lib/gcc/pic32mx/8.3.1/../../../../pic32mx/lib/libc-musl.a(__fmt_fp.o)
 .debug_ranges  0x0000000000002d98       0x10 /opt/microchip/xc32/v4.60/bin/bin/../../lib/gcc/pic32mx/8.3.1/../../../../pic32mx/lib/libc-musl.a(__fmt_o.o)
 .debug_ranges  0x0000000000002da8       0x10 /opt/microchip/xc32/v4.60/bin/bin/../../lib/gcc/pic32mx/8.3.1/../../../../pic32mx/lib/libc-musl.a(__fmt_s.o)
 .debug_ranges  0x0000000000002db8       0x10 /opt/microchip/xc32/v4.60/bin/bin/../../lib/gcc/pic32mx/8.3.1/../../../../pic32mx/lib/libc-musl.a(__fmt_u.o)
 .debug_ranges  0x0000000000002dc8       0x10 /opt/microchip/xc32/v4.60/bin/bin/../../lib/gcc/pic32mx/8.3.1/../../../../pic32mx/lib/libc-musl.a(__fmt_x.o)
 .debug_ranges  0x0000000000002dd8       0x20 /opt/microchip/xc32/v4.60/bin/bin/../../lib/gcc/pic32mx/8.3.1/../../../../pic32mx/lib/libc-musl.a(__fopen.o)
 .debug_ranges  0x0000000000002df8       0x10 /opt/microchip/xc32/v4.60/bin/bin/../../lib/gcc/pic32mx/8.3.1/../../../../pic32mx/lib/libc-musl.a(__fseeko.o)
 .debug_ranges  0x0000000000002e08       0x18 /opt/microchip/xc32/v4.60/bin/bin/../../lib/gcc/pic32mx/8.3.1/../../../../pic32mx/lib/libc-musl.a(__ftello.o)
 .debug_ranges  0x0000000000002e20       0x18 /opt/microchip/xc32/v4.60/bin/bin/../../lib/gcc/pic32mx/8.3.1/../../../../pic32mx/lib/libc-musl.a(__fwrite.o)
 .debug_ranges  0x0000000000002e38       0x10 /opt/microchip/xc32/v4.60/bin/bin/../../lib/gcc/pic32mx/8.3.1/../../../../pic32mx/lib/libc-musl.a(__cvt_u.o)
 .debug_ranges  0x0000000000002e48       0x58 /opt/microchip/xc32/v4.60/bin/bin/../../lib/gcc/pic32mx/8.3.1/../../../../pic32mx/lib/libm-musl.a(fma.o)
 .debug_ranges  0x0000000000002ea0       0x10 /opt/microchip/xc32/v4.60/bin/bin/../../lib/gcc/pic32mx/8.3.1/../../../../pic32mx/lib/libm-musl.a(scalbn.o)
 .debug_ranges  0x0000000000002eb0       0x30 /opt/microchip/xc32/v4.60/bin/bin/../../lib/gcc/pic32mx/8.3.1/../../../../pic32mx/lib/libpic32.a(sbrk.o)
 .debug_ranges  0x0000000000002ee0       0x10 /opt/microchip/xc32/v4.60/bin/bin/../../lib/gcc/pic32mx/8.3.1/../../../../pic32mx/lib/libpic32.a(lseek.o)
 .debug_ranges  0x0000000000002ef0       0x10 /opt/microchip/xc32/v4.60/bin/bin/../../lib/gcc/pic32mx/8.3.1/../../../../pic32mx/lib/libpic32.a(close.o)
 .debug_ranges  0x0000000000002f00       0x10 /opt/microchip/xc32/v4.60/bin/bin/../../lib/gcc/pic32mx/8.3.1/../../../../pic32mx/lib/libe.a(_floatdidf.o)
 .debug_ranges  0x0000000000002f10       0xc0 /opt/microchip/xc32/v4.60/bin/bin/../../lib/gcc/pic32mx/8.3.1/libgcc.a(_umoddi3.o)

.gnu.attributes
                0x0000000000000000       0x10
 *(.gnu.attributes)
 .gnu.attributes
                0x0000000000000000       0x10 /opt/microchip/xc32/v4.60/bin/bin/../../lib/gcc/pic32mx/8.3.1/../../../../pic32mx/lib/debug-exception-return.o
 .gnu.attributes
                0x0000000000000010       0x10 build/default/production/_ext/732082881/drv_eth_pic32_lib.o
 .gnu.attributes
                0x0000000000000020       0x10 build/default/production/_ext/732082881/drv_ethmac.o
 .gnu.attributes
                0x0000000000000030       0x10 build/default/production/_ext/732082881/drv_ethmac_lib.o
 .gnu.attributes
                0x0000000000000040       0x10 build/default/production/_ext/444070925/drv_ethphy.o
 .gnu.attributes
                0x0000000000000050       0x10 build/default/production/_ext/444070925/drv_extphy_lan8720.o
 .gnu.attributes
                0x0000000000000060       0x10 build/default/production/_ext/438849557/drv_miim_pic32m.o
 .gnu.attributes
                0x0000000000000070       0x10 build/default/production/_ext/438849557/drv_miim.o
 .gnu.attributes
                0x0000000000000080       0x10 build/default/production/_ext/1033058136/helpers.o
 .gnu.attributes
                0x0000000000000090       0x10 build/default/production/_ext/1033058136/dhcp.o
 .gnu.attributes
                0x00000000000000a0       0x10 build/default/production/_ext/1033058136/ipv4.o
 .gnu.attributes
                0x00000000000000b0       0x10 build/default/production/_ext/1033058136/tcpip_commands.o
 .gnu.attributes
                0x00000000000000c0       0x10 build/default/production/_ext/1033058136/tcpip_notify.o
 .gnu.attributes
                0x00000000000000d0       0x10 build/default/production/_ext/1033058136/tcpip_helpers.o
 .gnu.attributes
                0x00000000000000e0       0x10 build/default/production/_ext/1033058136/tcpip_packet.o
 .gnu.attributes
                0x00000000000000f0       0x10 build/default/production/_ext/1033058136/oahash.o
 .gnu.attributes
                0x0000000000000100       0x10 build/default/production/_ext/1033058136/udp.o
 .gnu.attributes
                0x0000000000000110       0x10 build/default/production/_ext/1033058136/arp.o
 .gnu.attributes
                0x0000000000000120       0x10 build/default/production/_ext/1033058136/icmp.o
 .gnu.attributes
                0x0000000000000130       0x10 build/default/production/_ext/1033058136/tcpip_heap_internal.o
 .gnu.attributes
                0x0000000000000140       0x10 build/default/production/_ext/1033058136/hash_fnv.o
 .gnu.attributes
                0x0000000000000150       0x10 build/default/production/_ext/1033058136/dns.o
 .gnu.attributes
                0x0000000000000160       0x10 build/default/production/_ext/1033058136/tcpip_helper_c32.o
 .gnu.attributes
                0x0000000000000170       0x10 build/default/production/_ext/1033058136/tcpip_heap_alloc.o
 .gnu.attributes
                0x0000000000000180       0x10 build/default/production/_ext/1033058136/tcpip_manager.o
 .gnu.attributes
                0x0000000000000190       0x10 build/default/production/_ext/1529399856/osal_freertos.o
 .gnu.attributes
                0x00000000000001a0       0x10 build/default/production/_ext/60165520/plib_clk.o
 .gnu.attributes
                0x00000000000001b0       0x10 build/default/production/_ext/1249264884/plib_coretimer.o
 .gnu.attributes
                0x00000000000001c0       0x10 build/default/production/_ext/1865200349/plib_evic.o
 .gnu.attributes
                0x00000000000001d0       0x10 build/default/production/_ext/1865254177/plib_gpio.o
 .gnu.attributes
                0x00000000000001e0       0x10 build/default/production/_ext/1865657120/plib_uart2.o
 .gnu.attributes
                0x00000000000001f0       0x10 build/default/production/_ext/1865657120/plib_uart1.o
 .gnu.attributes
                0x0000000000000200       0x10 build/default/production/_ext/163028504/xc32_monitor.o
 .gnu.attributes
                0x0000000000000210       0x10 build/default/production/_ext/1376093119/sys_command.o
 .gnu.attributes
                0x0000000000000220       0x10 build/default/production/_ext/1832805299/sys_console_uart.o
 .gnu.attributes
                0x0000000000000230       0x10 build/default/production/_ext/1832805299/sys_console.o
 .gnu.attributes
                0x0000000000000240       0x10 build/default/production/_ext/944882569/sys_debug.o
 .gnu.attributes
                0x0000000000000250       0x10 build/default/production/_ext/1881668453/sys_int.o
 .gnu.attributes
                0x0000000000000260       0x10 build/default/production/_ext/1000052432/sys_reset.o
 .gnu.attributes
                0x0000000000000270       0x10 build/default/production/_ext/101884895/sys_time.o
 .gnu.attributes
                0x0000000000000280       0x10 build/default/production/_ext/753841488/sys_time_h2_adapter.o
 .gnu.attributes
                0x0000000000000290       0x10 build/default/production/_ext/1171490990/initialization.o
 .gnu.attributes
                0x00000000000002a0       0x10 build/default/production/_ext/1171490990/interrupts.o
 .gnu.attributes
                0x00000000000002b0       0x10 build/default/production/_ext/1171490990/freertos_hooks.o
 .gnu.attributes
                0x00000000000002c0       0x10 build/default/production/_ext/1171490990/interrupts_a.o
 .gnu.attributes
                0x00000000000002d0       0x10 build/default/production/_ext/1171490990/exceptions.o
 .gnu.attributes
                0x00000000000002e0       0x10 build/default/production/_ext/1171490990/tasks.o
 .gnu.attributes
                0x00000000000002f0       0x10 build/default/production/_ext/1665200909/heap_4.o
 .gnu.attributes
                0x0000000000000300       0x10 build/default/production/_ext/951553248/port_asm.o
 .gnu.attributes
                0x0000000000000310       0x10 build/default/production/_ext/951553248/port.o
 .gnu.attributes
                0x0000000000000320       0x10 build/default/production/_ext/404212886/FreeRTOS_tasks.o
 .gnu.attributes
                0x0000000000000330       0x10 build/default/production/_ext/404212886/event_groups.o
 .gnu.attributes
                0x0000000000000340       0x10 build/default/production/_ext/404212886/list.o
 .gnu.attributes
                0x0000000000000350       0x10 build/default/production/_ext/404212886/queue.o
 .gnu.attributes
                0x0000000000000360       0x10 build/default/production/_ext/404212886/stream_buffer.o
 .gnu.attributes
                0x0000000000000370       0x10 build/default/production/_ext/404212886/timers.o
 .gnu.attributes
                0x0000000000000380       0x10 build/default/production/_ext/404212886/croutine.o
 .gnu.attributes
                0x0000000000000390       0x10 build/default/production/_ext/1360937237/main.o
 .gnu.attributes
                0x00000000000003a0       0x10 build/default/production/_ext/1360937237/app.o
 .gnu.attributes
                0x00000000000003b0       0x10 build/default/production/_ext/1360937237/ethernet.o
 .gnu.attributes
                0x00000000000003c0       0x10 /tmp/ccncmXzQ.o
 .gnu.attributes
                0x00000000000003d0       0x10 /tmp/cc5ufJAa.o
 .gnu.attributes
                0x00000000000003e0       0x10 /tmp/ccG3yx4C.o
 .gnu.attributes
                0x00000000000003f0       0x10 /opt/microchip/xc32/v4.60/bin/bin/../../lib/gcc/pic32mx/8.3.1/../../../../pic32mx/lib/pic32_software_reset.o
 .gnu.attributes
                0x0000000000000400       0x10 /opt/microchip/xc32/v4.60/bin/bin/../../lib/gcc/pic32mx/8.3.1/libgcc.a(_udivdi3.o)
 .gnu.attributes
                0x0000000000000410       0x10 /opt/microchip/xc32/v4.60/bin/bin/../../lib/gcc/pic32mx/8.3.1/../../../../pic32mx/lib/libpic32.a(default-on-reset.o)
 .gnu.attributes
                0x0000000000000420       0x10 /opt/microchip/xc32/v4.60/bin/bin/../../lib/gcc/pic32mx/8.3.1/../../../../pic32mx/lib/libpic32.a(default-on-bootstrap.o)
 .gnu.attributes
                0x0000000000000430       0x10 /opt/microchip/xc32/v4.60/bin/bin/../../lib/gcc/pic32mx/8.3.1/../../../../pic32mx/lib/libpic32.a(default-nmi-handler.o)
 .gnu.attributes
                0x0000000000000440       0x10 /opt/microchip/xc32/v4.60/bin/bin/../../lib/gcc/pic32mx/8.3.1/../../../../pic32mx/lib/libpic32.a(errno.o)
 .gnu.attributes
                0x0000000000000450       0x10 /opt/microchip/xc32/v4.60/bin/bin/../../lib/gcc/pic32mx/8.3.1/../../../../pic32mx/lib/libpic32.a(pic32_data_init_core.o)
 .gnu.attributes
                0x0000000000000460       0x10 /opt/microchip/xc32/v4.60/bin/bin/../../lib/gcc/pic32mx/8.3.1/../../../../pic32mx/lib/libpic32.a(general-exception.o)
 .gnu.attributes
                0x0000000000000470       0x10 /opt/microchip/xc32/v4.60/bin/bin/../../lib/gcc/pic32mx/8.3.1/../../../../pic32mx/lib/libpic32.a(vector2.o)
 .gnu.attributes
                0x0000000000000480       0x10 /opt/microchip/xc32/v4.60/bin/bin/../../lib/gcc/pic32mx/8.3.1/../../../../pic32mx/lib/libpic32.a(vector3.o)
 .gnu.attributes
                0x0000000000000490       0x10 /opt/microchip/xc32/v4.60/bin/bin/../../lib/gcc/pic32mx/8.3.1/../../../../pic32mx/lib/libpic32.a(vector5.o)
 .gnu.attributes
                0x00000000000004a0       0x10 /opt/microchip/xc32/v4.60/bin/bin/../../lib/gcc/pic32mx/8.3.1/../../../../pic32mx/lib/libpic32.a(vector6.o)
 .gnu.attributes
                0x00000000000004b0       0x10 /opt/microchip/xc32/v4.60/bin/bin/../../lib/gcc/pic32mx/8.3.1/../../../../pic32mx/lib/libpic32.a(vector7.o)
 .gnu.attributes
                0x00000000000004c0       0x10 /opt/microchip/xc32/v4.60/bin/bin/../../lib/gcc/pic32mx/8.3.1/../../../../pic32mx/lib/libpic32.a(vector8.o)
 .gnu.attributes
                0x00000000000004d0       0x10 /opt/microchip/xc32/v4.60/bin/bin/../../lib/gcc/pic32mx/8.3.1/../../../../pic32mx/lib/libpic32.a(vector9.o)
 .gnu.attributes
                0x00000000000004e0       0x10 /opt/microchip/xc32/v4.60/bin/bin/../../lib/gcc/pic32mx/8.3.1/../../../../pic32mx/lib/libpic32.a(vector10.o)
 .gnu.attributes
                0x00000000000004f0       0x10 /opt/microchip/xc32/v4.60/bin/bin/../../lib/gcc/pic32mx/8.3.1/../../../../pic32mx/lib/libpic32.a(vector11.o)
 .gnu.attributes
                0x0000000000000500       0x10 /opt/microchip/xc32/v4.60/bin/bin/../../lib/gcc/pic32mx/8.3.1/../../../../pic32mx/lib/libpic32.a(vector12.o)
 .gnu.attributes
                0x0000000000000510       0x10 /opt/microchip/xc32/v4.60/bin/bin/../../lib/gcc/pic32mx/8.3.1/../../../../pic32mx/lib/libpic32.a(vector13.o)
 .gnu.attributes
                0x0000000000000520       0x10 /opt/microchip/xc32/v4.60/bin/bin/../../lib/gcc/pic32mx/8.3.1/../../../../pic32mx/lib/libpic32.a(vector14.o)
 .gnu.attributes
                0x0000000000000530       0x10 /opt/microchip/xc32/v4.60/bin/bin/../../lib/gcc/pic32mx/8.3.1/../../../../pic32mx/lib/libpic32.a(vector15.o)
 .gnu.attributes
                0x0000000000000540       0x10 /opt/microchip/xc32/v4.60/bin/bin/../../lib/gcc/pic32mx/8.3.1/../../../../pic32mx/lib/libpic32.a(vector16.o)
 .gnu.attributes
                0x0000000000000550       0x10 /opt/microchip/xc32/v4.60/bin/bin/../../lib/gcc/pic32mx/8.3.1/../../../../pic32mx/lib/libpic32.a(vector17.o)
 .gnu.attributes
                0x0000000000000560       0x10 /opt/microchip/xc32/v4.60/bin/bin/../../lib/gcc/pic32mx/8.3.1/../../../../pic32mx/lib/libpic32.a(vector18.o)
 .gnu.attributes
                0x0000000000000570       0x10 /opt/microchip/xc32/v4.60/bin/bin/../../lib/gcc/pic32mx/8.3.1/../../../../pic32mx/lib/libpic32.a(vector19.o)
 .gnu.attributes
                0x0000000000000580       0x10 /opt/microchip/xc32/v4.60/bin/bin/../../lib/gcc/pic32mx/8.3.1/../../../../pic32mx/lib/libpic32.a(vector20.o)
 .gnu.attributes
                0x0000000000000590       0x10 /opt/microchip/xc32/v4.60/bin/bin/../../lib/gcc/pic32mx/8.3.1/../../../../pic32mx/lib/libpic32.a(vector21.o)
 .gnu.attributes
                0x00000000000005a0       0x10 /opt/microchip/xc32/v4.60/bin/bin/../../lib/gcc/pic32mx/8.3.1/../../../../pic32mx/lib/libpic32.a(vector22.o)
 .gnu.attributes
                0x00000000000005b0       0x10 /opt/microchip/xc32/v4.60/bin/bin/../../lib/gcc/pic32mx/8.3.1/../../../../pic32mx/lib/libpic32.a(vector23.o)
 .gnu.attributes
                0x00000000000005c0       0x10 /opt/microchip/xc32/v4.60/bin/bin/../../lib/gcc/pic32mx/8.3.1/../../../../pic32mx/lib/libpic32.a(vector24.o)
 .gnu.attributes
                0x00000000000005d0       0x10 /opt/microchip/xc32/v4.60/bin/bin/../../lib/gcc/pic32mx/8.3.1/../../../../pic32mx/lib/libpic32.a(vector25.o)
 .gnu.attributes
                0x00000000000005e0       0x10 /opt/microchip/xc32/v4.60/bin/bin/../../lib/gcc/pic32mx/8.3.1/../../../../pic32mx/lib/libpic32.a(vector26.o)
 .gnu.attributes
                0x00000000000005f0       0x10 /opt/microchip/xc32/v4.60/bin/bin/../../lib/gcc/pic32mx/8.3.1/../../../../pic32mx/lib/libpic32.a(vector27.o)
 .gnu.attributes
                0x0000000000000600       0x10 /opt/microchip/xc32/v4.60/bin/bin/../../lib/gcc/pic32mx/8.3.1/../../../../pic32mx/lib/libpic32.a(vector28.o)
 .gnu.attributes
                0x0000000000000610       0x10 /opt/microchip/xc32/v4.60/bin/bin/../../lib/gcc/pic32mx/8.3.1/../../../../pic32mx/lib/libpic32.a(vector29.o)
 .gnu.attributes
                0x0000000000000620       0x10 /opt/microchip/xc32/v4.60/bin/bin/../../lib/gcc/pic32mx/8.3.1/../../../../pic32mx/lib/libpic32.a(vector30.o)
 .gnu.attributes
                0x0000000000000630       0x10 /opt/microchip/xc32/v4.60/bin/bin/../../lib/gcc/pic32mx/8.3.1/../../../../pic32mx/lib/libpic32.a(vector31.o)
 .gnu.attributes
                0x0000000000000640       0x10 /opt/microchip/xc32/v4.60/bin/bin/../../lib/gcc/pic32mx/8.3.1/../../../../pic32mx/lib/libpic32.a(vector33.o)
 .gnu.attributes
                0x0000000000000650       0x10 /opt/microchip/xc32/v4.60/bin/bin/../../lib/gcc/pic32mx/8.3.1/../../../../pic32mx/lib/libpic32.a(vector34.o)
 .gnu.attributes
                0x0000000000000660       0x10 /opt/microchip/xc32/v4.60/bin/bin/../../lib/gcc/pic32mx/8.3.1/../../../../pic32mx/lib/libpic32.a(vector35.o)
 .gnu.attributes
                0x0000000000000670       0x10 /opt/microchip/xc32/v4.60/bin/bin/../../lib/gcc/pic32mx/8.3.1/../../../../pic32mx/lib/libpic32.a(vector36.o)
 .gnu.attributes
                0x0000000000000680       0x10 /opt/microchip/xc32/v4.60/bin/bin/../../lib/gcc/pic32mx/8.3.1/../../../../pic32mx/lib/libpic32.a(vector37.o)
 .gnu.attributes
                0x0000000000000690       0x10 /opt/microchip/xc32/v4.60/bin/bin/../../lib/gcc/pic32mx/8.3.1/../../../../pic32mx/lib/libpic32.a(vector38.o)
 .gnu.attributes
                0x00000000000006a0       0x10 /opt/microchip/xc32/v4.60/bin/bin/../../lib/gcc/pic32mx/8.3.1/../../../../pic32mx/lib/libpic32.a(vector39.o)
 .gnu.attributes
                0x00000000000006b0       0x10 /opt/microchip/xc32/v4.60/bin/bin/../../lib/gcc/pic32mx/8.3.1/../../../../pic32mx/lib/libpic32.a(vector40.o)
 .gnu.attributes
                0x00000000000006c0       0x10 /opt/microchip/xc32/v4.60/bin/bin/../../lib/gcc/pic32mx/8.3.1/../../../../pic32mx/lib/libpic32.a(vector41.o)
 .gnu.attributes
                0x00000000000006d0       0x10 /opt/microchip/xc32/v4.60/bin/bin/../../lib/gcc/pic32mx/8.3.1/../../../../pic32mx/lib/libpic32.a(vector42.o)
 .gnu.attributes
                0x00000000000006e0       0x10 /opt/microchip/xc32/v4.60/bin/bin/../../lib/gcc/pic32mx/8.3.1/../../../../pic32mx/lib/libpic32.a(vector43.o)
 .gnu.attributes
                0x00000000000006f0       0x10 /opt/microchip/xc32/v4.60/bin/bin/../../lib/gcc/pic32mx/8.3.1/../../../../pic32mx/lib/libpic32.a(vector44.o)
 .gnu.attributes
                0x0000000000000700       0x10 /opt/microchip/xc32/v4.60/bin/bin/../../lib/gcc/pic32mx/8.3.1/../../../../pic32mx/lib/libpic32.a(vector45.o)
 .gnu.attributes
                0x0000000000000710       0x10 /opt/microchip/xc32/v4.60/bin/bin/../../lib/gcc/pic32mx/8.3.1/../../../../pic32mx/lib/libpic32.a(vector46.o)
 .gnu.attributes
                0x0000000000000720       0x10 /opt/microchip/xc32/v4.60/bin/bin/../../lib/gcc/pic32mx/8.3.1/../../../../pic32mx/lib/libpic32.a(vector47.o)
 .gnu.attributes
                0x0000000000000730       0x10 /opt/microchip/xc32/v4.60/bin/bin/../../lib/gcc/pic32mx/8.3.1/../../../../pic32mx/lib/libpic32.a(vector49.o)
 .gnu.attributes
                0x0000000000000740       0x10 /opt/microchip/xc32/v4.60/bin/bin/../../lib/gcc/pic32mx/8.3.1/../../../../pic32mx/lib/libpic32.a(vector50.o)
 .gnu.attributes
                0x0000000000000750       0x10 /opt/microchip/xc32/v4.60/bin/bin/../../lib/gcc/pic32mx/8.3.1/../../../../pic32mx/lib/libpic32.a(vector51.o)
 .gnu.attributes
                0x0000000000000760       0x10 /opt/microchip/xc32/v4.60/bin/bin/../../lib/gcc/pic32mx/8.3.1/../../../../pic32mx/lib/libpic32.a(defaultinterrupt.o)
 .gnu.attributes
                0x0000000000000770       0x10 /opt/microchip/xc32/v4.60/bin/bin/../../lib/gcc/pic32mx/8.3.1/../../../../pic32mx/lib/libc-size-musl.a(memcmp.o)
 .gnu.attributes
                0x0000000000000780       0x10 /opt/microchip/xc32/v4.60/bin/bin/../../lib/gcc/pic32mx/8.3.1/../../../../pic32mx/lib/libc-size-musl.a(memcpy.o)
 .gnu.attributes
                0x0000000000000790       0x10 /opt/microchip/xc32/v4.60/bin/bin/../../lib/gcc/pic32mx/8.3.1/../../../../pic32mx/lib/libc-size-musl.a(memset.o)
 .gnu.attributes
                0x00000000000007a0       0x10 /opt/microchip/xc32/v4.60/bin/bin/../../lib/gcc/pic32mx/8.3.1/../../../../pic32mx/lib/libc-size-musl.a(strlen.o)
 .gnu.attributes
                0x00000000000007b0       0x10 /opt/microchip/xc32/v4.60/bin/bin/../../lib/gcc/pic32mx/8.3.1/../../../../pic32mx/lib/libc-size-musl.a(strchr.o)
 .gnu.attributes
                0x00000000000007c0       0x10 /opt/microchip/xc32/v4.60/bin/bin/../../lib/gcc/pic32mx/8.3.1/../../../../pic32mx/lib/libc-size-musl.a(strchrnul.o)
 .gnu.attributes
                0x00000000000007d0       0x10 /opt/microchip/xc32/v4.60/bin/bin/../../lib/gcc/pic32mx/8.3.1/../../../../pic32mx/lib/libc-size-musl.a(strcmp.o)
 .gnu.attributes
                0x00000000000007e0       0x10 /opt/microchip/xc32/v4.60/bin/bin/../../lib/gcc/pic32mx/8.3.1/../../../../pic32mx/lib/libc-size-musl.a(strcpy.o)
 .gnu.attributes
                0x00000000000007f0       0x10 /opt/microchip/xc32/v4.60/bin/bin/../../lib/gcc/pic32mx/8.3.1/../../../../pic32mx/lib/libc-size-musl.a(strncmp.o)
 .gnu.attributes
                0x0000000000000800       0x10 /opt/microchip/xc32/v4.60/bin/bin/../../lib/gcc/pic32mx/8.3.1/../../../../pic32mx/lib/libc-size-musl.a(strncpy.o)
 .gnu.attributes
                0x0000000000000810       0x10 /opt/microchip/xc32/v4.60/bin/bin/../../lib/gcc/pic32mx/8.3.1/../../../../pic32mx/lib/libc-size-musl.a(strrchr.o)
 .gnu.attributes
                0x0000000000000820       0x10 /opt/microchip/xc32/v4.60/bin/bin/../../lib/gcc/pic32mx/8.3.1/../../../../pic32mx/lib/libc-size-musl.a(strtok.o)
 .gnu.attributes
                0x0000000000000830       0x10 /opt/microchip/xc32/v4.60/bin/bin/../../lib/gcc/pic32mx/8.3.1/../../../../pic32mx/lib/libc-size-musl.a(memrchr.o)
 .gnu.attributes
                0x0000000000000840       0x10 /opt/microchip/xc32/v4.60/bin/bin/../../lib/gcc/pic32mx/8.3.1/../../../../pic32mx/lib/libc-size-musl.a(stpcpy.o)
 .gnu.attributes
                0x0000000000000850       0x10 /opt/microchip/xc32/v4.60/bin/bin/../../lib/gcc/pic32mx/8.3.1/../../../../pic32mx/lib/libc-size-musl.a(stpncpy.o)
 .gnu.attributes
                0x0000000000000860       0x10 /opt/microchip/xc32/v4.60/bin/bin/../../lib/gcc/pic32mx/8.3.1/../../../../pic32mx/lib/libc-size-musl.a(strcspn.o)
 .gnu.attributes
                0x0000000000000870       0x10 /opt/microchip/xc32/v4.60/bin/bin/../../lib/gcc/pic32mx/8.3.1/../../../../pic32mx/lib/libc-size-musl.a(strspn.o)
 .gnu.attributes
                0x0000000000000880       0x10 /opt/microchip/xc32/v4.60/bin/bin/../../lib/gcc/pic32mx/8.3.1/../../../../pic32mx/lib/liblmalloc-musl.a(lite_free.o)
 .gnu.attributes
                0x0000000000000890       0x10 /opt/microchip/xc32/v4.60/bin/bin/../../lib/gcc/pic32mx/8.3.1/../../../../pic32mx/lib/liblmalloc-musl.a(lite_malloc.o)
 .gnu.attributes
                0x00000000000008a0       0x10 /opt/microchip/xc32/v4.60/bin/bin/../../lib/gcc/pic32mx/8.3.1/../../../../pic32mx/lib/libc-musl.a(isalnum.o)
 .gnu.attributes
                0x00000000000008b0       0x10 /opt/microchip/xc32/v4.60/bin/bin/../../lib/gcc/pic32mx/8.3.1/../../../../pic32mx/lib/libc-musl.a(isxdigit.o)
 .gnu.attributes
                0x00000000000008c0       0x10 /opt/microchip/xc32/v4.60/bin/bin/../../lib/gcc/pic32mx/8.3.1/../../../../pic32mx/lib/libc-musl.a(tolower.o)
 .gnu.attributes
                0x00000000000008d0       0x10 /opt/microchip/xc32/v4.60/bin/bin/../../lib/gcc/pic32mx/8.3.1/../../../../pic32mx/lib/libc-musl.a(toupper.o)
 .gnu.attributes
                0x00000000000008e0       0x10 /opt/microchip/xc32/v4.60/bin/bin/../../lib/gcc/pic32mx/8.3.1/../../../../pic32mx/lib/libc-musl.a(expand_heap.o)
 .gnu.attributes
                0x00000000000008f0       0x10 /opt/microchip/xc32/v4.60/bin/bin/../../lib/gcc/pic32mx/8.3.1/../../../../pic32mx/lib/libc-musl.a(rand.o)
 .gnu.attributes
                0x0000000000000900       0x10 /opt/microchip/xc32/v4.60/bin/bin/../../lib/gcc/pic32mx/8.3.1/../../../../pic32mx/lib/libc-musl.a(vsnprintf.o)
 .gnu.attributes
                0x0000000000000910       0x10 /opt/microchip/xc32/v4.60/bin/bin/../../lib/gcc/pic32mx/8.3.1/../../../../pic32mx/lib/libc-musl.a(stdin.o)
 .gnu.attributes
                0x0000000000000920       0x10 /opt/microchip/xc32/v4.60/bin/bin/../../lib/gcc/pic32mx/8.3.1/../../../../pic32mx/lib/libc-musl.a(stdout.o)
 .gnu.attributes
                0x0000000000000930       0x10 /opt/microchip/xc32/v4.60/bin/bin/../../lib/gcc/pic32mx/8.3.1/../../../../pic32mx/lib/libc-musl.a(setbuf.o)
 .gnu.attributes
                0x0000000000000940       0x10 /opt/microchip/xc32/v4.60/bin/bin/../../lib/gcc/pic32mx/8.3.1/../../../../pic32mx/lib/libc-musl.a(sprintf.o)
 .gnu.attributes
                0x0000000000000950       0x10 /opt/microchip/xc32/v4.60/bin/bin/../../lib/gcc/pic32mx/8.3.1/../../../../pic32mx/lib/libc-musl.a(vsprintf.o)
 .gnu.attributes
                0x0000000000000960       0x10 /opt/microchip/xc32/v4.60/bin/bin/../../lib/gcc/pic32mx/8.3.1/../../../../pic32mx/lib/libc-musl.a(strtol.o)
 .gnu.attributes
                0x0000000000000970       0x10 /opt/microchip/xc32/v4.60/bin/bin/../../lib/gcc/pic32mx/8.3.1/../../../../pic32mx/lib/libc-musl.a(qsort.o)
 .gnu.attributes
                0x0000000000000980       0x10 /opt/microchip/xc32/v4.60/bin/bin/../../lib/gcc/pic32mx/8.3.1/../../../../pic32mx/lib/libc-musl.a(intscan.o)
 .gnu.attributes
                0x0000000000000990       0x10 /opt/microchip/xc32/v4.60/bin/bin/../../lib/gcc/pic32mx/8.3.1/../../../../pic32mx/lib/libc-musl.a(shgetc.o)
 .gnu.attributes
                0x00000000000009a0       0x10 /opt/microchip/xc32/v4.60/bin/bin/../../lib/gcc/pic32mx/8.3.1/../../../../pic32mx/lib/libc-musl.a(__uflow.o)
 .gnu.attributes
                0x00000000000009b0       0x10 /opt/microchip/xc32/v4.60/bin/bin/../../lib/gcc/pic32mx/8.3.1/../../../../pic32mx/lib/libc-musl.a(__io_init_needed.o)
 .gnu.attributes
                0x00000000000009c0       0x10 /opt/microchip/xc32/v4.60/bin/bin/../../lib/gcc/pic32mx/8.3.1/../../../../pic32mx/lib/libc-musl.a(__io_rw_needed.o)
 .gnu.attributes
                0x00000000000009d0       0x10 /opt/microchip/xc32/v4.60/bin/bin/../../lib/gcc/pic32mx/8.3.1/../../../../pic32mx/lib/libc-musl.a(__out.o)
 .gnu.attributes
                0x00000000000009e0       0x10 /opt/microchip/xc32/v4.60/bin/bin/../../lib/gcc/pic32mx/8.3.1/../../../../pic32mx/lib/libc-musl.a(__stdio_close.o)
 .gnu.attributes
                0x00000000000009f0       0x10 /opt/microchip/xc32/v4.60/bin/bin/../../lib/gcc/pic32mx/8.3.1/../../../../pic32mx/lib/libc-musl.a(__stdio_read.o)
 .gnu.attributes
                0x0000000000000a00       0x10 /opt/microchip/xc32/v4.60/bin/bin/../../lib/gcc/pic32mx/8.3.1/../../../../pic32mx/lib/libc-musl.a(__towrite_rw.o)
 .gnu.attributes
                0x0000000000000a10       0x10 /opt/microchip/xc32/v4.60/bin/bin/../../lib/gcc/pic32mx/8.3.1/../../../../pic32mx/lib/libc-musl.a(setvbuf.o)
 .gnu.attributes
                0x0000000000000a20       0x10 /opt/microchip/xc32/v4.60/bin/bin/../../lib/gcc/pic32mx/8.3.1/../../../../pic32mx/lib/libc-musl.a(vfprintf.o)
 .gnu.attributes
                0x0000000000000a30       0x10 /opt/microchip/xc32/v4.60/bin/bin/../../lib/gcc/pic32mx/8.3.1/../../../../pic32mx/lib/libc-musl.a(readv.o)
 .gnu.attributes
                0x0000000000000a40       0x10 /opt/microchip/xc32/v4.60/bin/bin/../../lib/gcc/pic32mx/8.3.1/../../../../pic32mx/lib/libc-musl.a(__toread.o)
 .gnu.attributes
                0x0000000000000a50       0x10 /opt/microchip/xc32/v4.60/bin/bin/../../lib/gcc/pic32mx/8.3.1/../../../../pic32mx/lib/libc-musl.a(__fopen_rw.o)
 .gnu.attributes
                0x0000000000000a60       0x10 /opt/microchip/xc32/v4.60/bin/bin/../../lib/gcc/pic32mx/8.3.1/../../../../pic32mx/lib/libc-musl.a(__ftello_rw.o)
 .gnu.attributes
                0x0000000000000a70       0x10 /opt/microchip/xc32/v4.60/bin/bin/../../lib/gcc/pic32mx/8.3.1/../../../../pic32mx/lib/libc-musl.a(__init_stdio.o)
 .gnu.attributes
                0x0000000000000a80       0x10 /opt/microchip/xc32/v4.60/bin/bin/../../lib/gcc/pic32mx/8.3.1/../../../../pic32mx/lib/libc-musl.a(__io_buf_needed.o)
 .gnu.attributes
                0x0000000000000a90       0x10 /opt/microchip/xc32/v4.60/bin/bin/../../lib/gcc/pic32mx/8.3.1/../../../../pic32mx/lib/libc-musl.a(__io_file_needed.o)
 .gnu.attributes
                0x0000000000000aa0       0x10 /opt/microchip/xc32/v4.60/bin/bin/../../lib/gcc/pic32mx/8.3.1/../../../../pic32mx/lib/libc-musl.a(__io_fmt_needed.o)
 .gnu.attributes
                0x0000000000000ab0       0x10 /opt/microchip/xc32/v4.60/bin/bin/../../lib/gcc/pic32mx/8.3.1/../../../../pic32mx/lib/libc-musl.a(__io_std_needed.o)
 .gnu.attributes
                0x0000000000000ac0       0x10 /opt/microchip/xc32/v4.60/bin/bin/../../lib/gcc/pic32mx/8.3.1/../../../../pic32mx/lib/libc-musl.a(__pop_float.o)
 .gnu.attributes
                0x0000000000000ad0       0x10 /opt/microchip/xc32/v4.60/bin/bin/../../lib/gcc/pic32mx/8.3.1/../../../../pic32mx/lib/libc-musl.a(__pop_int.o)
 .gnu.attributes
                0x0000000000000ae0       0x10 /opt/microchip/xc32/v4.60/bin/bin/../../lib/gcc/pic32mx/8.3.1/../../../../pic32mx/lib/libc-musl.a(__pop_ptr.o)
 .gnu.attributes
                0x0000000000000af0       0x10 /opt/microchip/xc32/v4.60/bin/bin/../../lib/gcc/pic32mx/8.3.1/../../../../pic32mx/lib/libc-musl.a(__printf_core.o)
 .gnu.attributes
                0x0000000000000b00       0x10 /opt/microchip/xc32/v4.60/bin/bin/../../lib/gcc/pic32mx/8.3.1/../../../../pic32mx/lib/libc-musl.a(__putc.o)
 .gnu.attributes
                0x0000000000000b10       0x10 /opt/microchip/xc32/v4.60/bin/bin/../../lib/gcc/pic32mx/8.3.1/../../../../pic32mx/lib/libc-musl.a(__stderr.o)
 .gnu.attributes
                0x0000000000000b20       0x10 /opt/microchip/xc32/v4.60/bin/bin/../../lib/gcc/pic32mx/8.3.1/../../../../pic32mx/lib/libc-musl.a(__stdio_exit.o)
 .gnu.attributes
                0x0000000000000b30       0x10 /opt/microchip/xc32/v4.60/bin/bin/../../lib/gcc/pic32mx/8.3.1/../../../../pic32mx/lib/libc-musl.a(__stdio_write.o)
 .gnu.attributes
                0x0000000000000b40       0x10 /opt/microchip/xc32/v4.60/bin/bin/../../lib/gcc/pic32mx/8.3.1/../../../../pic32mx/lib/libc-musl.a(__stdout.o)
 .gnu.attributes
                0x0000000000000b50       0x10 /opt/microchip/xc32/v4.60/bin/bin/../../lib/gcc/pic32mx/8.3.1/../../../../pic32mx/lib/libc-musl.a(__towrite.o)
 .gnu.attributes
                0x0000000000000b60       0x10 /opt/microchip/xc32/v4.60/bin/bin/../../lib/gcc/pic32mx/8.3.1/../../../../pic32mx/lib/libc-musl.a(putc.o)
 .gnu.attributes
                0x0000000000000b70       0x10 /opt/microchip/xc32/v4.60/bin/bin/../../lib/gcc/pic32mx/8.3.1/../../../../pic32mx/lib/libc-musl.a(atoi.o)
 .gnu.attributes
                0x0000000000000b80       0x10 /opt/microchip/xc32/v4.60/bin/bin/../../lib/gcc/pic32mx/8.3.1/../../../../pic32mx/lib/libc-musl.a(writev.o)
 .gnu.attributes
                0x0000000000000b90       0x10 /opt/microchip/xc32/v4.60/bin/bin/../../lib/gcc/pic32mx/8.3.1/../../../../pic32mx/lib/libc-musl.a(__overflow.o)
 .gnu.attributes
                0x0000000000000ba0       0x10 /opt/microchip/xc32/v4.60/bin/bin/../../lib/gcc/pic32mx/8.3.1/../../../../pic32mx/lib/libc-musl.a(__fclose.o)
 .gnu.attributes
                0x0000000000000bb0       0x10 /opt/microchip/xc32/v4.60/bin/bin/../../lib/gcc/pic32mx/8.3.1/../../../../pic32mx/lib/libc-musl.a(__fmt_a.o)
 .gnu.attributes
                0x0000000000000bc0       0x10 /opt/microchip/xc32/v4.60/bin/bin/../../lib/gcc/pic32mx/8.3.1/../../../../pic32mx/lib/libc-musl.a(__fmt_d.o)
 .gnu.attributes
                0x0000000000000bd0       0x10 /opt/microchip/xc32/v4.60/bin/bin/../../lib/gcc/pic32mx/8.3.1/../../../../pic32mx/lib/libc-musl.a(__fmt_fp.o)
 .gnu.attributes
                0x0000000000000be0       0x10 /opt/microchip/xc32/v4.60/bin/bin/../../lib/gcc/pic32mx/8.3.1/../../../../pic32mx/lib/libc-musl.a(__fmt_o.o)
 .gnu.attributes
                0x0000000000000bf0       0x10 /opt/microchip/xc32/v4.60/bin/bin/../../lib/gcc/pic32mx/8.3.1/../../../../pic32mx/lib/libc-musl.a(__fmt_s.o)
 .gnu.attributes
                0x0000000000000c00       0x10 /opt/microchip/xc32/v4.60/bin/bin/../../lib/gcc/pic32mx/8.3.1/../../../../pic32mx/lib/libc-musl.a(__fmt_u.o)
 .gnu.attributes
                0x0000000000000c10       0x10 /opt/microchip/xc32/v4.60/bin/bin/../../lib/gcc/pic32mx/8.3.1/../../../../pic32mx/lib/libc-musl.a(__fmt_x.o)
 .gnu.attributes
                0x0000000000000c20       0x10 /opt/microchip/xc32/v4.60/bin/bin/../../lib/gcc/pic32mx/8.3.1/../../../../pic32mx/lib/libc-musl.a(__fopen.o)
 .gnu.attributes
                0x0000000000000c30       0x10 /opt/microchip/xc32/v4.60/bin/bin/../../lib/gcc/pic32mx/8.3.1/../../../../pic32mx/lib/libc-musl.a(__fseeko.o)
 .gnu.attributes
                0x0000000000000c40       0x10 /opt/microchip/xc32/v4.60/bin/bin/../../lib/gcc/pic32mx/8.3.1/../../../../pic32mx/lib/libc-musl.a(__ftello.o)
 .gnu.attributes
                0x0000000000000c50       0x10 /opt/microchip/xc32/v4.60/bin/bin/../../lib/gcc/pic32mx/8.3.1/../../../../pic32mx/lib/libc-musl.a(__fwrite.o)
 .gnu.attributes
                0x0000000000000c60       0x10 /opt/microchip/xc32/v4.60/bin/bin/../../lib/gcc/pic32mx/8.3.1/../../../../pic32mx/lib/libc-musl.a(__cvt_u.o)
 .gnu.attributes
                0x0000000000000c70       0x10 /opt/microchip/xc32/v4.60/bin/bin/../../lib/gcc/pic32mx/8.3.1/../../../../pic32mx/lib/libm.a(floor32.o)
 .gnu.attributes
                0x0000000000000c80       0x10 /opt/microchip/xc32/v4.60/bin/bin/../../lib/gcc/pic32mx/8.3.1/../../../../pic32mx/lib/libm.a(dp32div.o)
 .gnu.attributes
                0x0000000000000c90       0x10 /opt/microchip/xc32/v4.60/bin/bin/../../lib/gcc/pic32mx/8.3.1/../../../../pic32mx/lib/libm.a(dp32mul.o)
 .gnu.attributes
                0x0000000000000ca0       0x10 /opt/microchip/xc32/v4.60/bin/bin/../../lib/gcc/pic32mx/8.3.1/../../../../pic32mx/lib/libm.a(dp32subadd.o)
 .gnu.attributes
                0x0000000000000cb0       0x10 /opt/microchip/xc32/v4.60/bin/bin/../../lib/gcc/pic32mx/8.3.1/../../../../pic32mx/lib/libm.a(dpcmp.o)
 .gnu.attributes
                0x0000000000000cc0       0x10 /opt/microchip/xc32/v4.60/bin/bin/../../lib/gcc/pic32mx/8.3.1/../../../../pic32mx/lib/libm.a(dpcmplt.o)
 .gnu.attributes
                0x0000000000000cd0       0x10 /opt/microchip/xc32/v4.60/bin/bin/../../lib/gcc/pic32mx/8.3.1/../../../../pic32mx/lib/libm.a(dptoli.o)
 .gnu.attributes
                0x0000000000000ce0       0x10 /opt/microchip/xc32/v4.60/bin/bin/../../lib/gcc/pic32mx/8.3.1/../../../../pic32mx/lib/libm-musl.a(fma.o)
 .gnu.attributes
                0x0000000000000cf0       0x10 /opt/microchip/xc32/v4.60/bin/bin/../../lib/gcc/pic32mx/8.3.1/../../../../pic32mx/lib/libm-musl.a(scalbn.o)
 .gnu.attributes
                0x0000000000000d00       0x10 /opt/microchip/xc32/v4.60/bin/bin/../../lib/gcc/pic32mx/8.3.1/../../../../pic32mx/lib/libpic32.a(sbrk.o)
 .gnu.attributes
                0x0000000000000d10       0x10 /opt/microchip/xc32/v4.60/bin/bin/../../lib/gcc/pic32mx/8.3.1/../../../../pic32mx/lib/libpic32.a(lseek.o)
 .gnu.attributes
                0x0000000000000d20       0x10 /opt/microchip/xc32/v4.60/bin/bin/../../lib/gcc/pic32mx/8.3.1/../../../../pic32mx/lib/libpic32.a(close.o)
 .gnu.attributes
                0x0000000000000d30       0x10 /opt/microchip/xc32/v4.60/bin/bin/../../lib/gcc/pic32mx/8.3.1/../../../../pic32mx/lib/libm.a(dptofp.o)
 .gnu.attributes
                0x0000000000000d40       0x10 /opt/microchip/xc32/v4.60/bin/bin/../../lib/gcc/pic32mx/8.3.1/../../../../pic32mx/lib/libm.a(fptodp.o)
 .gnu.attributes
                0x0000000000000d50       0x10 /opt/microchip/xc32/v4.60/bin/bin/../../lib/gcc/pic32mx/8.3.1/../../../../pic32mx/lib/libe.a(_floatdidf.o)
 .gnu.attributes
                0x0000000000000d60       0x10 /opt/microchip/xc32/v4.60/bin/bin/../../lib/gcc/pic32mx/8.3.1/libgcc.a(_lshrdi3.o)
 .gnu.attributes
                0x0000000000000d70       0x10 /opt/microchip/xc32/v4.60/bin/bin/../../lib/gcc/pic32mx/8.3.1/libgcc.a(_ashldi3.o)
 .gnu.attributes
                0x0000000000000d80       0x10 /opt/microchip/xc32/v4.60/bin/bin/../../lib/gcc/pic32mx/8.3.1/libgcc.a(_umoddi3.o)
 .gnu.attributes
                0x0000000000000d90       0x10 /opt/microchip/xc32/v4.60/bin/bin/../../lib/gcc/pic32mx/8.3.1/../../../../pic32mx/lib/libpic32.a(pic32_data_init_clear.o)
 .gnu.attributes
                0x0000000000000da0       0x10 /opt/microchip/xc32/v4.60/bin/bin/../../lib/gcc/pic32mx/8.3.1/../../../../pic32mx/lib/libpic32.a(pic32_data_init_copy.o)
                0x0000000000012110                _min_heap_size = 0x12110
LOAD /tmp/ccncmXzQ.o
LOAD /tmp/cc5ufJAa.o
LOAD /tmp/ccG3yx4C.o
LOAD /opt/microchip/xc32/v4.60/bin/bin/../../lib/gcc/pic32mx/8.3.1/../../../../pic32mx/lib/pic32_software_reset.o
LOAD /opt/microchip/xc32/v4.60/bin/bin/../../lib/gcc/pic32mx/8.3.1/libgcc.a
START GROUP
LOAD /opt/microchip/xc32/v4.60/bin/bin/../../lib/gcc/pic32mx/8.3.1/../../../../pic32mx/lib/libpic32.a
LOAD /opt/microchip/xc32/v4.60/bin/bin/../../lib/gcc/pic32mx/8.3.1/../../../../pic32mx/lib/libc-size-musl.a
LOAD /opt/microchip/xc32/v4.60/bin/bin/../../lib/gcc/pic32mx/8.3.1/../../../../pic32mx/lib/liblmalloc-musl.a
LOAD /opt/microchip/xc32/v4.60/bin/bin/../../lib/gcc/pic32mx/8.3.1/../../../../pic32mx/lib/libdebug.a
LOAD /opt/microchip/xc32/v4.60/bin/bin/../../lib/gcc/pic32mx/8.3.1/../../../../pic32mx/lib/libc-musl.a
LOAD /opt/microchip/xc32/v4.60/bin/bin/../../lib/gcc/pic32mx/8.3.1/../../../../pic32mx/lib/libm.a
LOAD /opt/microchip/xc32/v4.60/bin/bin/../../lib/gcc/pic32mx/8.3.1/../../../../pic32mx/lib/libe.a
LOAD /opt/microchip/xc32/v4.60/bin/bin/../../lib/gcc/pic32mx/8.3.1/../../../../pic32mx/lib/libm-musl.a
LOAD /opt/microchip/xc32/v4.60/bin/bin/../../lib/gcc/pic32mx/8.3.1/../../../../pic32mx/lib/libdsp.a
END GROUP
LOAD /opt/microchip/xc32/v4.60/bin/bin/../../lib/gcc/pic32mx/8.3.1/libgcc.a
OUTPUT(dist/default/production/node90.X.production.elf elf32-tradlittlemips)
LOAD data_init
LOAD stack

.reginfo        0x0000000000000000       0x18
 .reginfo       0x0000000000000000       0x18 /opt/microchip/xc32/v4.60/bin/bin/../../lib/gcc/pic32mx/8.3.1/../../../../pic32mx/lib/debug-exception-return.o

__xc_reference_data
                0x0000000000000000      0x38c
 __xc_reference_data
                0x0000000000000000       0x24 /opt/microchip/xc32/v4.60/bin/bin/../../lib/gcc/pic32mx/8.3.1/../../../../pic32mx/lib/libc-musl.a(stdin.o)
                0x0000000000000000                __stdin_needs_rw
 __xc_reference_data
                0x0000000000000024       0x24 /opt/microchip/xc32/v4.60/bin/bin/../../lib/gcc/pic32mx/8.3.1/../../../../pic32mx/lib/libc-musl.a(stdout.o)
                0x0000000000000024                __stdout_needs_init
 __xc_reference_data
                0x0000000000000048       0x48 /opt/microchip/xc32/v4.60/bin/bin/../../lib/gcc/pic32mx/8.3.1/../../../../pic32mx/lib/libc-musl.a(__io_init_needed.o)
                0x0000000000000048                __io_init_needed
                0x000000000000006c                __io_init_needs_file
 __xc_reference_data
                0x0000000000000090       0x54 /opt/microchip/xc32/v4.60/bin/bin/../../lib/gcc/pic32mx/8.3.1/../../../../pic32mx/lib/libc-musl.a(__io_rw_needed.o)
                0x0000000000000090                __io_rw_needed
 __xc_reference_data
                0x00000000000000e4       0x24 /opt/microchip/xc32/v4.60/bin/bin/../../lib/gcc/pic32mx/8.3.1/../../../../pic32mx/lib/libc-musl.a(setvbuf.o)
                0x00000000000000e4                __setvbuf_needs_buf
 __xc_reference_data
                0x0000000000000108       0x24 /opt/microchip/xc32/v4.60/bin/bin/../../lib/gcc/pic32mx/8.3.1/../../../../pic32mx/lib/libc-musl.a(vfprintf.o)
                0x0000000000000108                __vfprintf_needs_fmt
 __xc_reference_data
                0x000000000000012c       0x84 /opt/microchip/xc32/v4.60/bin/bin/../../lib/gcc/pic32mx/8.3.1/../../../../pic32mx/lib/libc-musl.a(__io_buf_needed.o)
                0x000000000000012c                __io_buf_needed
 __xc_reference_data
                0x00000000000001b0       0x24 /opt/microchip/xc32/v4.60/bin/bin/../../lib/gcc/pic32mx/8.3.1/../../../../pic32mx/lib/libc-musl.a(__io_file_needed.o)
                0x00000000000001b0                __io_file_needed
 __xc_reference_data
                0x00000000000001d4       0xb4 /opt/microchip/xc32/v4.60/bin/bin/../../lib/gcc/pic32mx/8.3.1/../../../../pic32mx/lib/libc-musl.a(__io_fmt_needed.o)
                0x00000000000001d4                __io_fmt_needed
 __xc_reference_data
                0x0000000000000288       0x74 /opt/microchip/xc32/v4.60/bin/bin/../../lib/gcc/pic32mx/8.3.1/../../../../pic32mx/lib/libc-musl.a(__io_std_needed.o)
                0x0000000000000288                __io_std_needed
 __xc_reference_data
                0x00000000000002fc       0x24 /opt/microchip/xc32/v4.60/bin/bin/../../lib/gcc/pic32mx/8.3.1/../../../../pic32mx/lib/libc-musl.a(__stderr.o)
                0x00000000000002fc                __stderr_needs_file
 __xc_reference_data
                0x0000000000000320       0x24 /opt/microchip/xc32/v4.60/bin/bin/../../lib/gcc/pic32mx/8.3.1/../../../../pic32mx/lib/libc-musl.a(__stdout.o)
                0x0000000000000320                __stdout_needs_file
 __xc_reference_data
                0x0000000000000344       0x24 /opt/microchip/xc32/v4.60/bin/bin/../../lib/gcc/pic32mx/8.3.1/../../../../pic32mx/lib/libc-musl.a(putc.o)
                0x0000000000000344                __putc_needs_out
 __xc_reference_data
                0x0000000000000368       0x24 /opt/microchip/xc32/v4.60/bin/bin/../../lib/gcc/pic32mx/8.3.1/../../../../pic32mx/lib/libc-musl.a(__fwrite.o)
                0x0000000000000368                __fwrite_needs_std

.stack          0x00000000a001bc08      0x400
 .stack         0x00000000a001bc08      0x400 stack

.data           0x00000000a000019c      0x180
 .data          0x00000000a000019c      0x118 build/default/production/_ext/732082881/drv_ethmac.o
 .data          0x00000000a00002b4       0x68 /opt/microchip/xc32/v4.60/bin/bin/../../lib/gcc/pic32mx/8.3.1/../../../../pic32mx/lib/libc-musl.a(stdin.o)
                0x00000000a00002b4                __stdin_used

.data           0x00000000a000031c       0x90
 .data          0x00000000a000031c       0x68 /opt/microchip/xc32/v4.60/bin/bin/../../lib/gcc/pic32mx/8.3.1/../../../../pic32mx/lib/libc-musl.a(stdout.o)
                0x00000000a000031c                __stdout_used
 .data          0x00000000a0000384       0x28 build/default/production/_ext/1033058136/tcpip_helpers.o

.data           0x00000000a00003ac       0x28
 .data          0x00000000a00003ac       0x24 build/default/production/_ext/1171490990/initialization.o
                0x00000000a00003ac                drvlan8720Tmo
                0x00000000a00003b8                tcpipHeapConfig
 .data          0x00000000a00003d0        0x4 build/default/production/_ext/404212886/FreeRTOS_tasks.o
                0x00000000a00003d0                uxTopUsedPriority

.data           0x00000000a00003d4        0x4
 .data          0x00000000a00003d4        0x4 /opt/microchip/xc32/v4.60/bin/bin/../../lib/gcc/pic32mx/8.3.1/../../../../pic32mx/lib/liblmalloc-musl.a(lite_malloc.o)

.data._stdin    0x00000000a00003d8        0x4
 .data._stdin   0x00000000a00003d8        0x4 /opt/microchip/xc32/v4.60/bin/bin/../../lib/gcc/pic32mx/8.3.1/../../../../pic32mx/lib/libc-musl.a(stdin.o)
                0x00000000a00003d8                _stdin

.data._stdout   0x00000000a00003dc        0x4
 .data._stdout  0x00000000a00003dc        0x4 /opt/microchip/xc32/v4.60/bin/bin/../../lib/gcc/pic32mx/8.3.1/../../../../pic32mx/lib/libc-musl.a(stdout.o)
                0x00000000a00003dc                _stdout

.bss            0x00000000a00003e0     0x8500
 .bss           0x00000000a00003e0     0x7d00 build/default/production/_ext/1665200909/heap_4.o
 .bss           0x00000000a00080e0      0x800 build/default/production/_ext/951553248/port.o
                0x00000000a00080e0                xISRStack

.bss            0x00000000a00088e0      0x8c8
 .bss           0x00000000a00088e0      0x4c0 build/default/production/_ext/1376093119/sys_command.o
 .bss           0x00000000a0008da0      0x408 /opt/microchip/xc32/v4.60/bin/bin/../../lib/gcc/pic32mx/8.3.1/../../../../pic32mx/lib/libc-musl.a(stdin.o)

.bss            0x00000000a00091a8      0x488
 .bss           0x00000000a00091a8      0x344 build/default/production/_ext/1033058136/tcpip_manager.o
 .bss           0x00000000a00094ec      0x144 build/default/production/_ext/1865657120/plib_uart2.o

.bss            0x00000000a0009630      0x1cc
 .bss           0x00000000a0009630       0xf8 build/default/production/_ext/101884895/sys_time.o
 .bss           0x00000000a0009728       0xd4 build/default/production/_ext/1832805299/sys_console.o

.bss            0x00000000a00097fc      0x170
 .bss           0x00000000a00097fc       0xc8 build/default/production/_ext/404212886/FreeRTOS_tasks.o
 .bss           0x00000000a00098c4       0xa8 build/default/production/_ext/438849557/drv_miim.o

.bss            0x00000000a000996c       0xb8
 .bss           0x00000000a000996c       0x6c build/default/production/_ext/444070925/drv_ethphy.o
 .bss           0x00000000a00099d8       0x4c build/default/production/_ext/1033058136/arp.o

.bss            0x00000000a0009a24       0x58
 .bss           0x00000000a0009a24       0x34 build/default/production/_ext/1033058136/ipv4.o
 .bss           0x00000000a0009a58       0x24 /opt/microchip/xc32/v4.60/bin/bin/../../lib/gcc/pic32mx/8.3.1/../../../../pic32mx/lib/libpic32.a(sbrk.o)
                0x00000000a0009a74                _maxbrk
                0x00000000a0009a78                _minbrk

.bss            0x00000000a0009a7c       0x30
 .bss           0x00000000a0009a7c       0x18 build/default/production/_ext/1033058136/tcpip_commands.o
 .bss           0x00000000a0009a94       0x18 build/default/production/_ext/1171490990/initialization.o
                0x00000000a0009a94                sysObj

.bss            0x00000000a0009aac       0x20
 .bss           0x00000000a0009aac       0x14 build/default/production/_ext/1033058136/dhcp.o
 .bss           0x00000000a0009ac0        0xc build/default/production/_ext/1832805299/sys_console_uart.o

.bss.errno      0x00000000a0009acc        0x4
 .bss.errno     0x00000000a0009acc        0x4 /opt/microchip/xc32/v4.60/bin/bin/../../lib/gcc/pic32mx/8.3.1/../../../../pic32mx/lib/libpic32.a(errno.o)
                0x00000000a0009acc                errno

.bss            0x00000000a0009ad0        0x8
 .bss           0x00000000a0009ad0        0x4 /opt/microchip/xc32/v4.60/bin/bin/../../lib/gcc/pic32mx/8.3.1/../../../../pic32mx/lib/libc-size-musl.a(strtok.o)
 .bss           0x00000000a0009ad4        0x4 /opt/microchip/xc32/v4.60/bin/bin/../../lib/gcc/pic32mx/8.3.1/../../../../pic32mx/lib/liblmalloc-musl.a(lite_free.o)
                0x00000000a0009ad4                __freelist

.bss            0x00000000a0009ad8        0x4
 .bss           0x00000000a0009ad8        0x4 /opt/microchip/xc32/v4.60/bin/bin/../../lib/gcc/pic32mx/8.3.1/../../../../pic32mx/lib/libc-musl.a(rand.o)

._debug_exception
                0x00000000bfc00480       0x2c
 ._debug_exception
                0x00000000bfc00480       0x2c /opt/microchip/xc32/v4.60/bin/bin/../../lib/gcc/pic32mx/8.3.1/../../../../pic32mx/lib/debug-exception-return.o
                0x00000000bfc00480                __DbgExecReturn

.text           0x000000009d000000     0x68bc
 .text          0x000000009d000000     0x3bdc build/default/production/_ext/1033058136/tcpip_manager.o
                0x000000009d0007d8                TCPIPStack_Assert
                0x000000009d000864                TCPIPStack_Condition
                0x000000009d0008a4                TCPIP_STACK_Status
                0x000000009d0008c0                TCPIP_STACK_InitializeDataGet
                0x000000009d00091c                TCPIP_STACK_NetDefaultGet
                0x000000009d000924                TCPIP_STACK_NetDefaultSet
                0x000000009d00094c                TCPIP_STACK_NetMulticastGet
                0x000000009d000954                TCPIP_STACK_NetMulticastSet
                0x000000009d00095c                TCPIPStackIpAddFromAnyNet
                0x000000009d0009d8                TCPIP_STACK_MacToNet
                0x000000009d000a24                TCPIP_STACK_MacToNetIndex
                0x000000009d000a6c                TCPIP_STACK_NumberOfNetworksGet
                0x000000009d000a78                TCPIP_STACK_IndexToNet
                0x000000009d000aa8                TCPIP_STACK_NetIndexGet
                0x000000009d000abc                TCPIP_Stack_UserHandleToNet
                0x000000009d000b10                TCPIP_STACK_MACIdToNet
                0x000000009d000b6c                TCPIP_STACK_NetNameGet
                0x000000009d000b88                TCPIP_STACK_NetAliasNameGet
                0x000000009d000c18                TCPIP_STACK_MACObjectGet
                0x000000009d000c2c                TCPIP_STACK_NetByAddress
                0x000000009d000c7c                TCPIP_STACK_IPAddToNet
                0x000000009d000cc8                TCPIP_STACK_MatchNetAddress
                0x000000009d000d2c                TCPIP_STACK_NetIPv6AddressGet
                0x000000009d000d34                TCPIPStackIPv6AddToNet
                0x000000009d000d3c                TCPIP_STACK_NetAddressGatewaySet
                0x000000009d000d68                TCPIP_STACK_NetAddressGateway
                0x000000009d000d88                TCPIP_STACK_NetAddressDnsPrimary
                0x000000009d000da8                TCPIP_STACK_NetAddressDnsSecond
                0x000000009d000dc8                TCPIP_STACK_NetDnsPrimarySet
                0x000000009d000df4                TCPIP_STACK_NetDnsSecondSet
                0x000000009d000e20                TCPIP_STACK_NetDnsIPv6Set
                0x000000009d000e28                TCPIP_STACK_NetDnsIPv6Get
                0x000000009d000e30                TCPIP_STACK_NetAddressMacSet
                0x000000009d000e78                TCPIP_STACK_NetBIOSName
                0x000000009d000e84                TCPIP_STACK_NetBiosNameSet
                0x000000009d000f08                TCPIP_STACK_NetMACIdGet
                0x000000009d000f28                TCPIP_STACK_NetMACTypeGet
                0x000000009d000f48                TCPIP_STACK_NetMACStatisticsGet
                0x000000009d000f90                TCPIP_STACK_NetMACRegisterStatisticsGet
                0x000000009d000fd8                TCPIP_STACK_ModuleConfigGet
                0x000000009d001040                TCPIP_STACK_NetConfigGet
                0x000000009d00113c                TCPIP_STACK_NetConfigSet
                0x000000009d0013d4                TCPIP_STACK_StringToMACId
                0x000000009d001470                TCPIP_STACK_NetHandleGet
                0x000000009d0014f0                TCPIP_STACK_MACIdToString
                0x000000009d001540                TCPIP_STACK_NetAddressBcast
                0x000000009d001570                TCPIP_STACK_NetIsUp
                0x000000009d00158c                TCPIP_STACK_DNSServiceSelect
                0x000000009d0015a0                TCPIP_STACK_AddressServiceSelect
                0x000000009d0015d0                TCPIP_STACK_AddressServiceCanStart
                0x000000009d0015ec                TCPIP_STACK_NetAddressSet
                0x000000009d0016e4                TCPIPStackAddressServiceIsRunning
                0x000000009d0016f0                TCPIP_STACK_DNSServiceCanStart
                0x000000009d001730                TCPIP_STACK_AddressServiceDefaultSet
                0x000000009d0019a0                TCPIP_STACK_AddressServiceEvent
                0x000000009d001a20                TCPIP_STACK_EventsPendingGet
                0x000000009d001a64                TCPIP_STACK_HandlerRegister
                0x000000009d001a6c                TCPIP_STACK_HandlerDeregister
                0x000000009d001a74                TCPIP_STACK_NetIxGet
                0x000000009d001a88                TCPIP_STACK_NetAddressGet
                0x000000009d001aa8                TCPIP_STACK_NetAddress
                0x000000009d001ad4                TCPIP_STACK_NetStaticIPv6AddressGet
                0x000000009d001adc                TCPIP_STACK_NetDefaultIPv6GatewayGet
                0x000000009d001ae4                TCPIPStackSetConfigAddress
                0x000000009d001b88                TCPIP_STACK_NetMaskGet
                0x000000009d001ba8                TCPIP_STACK_NetMask
                0x000000009d001be4                TCPIP_STACK_GatewayAddressSet
                0x000000009d001bfc                TCPIP_STACK_PrimaryDNSAddressSet
                0x000000009d001c14                TCPIP_STACK_SecondaryDNSAddressSet
                0x000000009d001c2c                TCPIP_STACK_AddressIsOfNetUp
                0x000000009d001c6c                TCPIP_STACK_NetIsBcastAddress
                0x000000009d001ca8                TCPIP_STACK_IsBcastAddress
                0x000000009d001d00                TCPIP_STACK_NetworkIsLinked
                0x000000009d001d28                TCPIP_STACK_NetIsLinked
                0x000000009d001d64                TCPIPStackHandleToNetLinked
                0x000000009d001d94                TCPIP_STACK_NetIsReady
                0x000000009d001dc8                TCPIPStackAnyNetLinked
                0x000000009d001e38                TCPIPStackAnyNetDirected
                0x000000009d001e9c                TCPIP_STACK_NetMACId
                0x000000009d001eb0                TCPIP_STACK_NetToMAC
                0x000000009d001ec4                TCPIP_STACK_NetUpMACAddressGet
                0x000000009d001ee4                TCPIP_STACK_NetAddressMac
                0x000000009d001f00                TCPIPStackSignalHandlerRegister
                0x000000009d001f84                TCPIPStackSignalHandlerSetParams
                0x000000009d001fd0                TCPIPStackSignalHandlerDeregister
                0x000000009d002000                TCPIPStackModuleSignalGet
                0x000000009d002080                TCPIPStackModuleSignalRequest
                0x000000009d002120                TCPIPStackModuleRxInsert
                0x000000009d0021c0                TCPIPStackModuleRxExtract
                0x000000009d002224                TCPIPStackModuleRxPurge
                0x000000009d002b44                TCPIP_STACK_Initialize
                0x000000009d002c08                TCPIP_STACK_Deinitialize
                0x000000009d002c48                TCPIP_STACK_NetUp
                0x000000009d002da0                TCPIP_STACK_NetDown
                0x000000009d002e08                TCPIP_STACK_Task
                0x000000009d003778                TCPIPStackInsertRxPacket
                0x000000009d00382c                TCPIPStackPacketTx
                0x000000009d00388c                TCPIP_STACK_MacTxPriGet
                0x000000009d0038a0                TCPIP_STACK_MacRxPriGet
                0x000000009d0038b4                TCPIP_STACK_VersionGet
                0x000000009d0038c0                TCPIP_STACK_VersionStrGet
                0x000000009d0038cc                TCPIP_MODULE_SignalFunctionRegister
                0x000000009d003940                TCPIP_MODULE_SignalFunctionDeregister
                0x000000009d003958                TCPIP_MODULE_SignalGet
                0x000000009d0039ac                TCPIP_MODULE_Deinitialize
                0x000000009d0039b4                TCPIP_MODULE_IsRunning
                0x000000009d0039bc                TCPIP_STACK_HeapHandleGet
                0x000000009d0039dc                TCPIP_STACK_HEAP_Size
                0x000000009d003a0c                TCPIP_STACK_HEAP_MaxSize
                0x000000009d003a3c                TCPIP_STACK_HEAP_FreeSize
                0x000000009d003a6c                TCPIP_STACK_HEAP_HighWatermark
                0x000000009d003a9c                TCPIP_STACK_HEAP_LastError
                0x000000009d003acc                TCPIPStackHeapConfig
                0x000000009d003ad8                TCPIP_STACK_NetGetType
                0x000000009d003ae0                TCPIP_STACK_PacketHandlerRegister
                0x000000009d003b64                TCPIP_STACK_PacketHandlerDeregister
                0x000000009d003bcc                TCPIP_SecCountGet
                0x000000009d003bd4                TCPIP_MsecCountGet
 .text          0x000000009d003bdc     0x2ce0 build/default/production/_ext/1033058136/udp.o
                0x000000009d0040e4                TCPIP_UDP_Task
                0x000000009d004960                TCPIP_UDP_Initialize
                0x000000009d004af4                TCPIP_UDP_OpenServerSkt
                0x000000009d004c38                TCPIP_UDP_ServerOpen
                0x000000009d004c54                TCPIP_UDP_OpenClientSkt
                0x000000009d004cbc                TCPIP_UDP_ClientOpen
                0x000000009d004cd8                TCPIP_UDP_BcastIPV4AddressSet
                0x000000009d004d80                TCPIP_UDP_IsConnected
                0x000000009d004dd8                TCPIP_UDP_Close
                0x000000009d004e24                TCPIP_UDP_Disconnect
                0x000000009d004f18                TCPIP_UDP_Deinitialize
                0x000000009d0050d8                TCPIP_UDP_SocketInfoGet
                0x000000009d0051f4                TCPIP_UDP_TxOffsetSet
                0x000000009d005284                TCPIP_UDP_TxPointerGet
                0x000000009d0052c4                TCPIP_UDP_PutIsReady
                0x000000009d005348                TCPIP_UDP_TxPutIsReady
                0x000000009d005364                TCPIP_UDP_ArrayPut
                0x000000009d005410                TCPIP_UDP_Put
                0x000000009d005434                TCPIP_UDP_StringPut
                0x000000009d005490                TCPIP_UDP_Flush
                0x000000009d0057b4                TCPIP_UDP_TxCountGet
                0x000000009d005804                TCPIP_UDP_GetIsReady
                0x000000009d005860                TCPIP_UDP_ArrayGet
                0x000000009d005a28                TCPIP_UDP_RxOffsetSet
                0x000000009d005aa4                TCPIP_UDP_Get
                0x000000009d005ac0                TCPIP_UDP_Discard
                0x000000009d005b00                TCPIP_UDP_SocketNetSet
                0x000000009d005b8c                TCPIP_UDP_SocketNetGet
                0x000000009d005bb0                TCPIP_UDP_SourceIPAddressSet
                0x000000009d005c30                TCPIP_UDP_Bind
                0x000000009d005dc4                TCPIP_UDP_OptionsSet
                0x000000009d006284                TCPIP_UDP_OptionsGet
                0x000000009d0064d0                TCPIP_UDP_DestinationIPAddressSet
                0x000000009d006568                TCPIP_UDP_RemoteBind
                0x000000009d0066b0                TCPIP_UDP_DestinationPortSet
                0x000000009d0066f8                TCPIP_UDP_SetSplitPayload
                0x000000009d006790                TCPIP_UDP_SignalHandlerRegister
                0x000000009d00682c                TCPIP_UDP_SignalHandlerDeregister
                0x000000009d0068a4                TCPIP_UDP_SocketsNumberGet
                0x000000009d0068ac                TCPIP_UDP_PacketHandlerRegister
                0x000000009d0068b4                TCPIP_UDP_PacketHandlerDeregister

.text           0x000000009d0068bc     0x5450
 .text          0x000000009d0068bc     0x2a60 build/default/production/_ext/1033058136/dhcp.o
                0x000000009d008960                TCPIP_DHCP_Task
                0x000000009d0089a8                TCPIP_DHCP_Initialize
                0x000000009d008bd8                TCPIP_DHCP_Deinitialize
                0x000000009d008c38                TCPIP_DHCP_Disable
                0x000000009d008cf0                TCPIP_DHCP_Enable
                0x000000009d008d20                TCPIP_DHCP_Renew
                0x000000009d008d50                TCPIP_DHCP_Request
                0x000000009d008d80                TCPIP_DHCP_IsEnabled
                0x000000009d008df0                TCPIP_DHCP_IsActive
                0x000000009d008e24                TCPIP_DHCP_IsBound
                0x000000009d008e94                TCPIP_DHCP_IsServerDetected
                0x000000009d008f04                TCPIP_DHCP_RequestTimeoutSet
                0x000000009d008fa4                TCPIP_DHCP_ConnectionHandler
                0x000000009d009088                TCPIP_DHCP_HandlerRegister
                0x000000009d0090e0                TCPIP_DHCP_HandlerRegisterEx
                0x000000009d009138                TCPIP_DHCP_HandlerDeRegister
                0x000000009d009174                TCPIP_DHCP_InfoGet
                0x000000009d009284                TCPIP_DHCP_HostNameCallbackRegister
 .text          0x000000009d00931c     0x29f0 build/default/production/_ext/444070925/drv_ethphy.o
                0x000000009d009660                DRV_ETHPHY_Open
                0x000000009d0097bc                DRV_ETHPHY_Reset
                0x000000009d00981c                DRV_ETHPHY_LinkStatusGet
                0x000000009d009888                DRV_ETHPHY_NegotiationResultGet
                0x000000009d0098f0                DRV_ETHPHY_NegotiationIsComplete
                0x000000009d009950                DRV_ETHPHY_RestartNegotiation
                0x000000009d0099ac                DRV_ETHPHY_Setup
                0x000000009d009ac8                DRV_ETHPHY_VendorDataSet
                0x000000009d009af8                DRV_ETHPHY_VendorDataGet
                0x000000009d009b3c                DRV_ETHPHY_HWConfigFlagsGet
                0x000000009d009b98                DRV_ETHPHY_PhyAddressGet
                0x000000009d009be0                DRV_ETHPHY_ClientOperationResult
                0x000000009d009c0c                DRV_ETHPHY_ClientStatus
                0x000000009d009c38                DRV_ETHPHY_Close
                0x000000009d009c90                DRV_ETHPHY_Tasks
                0x000000009d009cf4                DRV_ETHPHY_Status
                0x000000009d009d14                DRV_ETHPHY_Deinitialize
                0x000000009d009d38                DRV_ETHPHY_Reinitialize
                0x000000009d009d70                F_ETHPHY_AssertCond
                0x000000009d009dac                DRV_ETHPHY_Initialize
                0x000000009d009ff4                DRV_ETHPHY_VendorSMIReadStart
                0x000000009d00a188                DRV_ETHPHY_VendorSMIWriteStart
                0x000000009d00a1a4                DRV_ETHPHY_VendorSMIWriteWaitComplete
                0x000000009d00a294                DRV_ETHPHY_VendorSMIOperationIsComplete
                0x000000009d00a2c4                DRV_ETHPHY_VendorSMIReadResultGet
                0x000000009d00a398                F_ETHPHY_HandleToInst
                0x000000009d00a3b0                F_ETHPHY_SetOperDoneResult
                0x000000009d00bbd8                DRV_ETHPHY_ClientOperationAbort
                0x000000009d00bcf0                F_ETHPHY_SetOperStart

.text           0x000000009d00bd0c     0x4974
 .text          0x000000009d00bd0c     0x2508 build/default/production/_ext/1033058136/tcpip_helpers.o
                0x000000009d00bd60                TCPIP_Helper_StringToIPAddress
                0x000000009d00bf3c                TCPIP_Helper_StringToIPv6Address
                0x000000009d00c4b8                TCPIP_Helper_IPv6AddressToString
                0x000000009d00c5f4                TCPIP_Helper_IsPrivateAddress
                0x000000009d00c624                TCPIP_Helper_StringToMACAddress
                0x000000009d00c74c                TCPIP_Helper_StringToPowerMode
                0x000000009d00c7d0                TCPIP_Helper_PowerModeToString
                0x000000009d00c7f8                TCPIP_Helper_Base64Decode
                0x000000009d00c98c                TCPIP_Helper_Base64Encode
                0x000000009d00cb4c                TCPIP_Helper_ChecksumFold
                0x000000009d00cb68                TCPIP_Helper_PacketChecksum
                0x000000009d00cc78                TCPIP_Helper_PacketCopy
                0x000000009d00cdc4                TCPIP_Helper_FormatNetBIOSName
                0x000000009d00ce70                TCPIP_Helper_FindCommonPrefix
                0x000000009d00cf08                TCPIP_Helper_SingleListInitialize
                0x000000009d00cf18                TCPIP_Helper_SingleListHeadAdd
                0x000000009d00cf40                TCPIP_Helper_SingleListTailAdd
                0x000000009d00cf70                TCPIP_Helper_SingleListMidAdd
                0x000000009d00cf8c                TCPIP_Helper_SingleListAdd
                0x000000009d00cfe0                TCPIP_Helper_SingleListHeadRemove
                0x000000009d00d01c                TCPIP_Helper_SingleListNextRemove
                0x000000009d00d074                TCPIP_Helper_SingleListNodeRemove
                0x000000009d00d10c                TCPIP_Helper_SingleListFind
                0x000000009d00d140                TCPIP_Helper_SingleListAppend
                0x000000009d00d18c                TCPIP_Helper_ProtSglListInitialize
                0x000000009d00d1d8                TCPIP_Helper_ProtSglListDeinitialize
                0x000000009d00d248                TCPIP_Helper_ProtSglListHeadAdd
                0x000000009d00d2b4                TCPIP_Helper_ProtSglListTailAdd
                0x000000009d00d320                TCPIP_Helper_ProtSglListMidAdd
                0x000000009d00d3a4                TCPIP_Helper_ProtSglListAdd
                0x000000009d00d420                TCPIP_Helper_ProtSglListHeadRemove
                0x000000009d00d47c                TCPIP_Helper_ProtSglListNextRemove
                0x000000009d00d4e8                TCPIP_Helper_ProtSglListNodeRemove
                0x000000009d00d554                TCPIP_Helper_ProtSglListAppend
                0x000000009d00d5c0                TCPIP_Helper_ProtSglListRemoveAll
                0x000000009d00d620                TCPIP_Helper_ProtSglListLock
                0x000000009d00d658                TCPIP_Helper_ProtSglListUnlock
                0x000000009d00d690                TCPIP_Helper_DoubleListInitialize
                0x000000009d00d6a0                TCPIP_Helper_DoubleListHeadAdd
                0x000000009d00d6e0                TCPIP_Helper_DoubleListTailAdd
                0x000000009d00d720                TCPIP_Helper_DoubleListMidAdd
                0x000000009d00d748                TCPIP_Helper_DoubleListAdd
                0x000000009d00d794                TCPIP_Helper_DoubleListHeadRemove
                0x000000009d00d7d4                TCPIP_Helper_DoubleListTailRemove
                0x000000009d00d814                TCPIP_Helper_DoubleListMidRemove
                0x000000009d00d838                TCPIP_Helper_DoubleListNodeRemove
                0x000000009d00d888                TCPIP_Helper_DoubleListFind
                0x000000009d00d8bc                TCPIP_Helper_ProtDblListInitialize
                0x000000009d00d908                TCPIP_Helper_ProtDblListDeinitialize
                0x000000009d00d978                TCPIP_Helper_ProtDblListHeadAdd
                0x000000009d00d9e4                TCPIP_Helper_ProtDblListTailAdd
                0x000000009d00da50                TCPIP_Helper_ProtDblListMidAdd
                0x000000009d00dacc                TCPIP_Helper_ProtDblListAdd
                0x000000009d00db48                TCPIP_Helper_ProtDblListHeadRemove
                0x000000009d00dba4                TCPIP_Helper_ProtDblListTailRemove
                0x000000009d00dc00                TCPIP_Helper_ProtDblListMidRemove
                0x000000009d00dc6c                TCPIP_Helper_ProtDblListNodeRemove
                0x000000009d00dcd8                TCPIP_Helper_ProtDblListRemoveAll
                0x000000009d00dd38                TCPIP_Helper_ProtDblListLock
                0x000000009d00dd68                TCPIP_Helper_ProtDblListUnlock
                0x000000009d00dd98                TCPIP_Helper_TCPSecurePortGet
                0x000000009d00ddc8                TCPIP_Helper_UDPSecurePortGet
                0x000000009d00ddf8                TCPIP_Helper_SecurePortGetByIndex
                0x000000009d00de4c                TCPIP_Helper_SecurePortSet
                0x000000009d00def8                FC_sprintf
                0x000000009d00df80                TCPIP_Helper_IPAddressToString
                0x000000009d00e01c                TCPIP_Helper_MACAddressToString
                0x000000009d00e098                FC_Sort
                0x000000009d00e0b4                FC_Str2UL
                0x000000009d00e164                FC_Str2L
 .text          0x000000009d00e214     0x246c build/default/production/_ext/404212886/FreeRTOS_tasks.o
                0x000000009d00e364                uxTaskPriorityGetFromISR
                0x000000009d00e3a0                vTaskEndScheduler
                0x000000009d00e3d4                vTaskSuspendAll
                0x000000009d00e3e8                xTaskGetTickCount
                0x000000009d00e3f4                xTaskGetTickCountFromISR
                0x000000009d00e400                uxTaskGetNumberOfTasks
                0x000000009d00e40c                pcTaskGetName
                0x000000009d00e41c                xTaskIncrementTick
                0x000000009d00e634                vTaskSwitchContext
                0x000000009d00e750                vTaskPlaceOnEventList
                0x000000009d00e788                vTaskPlaceOnUnorderedEventList
                0x000000009d00e7fc                xTaskRemoveFromEventList
                0x000000009d00e964                vTaskRemoveFromUnorderedEventList
                0x000000009d00ea94                vTaskInternalSetTimeOutState
                0x000000009d00eaa8                vTaskMissedYield
                0x000000009d00eab8                xTaskGetCurrentTaskHandle
                0x000000009d00eac4                xTaskPriorityInherit
                0x000000009d00ec30                xTaskPriorityDisinherit
                0x000000009d00ed48                vTaskPriorityDisinheritAfterTimeout
                0x000000009d00ee8c                vTaskEnterCritical
                0x000000009d00eed4                vTaskExitCritical
                0x000000009d00ef34                xTaskCreate
                0x000000009d00f244                vTaskStartScheduler
                0x000000009d00f2c4                vTaskDelete
                0x000000009d00f3f4                uxTaskPriorityGet
                0x000000009d00f42c                vTaskPrioritySet
                0x000000009d00f5cc                vTaskSuspend
                0x000000009d00f708                vTaskResume
                0x000000009d00f8cc                xTaskResumeAll
                0x000000009d00fab4                xTaskDelayUntil
                0x000000009d00fb78                vTaskDelay
                0x000000009d00fbcc                xTaskCatchUpTicks
                0x000000009d00fc14                vTaskSetTimeOutState
                0x000000009d00fc4c                xTaskCheckForTimeOut
                0x000000009d00fcf8                uxTaskResetEventItemValue
                0x000000009d00fd1c                pvTaskIncrementMutexHeldCount
                0x000000009d00fd44                ulTaskGenericNotifyTake
                0x000000009d00fe4c                xTaskGenericNotifyWait
                0x000000009d00ff8c                xTaskGenericNotify
                0x000000009d0101a4                xTaskGenericNotifyFromISR
                0x000000009d010408                vTaskGenericNotifyGiveFromISR
                0x000000009d0105a0                xTaskGenericNotifyStateClear
                0x000000009d010614                ulTaskGenericNotifyValueClear

.text           0x000000009d010680     0x3c68
 .text          0x000000009d010680     0x2084 build/default/production/_ext/732082881/drv_ethmac.o
                0x000000009d010680                DRV_ETHMAC_PIC32MACReinitialize
                0x000000009d010688                DRV_ETHMAC_PIC32MACStatus
                0x000000009d0106c4                DRV_ETHMAC_PIC32MACConfigGet
                0x000000009d01075c                DRV_ETHMAC_PIC32MACOpen
                0x000000009d0107a4                DRV_ETHMAC_PIC32MACClose
                0x000000009d0107e4                DRV_ETHMAC_PIC32MACLinkCheck
                0x000000009d010874                DRV_ETHMAC_PIC32MACPowerMode
                0x000000009d010948                DRV_ETHMAC_PIC32MACEventPendingGet
                0x000000009d010e84                DRV_ETHMAC_PIC32MACInitialize
                0x000000009d01134c                DRV_ETHMAC_PIC32MACDeinitialize
                0x000000009d0116d4                DRV_ETHMAC_PIC32MACTasks
                0x000000009d011a28                DRV_ETHMAC_PIC32MACPacketTx
                0x000000009d011ac8                DRV_ETHMAC_PIC32MACPacketRx
                0x000000009d011d34                DRV_ETHMAC_PIC32MACRxFilterHashTableEntrySet
                0x000000009d011e80                DRV_ETHMAC_PIC32MACStatisticsGet
                0x000000009d011ffc                DRV_ETHMAC_PIC32MACRegisterStatisticsGet
                0x000000009d0121b0                DRV_ETHMAC_PIC32MACParametersGet
                0x000000009d012234                DRV_ETHMAC_PIC32MACEventMaskSet
                0x000000009d0123bc                DRV_ETHMAC_PIC32MACEventAcknowledge
                0x000000009d012498                DRV_ETHMAC_PIC32MACProcess
                0x000000009d012598                DRV_ETHMAC_Tasks_ISR
                0x000000009d0126e8                ETHERNET_InterruptHandler
 .text          0x000000009d012704     0x1be4 build/default/production/_ext/1033058136/tcpip_commands.o
                0x000000009d0141f8                TCPIP_Commands_Initialize
                0x000000009d0142a4                TCPIP_Commands_Deinitialize
                0x000000009d0142c8                TCPIP_COMMAND_Task

.text           0x000000009d0142e8     0x33d4
 .text          0x000000009d0142e8     0x1b78 build/default/production/_ext/1033058136/arp.o
                0x000000009d0142e8                TCPIP_ARP_HashKeyCompare
                0x000000009d014304                TCPIP_ARP_HashKeyCopy
                0x000000009d014ab0                TCPIP_ARP_Task
                0x000000009d014f04                TCPIP_ARP_HashEntryDelete
                0x000000009d014f68                TCPIP_ARP_HashKeyHash
                0x000000009d014fa4                TCPIP_ARP_CallbacksRegister
                0x000000009d014fac                TCPIP_ARP_CallbacksDeregister
                0x000000009d014fb4                TCPIP_ARP_Initialize
                0x000000009d01532c                TCPIP_ARP_Deinitialize
                0x000000009d0153c8                TCPIP_ARP_HandlerRegister
                0x000000009d015420                TCPIP_ARP_HandlerDeRegister
                0x000000009d015460                TCPIP_ARP_Resolve
                0x000000009d0154d0                TCPIP_ARP_Probe
                0x000000009d015568                TCPIP_ARP_IsResolved
                0x000000009d015678                TCPIP_ARP_EntrySet
                0x000000009d015818                TCPIP_ARP_EntryGet
                0x000000009d01589c                TCPIP_ARP_EntryRemove
                0x000000009d01595c                TCPIP_ARP_EntryRemoveNet
                0x000000009d015b00                TCPIP_ARP_EntryRemoveAll
                0x000000009d015be0                TCPIP_ARP_EntryQuery
                0x000000009d015cec                TCPIP_ARP_CacheEntriesNoGet
                0x000000009d015dc0                TCPIP_ARP_CacheThresholdSet
 .text          0x000000009d015e60     0x185c build/default/production/_ext/1033058136/ipv4.o
                0x000000009d01611c                TCPIP_IPV4_Task
                0x000000009d016478                TCPIP_IPv4_ArpStatGet
                0x000000009d016480                TCPIP_IPv4_ForwardStatGet
                0x000000009d016488                TCPIP_IPV4_Initialize
                0x000000009d016668                TCPIP_IPV4_Deinitialize
                0x000000009d0167d4                TCPIP_IPV4_ForwadTableSizeGet
                0x000000009d0167dc                TCPIP_IPV4_ForwadTableEntryGet
                0x000000009d0167e4                TCPIP_IPV4_FwdTableAddBinary
                0x000000009d0167ec                TCPIP_IPV4_FwdTableRemoveBinary
                0x000000009d0167f4                TCPIP_IPV4_FwdTableRemoveAll
                0x000000009d0167fc                TCPIP_IPV4_FwdTableAddAscii
                0x000000009d016804                TCPIP_IPV4_FwdTableRemoveAscii
                0x000000009d01680c                TCPIP_IPV4_SelectDestInterface
                0x000000009d0168b8                TCPIP_IPV4_SelectSourceInterface
                0x000000009d016960                TCPIP_IPV4_PktTx
                0x000000009d016d08                TCPIP_IPV4_PacketTransmit
                0x000000009d016d28                TCPIP_IPV4_PacketFormatTx
                0x000000009d016fa0                IPv4RegisterFilter
                0x000000009d017038                Ipv4DeRegisterFilter
                0x000000009d017078                Ipv4FilterSetActive
                0x000000009d017134                TCPIP_IPV4_PacketGetDestAddress
                0x000000009d017140                TCPIP_IPV4_PacketGetSourceAddress
                0x000000009d01714c                TCPIP_IPV4_PacketFilterSet
                0x000000009d017184                TCPIP_IPV4_PacketFilterClear
                0x000000009d0171b0                TCPIP_IPV4_MacPacketSwitchTxToRx
                0x000000009d0172f4                TCPIP_IPV4_MacPacketTransmit
                0x000000009d0173a8                TCPIP_IPV4_PacketAlloc
                0x000000009d017464                TCPIP_IPV4_PacketOptionFieldSet
                0x000000009d0174a4                TCPIP_IPV4_PacketOptionListGet
                0x000000009d01751c                TCPIP_IPV4_PacketOptionGet
                0x000000009d0175d0                TCPIP_IPV4_MaxDatagramDataSizeGet
                0x000000009d0175fc                TCPIP_IPV4_IsFragmentationEnabled
                0x000000009d017604                TCPIP_IPV4_PacketHandlerRegister
                0x000000009d01760c                TCPIP_IPV4_PacketHandlerDeregister
                0x000000009d017614                TCPIP_IPV4_TxPriHandlerRegister
                0x000000009d017668                TCPIP_IPV4_TxPriHandlerDeregister

.text           0x000000009d0176bc     0x2a3c
 .text          0x000000009d0176bc     0x15b4 build/default/production/_ext/1376093119/sys_command.o
                0x000000009d017fd0                SYS_CMD_Initialize
                0x000000009d01800c                SYS_CMD_READY_TO_READ
                0x000000009d018014                SYS_CMD_ADDGRP
                0x000000009d018144                SYS_CMD_MESSAGE
                0x000000009d018164                SYS_CMD_PRINT
                0x000000009d018220                SYS_CMDIO_GET_HANDLE
                0x000000009d01824c                SYS_CMDIO_ADD
                0x000000009d01832c                SYS_CMD_Tasks
                0x000000009d018a98                SYS_CMD_DELETE
                0x000000009d018b28                SYS_CMD_CallbackRegister
                0x000000009d018bd4                SYS_CMD_CallbackDeregister
 .text          0x000000009d018c70     0x1488 build/default/production/_ext/438849557/drv_miim.o
                0x000000009d018c70                DRV_MIIM_Reinitialize
                0x000000009d018c78                DRV_MIIM_Status
                0x000000009d018e54                DRV_MIIM_ClientStatus
                0x000000009d018e80                DRV_MIIM_RegisterCallback
                0x000000009d018ef8                DRV_MIIM_DeregisterCallback
                0x000000009d018f50                DRV_MIIM_Open
                0x000000009d019024                DRV_MIIM_Setup
                0x000000009d0194dc                Helper_SingleListInitialize
                0x000000009d0194ec                Helper_SingleListTailAdd
                0x000000009d01951c                DRV_MIIM_Initialize
                0x000000009d019620                Helper_SingleListHeadRemove
                0x000000009d0197cc                DRV_MIIM_Read
                0x000000009d0197fc                DRV_MIIM_Write
                0x000000009d01982c                DRV_MIIM_Scan
                0x000000009d01985c                DRV_MIIM_ReadExt
                0x000000009d01988c                DRV_MIIM_WriteExt
                0x000000009d0198bc                Helper_SingleListNodeRemove
                0x000000009d019c08                DRV_MIIM_Deinitialize
                0x000000009d019c74                DRV_MIIM_Close
                0x000000009d019cb0                DRV_MIIM_Tasks
                0x000000009d019f2c                DRV_MIIM_OperationResult
                0x000000009d01a060                DRV_MIIM_OperationAbort

.text           0x000000009d01a0f8     0x2804
 .text          0x000000009d01a0f8     0x1468 build/default/production/_ext/732082881/drv_ethmac_lib.o
                0x000000009d01a580                DRV_ETHMAC_LibInit
                0x000000009d01a678                DRV_ETHMAC_LibClose
                0x000000009d01a708                DRV_ETHMAC_LibMACOpen
                0x000000009d01a7fc                DRV_ETHMAC_LibDescriptorsPoolAdd
                0x000000009d01a91c                DRV_ETHMAC_LibDescriptorsPoolRemove
                0x000000009d01a9d0                DRV_ETHMAC_LibDescriptorsPoolCleanUp
                0x000000009d01aa64                DRV_ETHMAC_LibDescriptorGetBuffer
                0x000000009d01aa98                DRV_ETHMAC_LibRxBuffersAppend
                0x000000009d01acb4                DRV_ETHMAC_LibTxSendBuffer
                0x000000009d01ad70                DRV_ETHMAC_LibTxSendPacket
                0x000000009d01aeb8                DRV_ETHMAC_LibTxGetBufferStatus
                0x000000009d01af2c                DRV_ETHMAC_LibRxAcknowledgeBuffer
                0x000000009d01b0a0                DRV_ETHMAC_LibTxAcknowledgeBuffer
                0x000000009d01b234                DRV_ETHMAC_LibRxGetPacket
                0x000000009d01b3a0                DRV_ETHMAC_LibRxGetBuffer
                0x000000009d01b3dc                DRV_ETHMAC_LibRxPendingBuffersGet
                0x000000009d01b420                DRV_ETHMAC_LibRxScheduledBuffersGet
                0x000000009d01b464                DRV_ETHMAC_LibTxPendingBuffersGet
                0x000000009d01b4a8                DRV_ETHMAC_SingleListHeadRemove
                0x000000009d01b4e4                DRV_ETHMAC_SingleListTailAdd
                0x000000009d01b514                DRV_ETHMAC_SingleListAppend
 .text          0x000000009d01b560     0x139c build/default/production/_ext/101884895/sys_time.o
                0x000000009d01bbd8                SYS_TIME_Initialize
                0x000000009d01bd6c                SYS_TIME_Deinitialize
                0x000000009d01bdd8                SYS_TIME_Status
                0x000000009d01bdf8                SYS_TIME_FrequencyGet
                0x000000009d01be04                SYS_TIME_Counter64Get
                0x000000009d01be7c                SYS_TIME_CounterGet
                0x000000009d01be98                SYS_TIME_CounterSet
                0x000000009d01bed8                SYS_TIME_CountToUS
                0x000000009d01bf5c                SYS_TIME_CountToMS
                0x000000009d01bfc0                SYS_TIME_USToCount
                0x000000009d01bff8                SYS_TIME_MSToCount
                0x000000009d01c02c                SYS_TIME_TimerCreate
                0x000000009d01c05c                SYS_TIME_TimerReload
                0x000000009d01c174                SYS_TIME_TimerDestroy
                0x000000009d01c3c0                SYS_TIME_TimerStart
                0x000000009d01c46c                SYS_TIME_TimerStop
                0x000000009d01c4e4                SYS_TIME_TimerCounterGet
                0x000000009d01c5f0                SYS_TIME_TimerPeriodHasExpired
                0x000000009d01c64c                SYS_TIME_DelayUS
                0x000000009d01c6e0                SYS_TIME_DelayMS
                0x000000009d01c770                SYS_TIME_DelayIsComplete
                0x000000009d01c7b0                SYS_TIME_CallbackRegisterUS
                0x000000009d01c858                SYS_TIME_CallbackRegisterMS

.text           0x000000009d01c8fc     0x1030
 .text          0x000000009d01c8fc     0x1030 build/default/production/_ext/404212886/queue.o
                0x000000009d01cb84                xQueueGenericReset
                0x000000009d01cc74                xQueueGenericCreate
                0x000000009d01ccfc                xQueueCreateCountingSemaphore
                0x000000009d01cd48                xQueueGenericSend
                0x000000009d01cf38                xQueueCreateMutex
                0x000000009d01cf90                xQueueGenericSendFromISR
                0x000000009d01d094                xQueueGiveFromISR
                0x000000009d01d16c                xQueueReceive
                0x000000009d01d32c                xQueueSemaphoreTake
                0x000000009d01d554                xQueuePeek
                0x000000009d01d70c                xQueueReceiveFromISR
                0x000000009d01d7fc                xQueuePeekFromISR
                0x000000009d01d870                uxQueueMessagesWaiting
                0x000000009d01d8a4                uxQueueSpacesAvailable
                0x000000009d01d8e4                uxQueueMessagesWaitingFromISR
                0x000000009d01d8f0                vQueueDelete
                0x000000009d01d90c                xQueueIsQueueEmptyFromISR
                0x000000009d01d918                xQueueIsQueueFullFromISR

.rodata.str1.4  0x000000009d01d92c      0xed4
 .rodata.str1.4
                0x000000009d01d92c      0xed4 build/default/production/_ext/1033058136/tcpip_commands.o

.text           0x000000009d01e800      0xb4c
 .text          0x000000009d01e800      0xb4c build/default/production/_ext/1865657120/plib_uart2.o
                0x000000009d01e838                UART2_Initialize
                0x000000009d01e918                UART2_SerialSetup
                0x000000009d01ea5c                UART2_Read
                0x000000009d01eb18                UART2_ReadCountGet
                0x000000009d01eb50                UART2_ReadFreeBufferCountGet
                0x000000009d01eb84                UART2_ReadBufferSizeGet
                0x000000009d01eb98                UART2_ReadNotificationEnable
                0x000000009d01ebb4                UART2_ReadThresholdSet
                0x000000009d01ebcc                UART2_ReadCallbackRegister
                0x000000009d01ebe4                UART2_WriteCountGet
                0x000000009d01ec00                UART2_Write
                0x000000009d01ed78                UART2_WriteFreeBufferCountGet
                0x000000009d01edac                UART2_WriteBufferSizeGet
                0x000000009d01edc0                UART2_TransmitComplete
                0x000000009d01edd0                UART2_WriteNotificationEnable
                0x000000009d01edec                UART2_WriteThresholdSet
                0x000000009d01ee08                UART2_WriteCallbackRegister
                0x000000009d01ee20                UART2_ErrorGet
                0x000000009d01ee38                UART2_AutoBaudQuery
                0x000000009d01ee48                UART2_AutoBaudSet
                0x000000009d01f2b4                UART_2_InterruptHandler

.text.__fmt_fp  0x000000009d01f34c      0x8b4
 .text.__fmt_fp
                0x000000009d01f34c      0x8b4 /opt/microchip/xc32/v4.60/bin/bin/../../lib/gcc/pic32mx/8.3.1/../../../../pic32mx/lib/libc-musl.a(__fmt_fp.o)
                0x000000009d01f34c                __fmt_f_needed
                0x000000009d01f34c                __fmt_fp

.text.__fmt_a   0x000000009d01fc00      0x864
 .text.__fmt_a  0x000000009d01fc00      0x864 /opt/microchip/xc32/v4.60/bin/bin/../../lib/gcc/pic32mx/8.3.1/../../../../pic32mx/lib/libc-musl.a(__fmt_a.o)
                0x000000009d01fc00                __fmt_a_needed
                0x000000009d01fc00                __fmt_a

.text.fma       0x000000009d020464      0x768
 .text.fma      0x000000009d020464      0x768 /opt/microchip/xc32/v4.60/bin/bin/../../lib/gcc/pic32mx/8.3.1/../../../../pic32mx/lib/libm-musl.a(fma.o)
                0x000000009d020464                fma

.text.__intscan
                0x000000009d020bcc      0x700
 .text.__intscan
                0x000000009d020bcc      0x700 /opt/microchip/xc32/v4.60/bin/bin/../../lib/gcc/pic32mx/8.3.1/../../../../pic32mx/lib/libc-musl.a(intscan.o)
                0x000000009d020bcc                __intscan

.text           0x000000009d0212cc      0x63c
 .text          0x000000009d0212cc      0x63c build/default/production/_ext/1033058136/tcpip_heap_internal.o
                0x000000009d02178c                TCPIP_HEAP_CreateInternal

.text.__printf_core
                0x000000009d021908      0x5a4
 .text.__printf_core
                0x000000009d021908      0x5a4 /opt/microchip/xc32/v4.60/bin/bin/../../lib/gcc/pic32mx/8.3.1/../../../../pic32mx/lib/libc-musl.a(__printf_core.o)
                0x000000009d021908                __printf_core

.text           0x000000009d021eac      0x5a0
 .text          0x000000009d021eac      0x5a0 build/default/production/_ext/1360937237/ethernet.o
                0x000000009d021eac                ethernet_packet_handler
                0x000000009d021eb4                ethernet_tx_packet_ack_callback
                0x000000009d021ebc                ethernet_register_packet_handler
                0x000000009d021f54                ethernet_task
                0x000000009d022150                ethernet_deregister_packet_handler
                0x000000009d0221d4                ethernet_init
                0x000000009d022220                ethernet_hasIP
                0x000000009d022228                ethernet_linkUp
                0x000000009d022230                ethernet_send
                0x000000009d0223a8                ethernet_send_to
                0x000000009d02243c                ethernet_getMACAddress
                0x000000009d022444                ethernet_getIPAddress

.rodata.str1.4  0x000000009d02244c      0x528
 .rodata.str1.4
                0x000000009d02244c      0x528 build/default/production/_ext/1033058136/tcpip_manager.o

.text           0x000000009d022974      0xa40
 .text          0x000000009d022974      0x528 build/default/production/_ext/1832805299/sys_console.o
                0x000000009d022974                SYS_CONSOLE_Initialize
                0x000000009d022a14                SYS_CONSOLE_Status
                0x000000009d022aa8                SYS_CONSOLE_HandleGet
                0x000000009d022ab4                SYS_CONSOLE_DeviceGet
                0x000000009d022ad8                SYS_CONSOLE_Tasks
                0x000000009d022b34                SYS_CONSOLE_Read
                0x000000009d022b88                SYS_CONSOLE_ReadFreeBufferCountGet
                0x000000009d022bdc                SYS_CONSOLE_ReadCountGet
                0x000000009d022c30                SYS_CONSOLE_Write
                0x000000009d022c84                SYS_CONSOLE_WriteFreeBufferCountGet
                0x000000009d022cd8                SYS_CONSOLE_WriteCountGet
                0x000000009d022d2c                SYS_CONSOLE_Print
                0x000000009d022ddc                SYS_CONSOLE_Message
                0x000000009d022e48                SYS_CONSOLE_Flush
 .text          0x000000009d022e9c      0x518 build/default/production/_ext/1033058136/tcpip_packet.o
                0x000000009d022e9c                TCPIP_PKT_Initialize
                0x000000009d022ef0                TCPIP_PKT_Deinitialize
                0x000000009d022ef8                TCPIP_PKT_SegmentAppend
                0x000000009d022f20                TCPIP_PKT_PacketMACFormat
                0x000000009d022fc4                TCPIP_PKT_DataSegmentGet
                0x000000009d023064                TCPIP_PKT_PayloadLen
                0x000000009d023090                TCPIP_PKT_GapDcptOffset
                0x000000009d023098                TCPIP_PKT_GapDcptSize
                0x000000009d0230a0                F_TCPIP_PKT_PacketAlloc
                0x000000009d023198                F_TCPIP_PKT_SocketAlloc
                0x000000009d023204                F_TCPIP_PKT_PacketFree
                0x000000009d023284                F_TCPIP_PKT_SegmentAlloc
                0x000000009d023314                F_TCPIP_PKT_SegmentFree
                0x000000009d023350                F_TCPIP_PKT_PacketAcknowledge

.dinit          0x000000009d0233b4      0x4e0
 .dinit         0x000000009d0233b4      0x4e0 data_init

.text.dp32mul   0x000000009d023894      0x4b8
 .text.dp32mul  0x000000009d023894      0x4b8 /opt/microchip/xc32/v4.60/bin/bin/../../lib/gcc/pic32mx/8.3.1/../../../../pic32mx/lib/libm.a(dp32div.o)
                0x000000009d023894                __divdf3
                0x000000009d023894                dpdiv

.text           0x000000009d023d4c      0x89c
 .text          0x000000009d023d4c      0x454 build/default/production/_ext/951553248/port_asm.o
                0x000000009d023d4c                vPortTickInterruptHandler
                0x000000009d023ef8                vPortStartFirstTask
                0x000000009d023fc0                vPortYieldISR
 .text          0x000000009d0241a0      0x448 build/default/production/_ext/732082881/drv_eth_pic32_lib.o
                0x000000009d0241a0                DRV_ETH_RxBufferCountDecrement
                0x000000009d0241b0                DRV_ETH_MIIResetEnable
                0x000000009d0241c0                DRV_ETH_MIIResetDisable
                0x000000009d0241d0                DRV_ETH_MaxFrameLengthSet
                0x000000009d0241d8                DRV_ETH_Disable
                0x000000009d0241e8                DRV_ETH_Enable
                0x000000009d0241f8                DRV_ETH_TxRTSDisable
                0x000000009d024208                DRV_ETH_TxRTSEnable
                0x000000009d024218                DRV_ETH_RxDisable
                0x000000009d024228                DRV_ETH_RxEnable
                0x000000009d024238                DRV_ETH_EthernetIsBusy
                0x000000009d024244                DRV_ETH_RxPacketCountGet
                0x000000009d02424c                DRV_ETH_TransmitIsBusy
                0x000000009d024258                DRV_ETH_ReceiveIsBusy
                0x000000009d024264                DRV_ETH_TxPacketDescAddrSet
                0x000000009d024278                DRV_ETH_TxPacketDescAddrGet
                0x000000009d024280                DRV_ETH_RxPacketDescAddrSet
                0x000000009d024294                DRV_ETH_RxPacketDescAddrGet
                0x000000009d02429c                DRV_ETH_BackToBackIPGSet
                0x000000009d0242b4                DRV_ETH_NonBackToBackIPG1Set
                0x000000009d0242d0                DRV_ETH_NonBackToBackIPG2Set
                0x000000009d0242e8                DRV_ETH_CollisionWindowSet
                0x000000009d0242f8                DRV_ETH_ReTxMaxSet
                0x000000009d024308                DRV_ETH_RMIIResetEnable
                0x000000009d024318                DRV_ETH_RMIIResetDisable
                0x000000009d024328                DRV_ETH_RMIISpeedSet
                0x000000009d024338                DRV_ETH_RxFiltersClr
                0x000000009d024348                DRV_ETH_RxFiltersSet
                0x000000009d024358                DRV_ETH_PauseTimerSet
                0x000000009d024368                DRV_ETH_RxFullWmarkSet
                0x000000009d024370                DRV_ETH_RxEmptyWmarkSet
                0x000000009d024378                DRV_ETH_TxPauseEnable
                0x000000009d024388                DRV_ETH_RxPauseEnable
                0x000000009d024398                DRV_ETH_AutoFlowControlEnable
                0x000000009d0243a8                DRV_ETH_RxFiltersHTSet
                0x000000009d0243b8                DRV_ETH_RxSetBufferSize
                0x000000009d0243e8                DRV_ETH_MACSetAddress
                0x000000009d02441c                DRV_ETH_MACGetAddress
                0x000000009d024450                DRV_ETH_FramesTxdOkCountGet
                0x000000009d024458                DRV_ETH_FramesRxdOkCountGet
                0x000000009d024460                DRV_ETH_RxOverflowCountGet
                0x000000009d024468                DRV_ETH_FCSErrorCountGet
                0x000000009d024470                DRV_ETH_AlignErrorCountGet
                0x000000009d024478                DRV_ETH_SingleCollisionCountGet
                0x000000009d024480                DRV_ETH_MultipleCollisionCountGet
                0x000000009d024488                DRV_ETH_EventsClr
                0x000000009d024494                DRV_ETH_EventsEnableSet
                0x000000009d0244a0                DRV_ETH_EventsEnableClr
                0x000000009d0244ac                DRV_ETH_EventsGet
                0x000000009d0244b4                DRV_ETH_EventsClear
                0x000000009d0244c0                DRV_ETH_IsEnabled
                0x000000009d0244cc                DRV_ETH_MIIMNoPreEnable
                0x000000009d0244dc                DRV_ETH_MIIMNoPreDisable
                0x000000009d0244ec                DRV_ETH_MIIMScanIncrEnable
                0x000000009d0244fc                DRV_ETH_MIIMScanIncrDisable
                0x000000009d02450c                DRV_ETH_MIIMIsBusy
                0x000000009d024518                DRV_ETH_PHYAddressSet
                0x000000009d024528                DRV_ETH_RegisterAddressSet
                0x000000009d024538                DRV_ETH_ClearDataValid
                0x000000009d024548                DRV_ETH_MIIMScanModeEnable
                0x000000009d024558                DRV_ETH_MIIMScanModeDisable
                0x000000009d024568                DRV_ETH_MIIMWriteDataSet
                0x000000009d024578                DRV_ETH_MIIMWriteStart
                0x000000009d024588                DRV_ETH_MIIMReadStart
                0x000000009d0245a4                DRV_ETH_MIIMReadDataGet
                0x000000009d0245ac                DRV_ETH_DataNotValid
                0x000000009d0245b8                DRV_ETH_MIIMResetEnable
                0x000000009d0245c8                DRV_ETH_MIIMResetDisable
                0x000000009d0245d8                DRV_ETH_MIIMClockSet

.text.dp32subadd
                0x000000009d0245e8      0x430
 .text.dp32subadd
                0x000000009d0245e8      0x430 /opt/microchip/xc32/v4.60/bin/bin/../../lib/gcc/pic32mx/8.3.1/../../../../pic32mx/lib/libm.a(dp32subadd.o)
                0x000000009d0245e8                dpsub
                0x000000009d0245e8                __subdf3
                0x000000009d0245f0                dpadd
                0x000000009d0245f0                __adddf3

.text           0x000000009d024a18      0x818
 .text          0x000000009d024a18      0x410 build/default/production/_ext/1033058136/oahash.o
                0x000000009d024b30                TCPIP_OAHASH_Initialize
                0x000000009d024b6c                TCPIP_OAHASH_EntryLookup
                0x000000009d024c48                TCPIP_OAHASH_EntryLookupOrInsert
                0x000000009d024d14                TCPIP_OAHASH_EntryRemove
                0x000000009d024d44                TCPIP_OAHASH_EntriesRemoveAll
                0x000000009d024da0                TCPIP_OAHASH_EntryGet
                0x000000009d024dc8                TCPIP_OAHASH_EntryGetIndex
 .text          0x000000009d024e28      0x408 build/default/production/_ext/1665200909/heap_4.o
                0x000000009d024ea8                pvPortMalloc
                0x000000009d025070                vPortFree
                0x000000009d0250e8                xPortGetFreeHeapSize
                0x000000009d0250f0                xPortGetMinimumEverFreeHeapSize
                0x000000009d0250f8                vPortInitialiseBlocks
                0x000000009d025100                pvPortCalloc
                0x000000009d025160                vPortGetHeapStats

.text           0x000000009d025230      0x780
 .text          0x000000009d025230      0x3c4 build/default/production/_ext/1529399856/osal_freertos.o
                0x000000009d025230                OSAL_CRIT_Enter
                0x000000009d025278                OSAL_CRIT_Leave
                0x000000009d0252bc                OSAL_SEM_Create
                0x000000009d025364                OSAL_SEM_Delete
                0x000000009d025394                OSAL_SEM_Pend
                0x000000009d0253d4                OSAL_SEM_Post
                0x000000009d025418                OSAL_SEM_PostISR
                0x000000009d025470                OSAL_SEM_GetCount
                0x000000009d025498                OSAL_MUTEX_Create
                0x000000009d0254e4                OSAL_MUTEX_Delete
                0x000000009d025530                OSAL_MUTEX_Lock
                0x000000009d025570                OSAL_MUTEX_Unlock
                0x000000009d0255b4                OSAL_Malloc
                0x000000009d0255d0                OSAL_Free
                0x000000009d0255ec                OSAL_Initialize
 .text          0x000000009d0255f4      0x3bc /opt/microchip/xc32/v4.60/bin/bin/../../lib/gcc/pic32mx/8.3.1/libgcc.a(_udivdi3.o)
                0x000000009d0255f4                __udivdi3

.text           0x000000009d0259b0      0x74c
 .text          0x000000009d0259b0      0x3b8 /opt/microchip/xc32/v4.60/bin/bin/../../lib/gcc/pic32mx/8.3.1/libgcc.a(_umoddi3.o)
                0x000000009d0259b0                __umoddi3
 .text          0x000000009d025d68      0x394 build/default/production/_ext/1865657120/plib_uart1.o
                0x000000009d025dc8                UART1_Initialize
                0x000000009d025e00                UART1_SerialSetup
                0x000000009d025f04                UART1_AutoBaudQuery
                0x000000009d025f14                UART1_AutoBaudSet
                0x000000009d025f2c                UART1_Read
                0x000000009d025fe8                UART1_Write
                0x000000009d02605c                UART1_ErrorGet
                0x000000009d026098                UART1_WriteByte
                0x000000009d0260b8                UART1_TransmitterIsReady
                0x000000009d0260cc                UART1_ReadByte
                0x000000009d0260dc                UART1_ReceiverIsReady
                0x000000009d0260ec                UART1_TransmitComplete

.rodata.str1.4  0x000000009d0260fc      0x330
 .rodata.str1.4
                0x000000009d0260fc      0x330 build/default/production/_ext/1360937237/ethernet.o

.text.dp32mul   0x000000009d02642c      0x32c
 .text.dp32mul  0x000000009d02642c      0x32c /opt/microchip/xc32/v4.60/bin/bin/../../lib/gcc/pic32mx/8.3.1/../../../../pic32mx/lib/libm.a(dp32mul.o)
                0x000000009d02642c                dpmul
                0x000000009d02642c                __muldf3

.text           0x000000009d026758      0x5f0
 .text          0x000000009d026758      0x304 build/default/production/_ext/1832805299/sys_console_uart.o
                0x000000009d026758                Console_UART_Flush
                0x000000009d026760                Console_UART_Status
                0x000000009d026778                Console_UART_Tasks
                0x000000009d026780                Console_UART_Initialize
                0x000000009d0267fc                Console_UART_Read
                0x000000009d026874                Console_UART_WriteCountGet
                0x000000009d0268d0                Console_UART_WriteFreeBufferCountGet
                0x000000009d02692c                Console_UART_Write
                0x000000009d0269a4                Console_UART_ReadFreeBufferCountGet
                0x000000009d026a00                Console_UART_ReadCountGet
 .text          0x000000009d026a5c      0x2ec build/default/production/_ext/438849557/drv_miim_pic32m.o
                0x000000009d026a5c                DRV_MIIM_DeviceSetup
                0x000000009d026b84                DRV_MIIM_PortEnable
                0x000000009d026b8c                DRV_MIIM_PortDisable
                0x000000009d026b94                DRV_MIIM_PortBusy
                0x000000009d026bb0                DRV_MIIM_WriteData
                0x000000009d026c08                DRV_MIIM_ReadStart
                0x000000009d026c50                DRV_MIIM_ReadDataGet
                0x000000009d026c7c                DRV_MIIM_ScanEnable
                0x000000009d026cd0                DRV_MIIM_ScanDisable
                0x000000009d026cec                DRV_MIIM_GetScanData

.text           0x000000009d026d48      0x2a8
 .text          0x000000009d026d48      0x2a8 build/default/production/_ext/1033058136/helpers.o
                0x000000009d026d48                uitoa
                0x000000009d026dc8                hexatob
                0x000000009d026e54                btohexa_high
                0x000000009d026e6c                btohexa_low
                0x000000009d026e84                strncpy_m
                0x000000009d026f50                stricmp

.rodata.str1.4  0x000000009d026ff0      0x290
 .rodata.str1.4
                0x000000009d026ff0      0x290 build/default/production/_ext/1376093119/sys_command.o

.text.qsort     0x000000009d027280      0x290
 .text.qsort    0x000000009d027280      0x290 /opt/microchip/xc32/v4.60/bin/bin/../../lib/gcc/pic32mx/8.3.1/../../../../pic32mx/lib/libc-musl.a(qsort.o)
                0x000000009d027280                qsort

.text           0x000000009d027510      0x4cc
 .text          0x000000009d027510      0x270 build/default/production/_ext/1033058136/icmp.o
                0x000000009d02753c                TCPIP_ICMP_Task
                0x000000009d0276c4                TCPIP_ICMP_Initialize
                0x000000009d027734                TCPIP_ICMP_Deinitialize
                0x000000009d027770                TCPIP_ICMP_EchoRequest
                0x000000009d027778                TCPIP_ICMP_EchoRequestCancel
 .text          0x000000009d027780      0x25c build/default/production/_ext/1033058136/tcpip_helper_c32.o
                0x000000009d027780                TCPIP_Helper_htonl
                0x000000009d02778c                TCPIP_Helper_htons
                0x000000009d027798                TCPIP_Helper_htonll
                0x000000009d0277ac                TCPIP_Helper_CalcIPChecksum

.text           0x000000009d0279dc      0x218
 .text          0x000000009d0279dc      0x218 build/default/production/_ext/1033058136/tcpip_notify.o
                0x000000009d0279dc                TCPIP_Notification_Initialize
                0x000000009d0279f8                TCPIP_Notification_Add
                0x000000009d027a74                TCPIP_Notification_Remove
                0x000000009d027acc                TCPIP_Notification_CbackRemove
                0x000000009d027b78                TCPIP_Notification_RemoveAll
                0x000000009d027bc8                TCPIP_Notification_Deinitialize

.text.__floatdidf
                0x000000009d027bf4      0x204
 .text.__floatdidf
                0x000000009d027bf4      0x204 /opt/microchip/xc32/v4.60/bin/bin/../../lib/gcc/pic32mx/8.3.1/../../../../pic32mx/lib/libe.a(_floatdidf.o)
                0x000000009d027bf4                __floatdidf

.text.__fmt_x   0x000000009d027df8      0x200
 .text.__fmt_x  0x000000009d027df8      0x200 /opt/microchip/xc32/v4.60/bin/bin/../../lib/gcc/pic32mx/8.3.1/../../../../pic32mx/lib/libc-musl.a(__fmt_x.o)
                0x000000009d027df8                __fmt_x
                0x000000009d027df8                __fmt_x_needed

.text           0x000000009d027ff8      0x3c8
 .text          0x000000009d027ff8      0x1f0 build/default/production/_ext/951553248/port.o
                0x000000009d02801c                pxPortInitialiseStack
                0x000000009d028070                vApplicationSetupTickTimerInterrupt
                0x000000009d0280dc                vPortEndScheduler
                0x000000009d0280e4                xPortStartScheduler
                0x000000009d028140                uxPortSetInterruptMaskFromISR
                0x000000009d028178                vPortIncrementTick
                0x000000009d0281cc                vPortClearInterruptMaskFromISR
 .text          0x000000009d0281e8      0x1d8 build/default/production/_ext/1249264884/plib_coretimer.o
                0x000000009d0281e8                CORETIMER_Initialize
                0x000000009d028214                CORETIMER_CallbackSet
                0x000000009d028228                CORETIMER_Start
                0x000000009d02828c                CORETIMER_Stop
                0x000000009d0282c0                CORETIMER_FrequencyGet
                0x000000009d0282cc                CORETIMER_CompareSet
                0x000000009d0282e8                CORETIMER_CounterGet
                0x000000009d028300                CORE_TIMER_InterruptHandler
                0x000000009d028348                CORETIMER_DelayMs
                0x000000009d02838c                CORETIMER_DelayUs

.text           0x000000009d0283c0      0x370
 .text          0x000000009d0283c0      0x1bc build/default/production/_ext/1360937237/app.o
                0x000000009d0283c0                APP_Initialize
                0x000000009d0283f0                APP_Tasks
 .text          0x000000009d02857c      0x1b4 build/default/production/_ext/1171490990/initialization.o
                0x000000009d02857c                TCPIP_STACK_Init
                0x000000009d0285cc                SYS_Initialize

.CORE_TIMER_Handler_vector_text
                0x000000009d028730      0x1b4
 .CORE_TIMER_Handler_vector_text
                0x000000009d028730      0x1b4 build/default/production/_ext/1171490990/interrupts_a.o

.UART_2_Handler_vector_text
                0x000000009d0288e4      0x1b4
 .UART_2_Handler_vector_text
                0x000000009d0288e4      0x1b4 build/default/production/_ext/1171490990/interrupts_a.o

.ETH_Handler_vector_text
                0x000000009d028a98      0x1b4
 .ETH_Handler_vector_text
                0x000000009d028a98      0x1b4 build/default/production/_ext/1171490990/interrupts_a.o

.text           0x000000009d028c4c      0x194
 .text          0x000000009d028c4c      0x194 build/default/production/_ext/444070925/drv_extphy_lan8720.o

.text.__pop_int
                0x000000009d028de0      0x188
 .text.__pop_int
                0x000000009d028de0      0x188 /opt/microchip/xc32/v4.60/bin/bin/../../lib/gcc/pic32mx/8.3.1/../../../../pic32mx/lib/libc-musl.a(__pop_int.o)
                0x000000009d028de0                __pop_int
                0x000000009d028de0                __pop_int_needed

.rodata         0x000000009d028f68      0x300
 .rodata        0x000000009d028f68      0x184 build/default/production/_ext/444070925/drv_ethphy.o
                0x000000009d028ffc                DRV_ETHPHY_OBJECT_BASE_Default
 .rodata        0x000000009d0290ec      0x17c build/default/production/_ext/1171490990/initialization.o
                0x000000009d029148                TCPIP_STACK_MODULE_CONFIG_TBL_SIZE
                0x000000009d02914c                TCPIP_STACK_MODULE_CONFIG_TBL
                0x000000009d02918c                TCPIP_HOSTS_CONFIGURATION_SIZE
                0x000000009d029190                TCPIP_HOSTS_CONFIGURATION
                0x000000009d0291cc                tcpipIPv4InitData
                0x000000009d0291dc                tcpipICMPInitData
                0x000000009d0291e0                tcpipDHCPInitData
                0x000000009d0291e8                tcpipUDPInitData
                0x000000009d0291f0                tcpipARPInitData
                0x000000009d029218                tcpipPhyInitData_LAN8720
                0x000000009d029248                tcpipMACPIC32INTInitData

.text.trinkle   0x000000009d029268      0x17c
 .text.trinkle  0x000000009d029268      0x17c /opt/microchip/xc32/v4.60/bin/bin/../../lib/gcc/pic32mx/8.3.1/../../../../pic32mx/lib/libc-musl.a(qsort.o)

.text           0x000000009d0293e4      0x178
 .text          0x000000009d0293e4      0x178 build/default/production/_ext/1865200349/plib_evic.o
                0x000000009d0293e4                EVIC_Initialize
                0x000000009d029414                EVIC_SourceEnable
                0x000000009d02943c                EVIC_SourceDisable
                0x000000009d029464                EVIC_SourceIsEnabled
                0x000000009d029488                EVIC_SourceStatusGet
                0x000000009d0294ac                EVIC_SourceStatusSet
                0x000000009d0294d4                EVIC_SourceStatusClear
                0x000000009d0294fc                EVIC_INT_Enable
                0x000000009d029514                EVIC_INT_Disable
                0x000000009d029534                EVIC_INT_Restore

.rodata         0x000000009d02955c      0x164
 .rodata        0x000000009d02955c      0x164 build/default/production/_ext/438849557/drv_miim.o
                0x000000009d029664                DRV_MIIM_OBJECT_BASE_Default

.text           0x000000009d0296c0      0x164
 .text          0x000000009d0296c0      0x164 build/default/production/_ext/1171490990/tasks.o
                0x000000009d0296c0                _TCPIP_STACK_Task
                0x000000009d0296ec                _DRV_MIIM_Task
                0x000000009d029764                SYS_Tasks

.text._sbrk_init
                0x000000009d029824      0x154
 .text._sbrk_init
                0x000000009d029824      0x154 /opt/microchip/xc32/v4.60/bin/bin/../../lib/gcc/pic32mx/8.3.1/../../../../pic32mx/lib/libpic32.a(sbrk.o)
                0x000000009d029824                _sbrk_init

.text.__fmt_d   0x000000009d029978      0x150
 .text.__fmt_d  0x000000009d029978      0x150 /opt/microchip/xc32/v4.60/bin/bin/../../lib/gcc/pic32mx/8.3.1/../../../../pic32mx/lib/libc-musl.a(__fmt_d.o)
                0x000000009d029978                __fmt_d
                0x000000009d029978                __fmt_d_needed

.text           0x000000009d029ac8      0x140
 .text          0x000000009d029ac8      0x140 build/default/production/_ext/1865254177/plib_gpio.o
                0x000000009d029ac8                GPIO_Initialize
                0x000000009d029b18                GPIO_PortRead
                0x000000009d029b34                GPIO_PortWrite
                0x000000009d029b60                GPIO_PortLatchRead
                0x000000009d029b7c                GPIO_PortSet
                0x000000009d029b98                GPIO_PortClear
                0x000000009d029bb4                GPIO_PortToggle
                0x000000009d029bd0                GPIO_PortInputEnable
                0x000000009d029bec                GPIO_PortOutputEnable

.text.__cvt_u   0x000000009d029c08      0x13c
 .text.__cvt_u  0x000000009d029c08      0x13c /opt/microchip/xc32/v4.60/bin/bin/../../lib/gcc/pic32mx/8.3.1/../../../../pic32mx/lib/libc-musl.a(__cvt_u.o)
                0x000000009d029c08                __cvt_u

.text.dpcmp     0x000000009d029d44      0x12c
 .text.dpcmp    0x000000009d029d44      0x12c /opt/microchip/xc32/v4.60/bin/bin/../../lib/gcc/pic32mx/8.3.1/../../../../pic32mx/lib/libm.a(dpcmp.o)
                0x000000009d029d44                __gtdf2
                0x000000009d029d44                __gedf2
                0x000000009d029d44                dpcmp
                0x000000009d029d44                __nedf2
                0x000000009d029d44                __eqdf2

.text.dfcmplt   0x000000009d029e70      0x12c
 .text.dfcmplt  0x000000009d029e70      0x12c /opt/microchip/xc32/v4.60/bin/bin/../../lib/gcc/pic32mx/8.3.1/../../../../pic32mx/lib/libm.a(dpcmplt.o)
                0x000000009d029e70                __ltdf2
                0x000000009d029e70                __ledf2
                0x000000009d029e70                dpcmplt

.text           0x000000009d029f9c      0x120
 .text          0x000000009d029f9c      0x120 build/default/production/_ext/753841488/sys_time_h2_adapter.o
                0x000000009d029f9c                sy_time_h2_adapter_callback
                0x000000009d029fbc                SYS_TMR_CallbackPeriodic
                0x000000009d029fe8                SYS_TMR_TickCountGet
                0x000000009d02a030                SYS_TMR_TickCountGetLong
                0x000000009d02a078                SYS_TMR_TickCounterFrequencyGet

.rodata         0x000000009d02a0bc      0x114
 .rodata        0x000000009d02a0bc      0x114 build/default/production/_ext/732082881/drv_ethmac.o
                0x000000009d02a178                DRV_ETHMAC_PIC32MACObject

.text.__write_buffered
                0x000000009d02a1d0      0x114
 .text.__write_buffered
                0x000000009d02a1d0      0x114 /opt/microchip/xc32/v4.60/bin/bin/../../lib/gcc/pic32mx/8.3.1/../../../../pic32mx/lib/libc-musl.a(__stdio_write.o)
                0x000000009d02a1d0                __do_write

.rodata         0x000000009d02a2e4      0x110
 .rodata        0x000000009d02a2e4      0x110 /opt/microchip/xc32/v4.60/bin/bin/../../lib/gcc/pic32mx/8.3.1/../../../../pic32mx/lib/libc-musl.a(intscan.o)

.text           0x000000009d02a3f4      0x108
 .text          0x000000009d02a3f4      0x108 /opt/microchip/xc32/v4.60/bin/bin/../../lib/gcc/pic32mx/8.3.1/../../../../pic32mx/lib/libm.a(floor32.o)
                0x000000009d02a3f4                floor
                0x000000009d02a3f4                floorl
                0x000000009d02a3f4                dpfloor

.text.__stdio_write_buffered
                0x000000009d02a4fc      0x104
 .text.__stdio_write_buffered
                0x000000009d02a4fc      0x104 /opt/microchip/xc32/v4.60/bin/bin/../../lib/gcc/pic32mx/8.3.1/../../../../pic32mx/lib/libc-musl.a(__stdio_write.o)
                0x000000009d02a4fc                __stdio_write_buffered

.text           0x000000009d02a600      0x100
 .text          0x000000009d02a600      0x100 build/default/production/_ext/404212886/list.o
                0x000000009d02a600                vListInitialise
                0x000000009d02a624                vListInitialiseItem
                0x000000009d02a62c                vListInsertEnd
                0x000000009d02a65c                vListInsert
                0x000000009d02a6b8                uxListRemove

.text.__pad     0x000000009d02a700      0x100
 .text.__pad    0x000000009d02a700      0x100 /opt/microchip/xc32/v4.60/bin/bin/../../lib/gcc/pic32mx/8.3.1/../../../../pic32mx/lib/libc-musl.a(__printf_core.o)
                0x000000009d02a700                __pad

.text.dptofp    0x000000009d02a800      0x100
 .text.dptofp   0x000000009d02a800      0x100 /opt/microchip/xc32/v4.60/bin/bin/../../lib/gcc/pic32mx/8.3.1/../../../../pic32mx/lib/libm.a(dptofp.o)
                0x000000009d02a800                dptofp
                0x000000009d02a800                __truncdfsf2

.text.__fmt_o   0x000000009d02a900       0xf4
 .text.__fmt_o  0x000000009d02a900       0xf4 /opt/microchip/xc32/v4.60/bin/bin/../../lib/gcc/pic32mx/8.3.1/../../../../pic32mx/lib/libc-musl.a(__fmt_o.o)
                0x000000009d02a900                __fmt_o
                0x000000009d02a900                __fmt_o_needed

.rodata         0x000000009d02a9f4       0xf0
 .rodata        0x000000009d02a9f4       0xf0 build/default/production/_ext/1033058136/dhcp.o

.text.sift      0x000000009d02aae4       0xf0
 .text.sift     0x000000009d02aae4       0xf0 /opt/microchip/xc32/v4.60/bin/bin/../../lib/gcc/pic32mx/8.3.1/../../../../pic32mx/lib/libc-musl.a(qsort.o)

.text.scalbn    0x000000009d02abd4       0xf0
 .text.scalbn   0x000000009d02abd4       0xf0 /opt/microchip/xc32/v4.60/bin/bin/../../lib/gcc/pic32mx/8.3.1/../../../../pic32mx/lib/libm-musl.a(scalbn.o)
                0x000000009d02abd4                scalbn

.text.__pop_ptr
                0x000000009d02acc4       0xe4
 .text.__pop_ptr
                0x000000009d02acc4       0xe4 /opt/microchip/xc32/v4.60/bin/bin/../../lib/gcc/pic32mx/8.3.1/../../../../pic32mx/lib/libc-musl.a(__pop_ptr.o)
                0x000000009d02acc4                __pop_ptr
                0x000000009d02acc4                __pop_ptr_needed

.text.general_exception
                0x000000009d02ada8       0xdc
 .text.general_exception
                0x000000009d02ada8       0xdc /opt/microchip/xc32/v4.60/bin/bin/../../lib/gcc/pic32mx/8.3.1/../../../../pic32mx/lib/libpic32.a(general-exception.o)
                0x000000009d02ada8                _general_exception_context

.text           0x000000009d02ae84       0xd8
 .text          0x000000009d02ae84       0xd8 build/default/production/_ext/1881668453/sys_int.o
                0x000000009d02ae84                SYS_INT_Enable
                0x000000009d02aea0                SYS_INT_Disable
                0x000000009d02aebc                SYS_INT_Restore
                0x000000009d02aed8                SYS_INT_SourceDisable
                0x000000009d02af30                SYS_INT_SourceRestore

.text.strcspn   0x000000009d02af5c       0xd8
 .text.strcspn  0x000000009d02af5c       0xd8 /opt/microchip/xc32/v4.60/bin/bin/../../lib/gcc/pic32mx/8.3.1/../../../../pic32mx/lib/libc-size-musl.a(strcspn.o)
                0x000000009d02af5c                strcspn

.text.strspn    0x000000009d02b034       0xd8
 .text.strspn   0x000000009d02b034       0xd8 /opt/microchip/xc32/v4.60/bin/bin/../../lib/gcc/pic32mx/8.3.1/../../../../pic32mx/lib/libc-size-musl.a(strspn.o)
                0x000000009d02b034                strspn

.text           0x000000009d02b10c       0xd4
 .text          0x000000009d02b10c       0xd4 build/default/production/_ext/1033058136/tcpip_heap_alloc.o
                0x000000009d02b10c                F_TCPIP_HEAP_BufferMapNonCached
                0x000000009d02b114                F_TCPIP_HEAP_PointerMapCached
                0x000000009d02b11c                TCPIP_HEAP_Create
                0x000000009d02b160                TCPIP_HEAP_Delete
                0x000000009d02b180                TCPIP_HEAP_MallocOutline
                0x000000009d02b1a0                TCPIP_HEAP_CallocOutline
                0x000000009d02b1c0                TCPIP_HEAP_FreeOutline

.text.__stdio_read
                0x000000009d02b1e0       0xcc
 .text.__stdio_read
                0x000000009d02b1e0       0xcc /opt/microchip/xc32/v4.60/bin/bin/../../lib/gcc/pic32mx/8.3.1/../../../../pic32mx/lib/libc-musl.a(__stdio_read.o)
                0x000000009d02b1e0                __stdio_read

.text.__simple_search_fl
                0x000000009d02b2ac       0xc8
 .text.__simple_search_fl
                0x000000009d02b2ac       0xc8 /opt/microchip/xc32/v4.60/bin/bin/../../lib/gcc/pic32mx/8.3.1/../../../../pic32mx/lib/liblmalloc-musl.a(lite_free.o)
                0x000000009d02b2ac                __simple_search_fl

.text.__strchrnul
                0x000000009d02b374       0xc0
 .text.__strchrnul
                0x000000009d02b374       0xc0 /opt/microchip/xc32/v4.60/bin/bin/../../lib/gcc/pic32mx/8.3.1/../../../../pic32mx/lib/libc-size-musl.a(strchrnul.o)
                0x000000009d02b374                __strchrnul
                0x000000009d02b374                strchrnul

.text.vsnprintf
                0x000000009d02b434       0xc0
 .text.vsnprintf
                0x000000009d02b434       0xc0 /opt/microchip/xc32/v4.60/bin/bin/../../lib/gcc/pic32mx/8.3.1/../../../../pic32mx/lib/libc-musl.a(vsnprintf.o)
                0x000000009d02b434                vsnprintf

.text.__stdio_close_rw
                0x000000009d02b4f4       0xc0
 .text.__stdio_close_rw
                0x000000009d02b4f4       0xc0 /opt/microchip/xc32/v4.60/bin/bin/../../lib/gcc/pic32mx/8.3.1/../../../../pic32mx/lib/libc-musl.a(__stdio_close.o)
                0x000000009d02b4f4                __stdio_close_rw

.text           0x000000009d02b5b4       0xbc
 .text          0x000000009d02b5b4       0xbc build/default/production/_ext/1171490990/freertos_hooks.o
                0x000000009d02b5b4                vApplicationStackOverflowHook
                0x000000009d02b5ec                vApplicationMallocFailedHook
                0x000000009d02b620                vApplicationIdleHook
                0x000000009d02b628                vApplicationTickHook
                0x000000009d02b630                vAssertCalled

.text.cycle     0x000000009d02b670       0xbc
 .text.cycle    0x000000009d02b670       0xbc /opt/microchip/xc32/v4.60/bin/bin/../../lib/gcc/pic32mx/8.3.1/../../../../pic32mx/lib/libc-musl.a(qsort.o)

.text.__fmt_u   0x000000009d02b72c       0xbc
 .text.__fmt_u  0x000000009d02b72c       0xbc /opt/microchip/xc32/v4.60/bin/bin/../../lib/gcc/pic32mx/8.3.1/../../../../pic32mx/lib/libc-musl.a(__fmt_u.o)
                0x000000009d02b72c                __fmt_u
                0x000000009d02b72c                __fmt_u_needed

.rodata.str1.4  0x000000009d02b7e8       0xb8
 .rodata.str1.4
                0x000000009d02b7e8       0xb8 build/default/production/_ext/1033058136/tcpip_helpers.o

.text.strtox    0x000000009d02b8a0       0xb8
 .text.strtox   0x000000009d02b8a0       0xb8 /opt/microchip/xc32/v4.60/bin/bin/../../lib/gcc/pic32mx/8.3.1/../../../../pic32mx/lib/libc-musl.a(strtol.o)

.text.__shgetc  0x000000009d02b958       0xb4
 .text.__shgetc
                0x000000009d02b958       0xb4 /opt/microchip/xc32/v4.60/bin/bin/../../lib/gcc/pic32mx/8.3.1/../../../../pic32mx/lib/libc-musl.a(shgetc.o)
                0x000000009d02b958                __shgetc

.text           0x000000009d02ba0c       0xb0
 .text          0x000000009d02ba0c       0xb0 build/default/production/_ext/1033058136/hash_fnv.o
                0x000000009d02ba0c                fnv_32_hash
                0x000000009d02ba64                fnv_32a_hash

.text.__simple_malloc
                0x000000009d02babc       0xb0
 .text.__simple_malloc
                0x000000009d02babc       0xb0 /opt/microchip/xc32/v4.60/bin/bin/../../lib/gcc/pic32mx/8.3.1/../../../../pic32mx/lib/liblmalloc-musl.a(lite_malloc.o)
                0x000000009d02babc                malloc
                0x000000009d02babc                __simple_malloc
                0x000000009d02babc                __malloc0

.rodata         0x000000009d02bb6c       0xac
 .rodata        0x000000009d02bb6c       0xac build/default/production/_ext/1033058136/tcpip_commands.o

.text.setvbuf   0x000000009d02bc18       0xac
 .text.setvbuf  0x000000009d02bc18       0xac /opt/microchip/xc32/v4.60/bin/bin/../../lib/gcc/pic32mx/8.3.1/../../../../pic32mx/lib/libc-musl.a(setvbuf.o)
                0x000000009d02bc18                setvbuf

.text.fptodp    0x000000009d02bcc4       0xac
 .text.fptodp   0x000000009d02bcc4       0xac /opt/microchip/xc32/v4.60/bin/bin/../../lib/gcc/pic32mx/8.3.1/../../../../pic32mx/lib/libm.a(fptodp.o)
                0x000000009d02bcc4                __extendsfdf2
                0x000000009d02bcc4                fptodp

.text.normalize
                0x000000009d02bd70       0xa8
 .text.normalize
                0x000000009d02bd70       0xa8 /opt/microchip/xc32/v4.60/bin/bin/../../lib/gcc/pic32mx/8.3.1/../../../../pic32mx/lib/libm-musl.a(fma.o)

.text.strtok    0x000000009d02be18       0xa4
 .text.strtok   0x000000009d02be18       0xa4 /opt/microchip/xc32/v4.60/bin/bin/../../lib/gcc/pic32mx/8.3.1/../../../../pic32mx/lib/libc-size-musl.a(strtok.o)
                0x000000009d02be18                strtok

.text.__fmt_s   0x000000009d02bebc       0xa4
 .text.__fmt_s  0x000000009d02bebc       0xa4 /opt/microchip/xc32/v4.60/bin/bin/../../lib/gcc/pic32mx/8.3.1/../../../../pic32mx/lib/libc-musl.a(__fmt_s.o)
                0x000000009d02bebc                __fmt_s
                0x000000009d02bebc                __fmt_0_needed
                0x000000009d02bebc                __fmt_s_needed

.rodata.str1.4  0x000000009d02bf60      0x134
 .rodata.str1.4
                0x000000009d02bf60       0x9c build/default/production/_ext/1033058136/ipv4.o
 .rodata.str1.4
                0x000000009d02bffc       0x98 build/default/production/_ext/1360937237/app.o

.text.__toread  0x000000009d02c094       0x94
 .text.__toread
                0x000000009d02c094       0x94 /opt/microchip/xc32/v4.60/bin/bin/../../lib/gcc/pic32mx/8.3.1/../../../../pic32mx/lib/libc-musl.a(__toread.o)
                0x000000009d02c094                __toread

.rodata         0x000000009d02c128       0x90
 .rodata        0x000000009d02c128       0x90 build/default/production/_ext/1033058136/tcpip_manager.o

.text.__out     0x000000009d02c1b8       0x90
 .text.__out    0x000000009d02c1b8       0x90 /opt/microchip/xc32/v4.60/bin/bin/../../lib/gcc/pic32mx/8.3.1/../../../../pic32mx/lib/libc-musl.a(__out.o)
                0x000000009d02c1b8                __out
                0x000000009d02c1b8                __out_needed

.text.dptoli    0x000000009d02c248       0x90
 .text.dptoli   0x000000009d02c248       0x90 /opt/microchip/xc32/v4.60/bin/bin/../../lib/gcc/pic32mx/8.3.1/../../../../pic32mx/lib/libm.a(dptoli.o)
                0x000000009d02c248                dptoli
                0x000000009d02c248                __fixdfsi

.text._sbrk     0x000000009d02c2d8       0x8c
 .text._sbrk    0x000000009d02c2d8       0x8c /opt/microchip/xc32/v4.60/bin/bin/../../lib/gcc/pic32mx/8.3.1/../../../../pic32mx/lib/libpic32.a(sbrk.o)
                0x000000009d02c2d8                _sbrk

.rodata         0x000000009d02c364       0x80
 .rodata        0x000000009d02c364       0x80 build/default/production/_ext/1376093119/sys_command.o

.text           0x000000009d02c3e4       0x7c
 .text          0x000000009d02c3e4       0x7c /opt/microchip/xc32/v4.60/bin/bin/../../lib/gcc/pic32mx/8.3.1/../../../../pic32mx/lib/libpic32.a(pic32_data_init_core.o)
                0x000000009d02c3e4                __dinit_copy_emb
                0x000000009d02c3e4                __dinit_copy_val_data
                0x000000009d02c3e4                __dinit_decompress
                0x000000009d02c3ec                __pic32_data_init

.text.stpncpy   0x000000009d02c460       0x7c
 .text.stpncpy  0x000000009d02c460       0x7c /opt/microchip/xc32/v4.60/bin/bin/../../lib/gcc/pic32mx/8.3.1/../../../../pic32mx/lib/libc-size-musl.a(stpncpy.o)
                0x000000009d02c460                stpncpy
                0x000000009d02c460                __stpncpy

.text.__readv   0x000000009d02c4dc       0x7c
 .text.__readv  0x000000009d02c4dc       0x7c /opt/microchip/xc32/v4.60/bin/bin/../../lib/gcc/pic32mx/8.3.1/../../../../pic32mx/lib/libc-musl.a(readv.o)
                0x000000009d02c4dc                readv

.text.atoi      0x000000009d02c558       0x7c
 .text.atoi     0x000000009d02c558       0x7c /opt/microchip/xc32/v4.60/bin/bin/../../lib/gcc/pic32mx/8.3.1/../../../../pic32mx/lib/libc-musl.a(atoi.o)
                0x000000009d02c558                atoi

.text.__writev  0x000000009d02c5d4       0x7c
 .text.__writev
                0x000000009d02c5d4       0x7c /opt/microchip/xc32/v4.60/bin/bin/../../lib/gcc/pic32mx/8.3.1/../../../../pic32mx/lib/libc-musl.a(writev.o)
                0x000000009d02c5d4                writev

.rodata.str1.4  0x000000009d02c650       0xe0
 .rodata.str1.4
                0x000000009d02c650       0x70 build/default/production/_ext/1171490990/initialization.o
 .rodata.str1.4
                0x000000009d02c6c0       0x70 build/default/production/_ext/1171490990/exceptions.o

.text.__simple_free
                0x000000009d02c730       0x70
 .text.__simple_free
                0x000000009d02c730       0x70 /opt/microchip/xc32/v4.60/bin/bin/../../lib/gcc/pic32mx/8.3.1/../../../../pic32mx/lib/liblmalloc-musl.a(lite_free.o)
                0x000000009d02c730                __free0
                0x000000009d02c730                __simple_free
                0x000000009d02c730                free

.text.pntz      0x000000009d02c7a0       0x6c
 .text.pntz     0x000000009d02c7a0       0x6c /opt/microchip/xc32/v4.60/bin/bin/../../lib/gcc/pic32mx/8.3.1/../../../../pic32mx/lib/libc-musl.a(qsort.o)

.text.a_clz_64  0x000000009d02c80c       0x6c
 .text.a_clz_64
                0x000000009d02c80c       0x6c /opt/microchip/xc32/v4.60/bin/bin/../../lib/gcc/pic32mx/8.3.1/../../../../pic32mx/lib/libm-musl.a(fma.o)

.rodata         0x000000009d02c878       0x68
 .rodata        0x000000009d02c878       0x68 build/default/production/_ext/1033058136/ipv4.o

.rodata.str1.4  0x000000009d02c8e0       0x60
 .rodata.str1.4
                0x000000009d02c8e0       0x60 build/default/production/_ext/444070925/drv_ethphy.o

.text           0x000000009d02c940       0x60
 .text          0x000000009d02c940       0x60 build/default/production/_ext/1171490990/exceptions.o
                0x000000009d02c940                _general_exception_handler
                0x000000009d02c970                _bootstrap_exception_handler

.rodata.str1.4  0x000000009d02c9a0       0x5c
 .rodata.str1.4
                0x000000009d02c9a0       0x5c build/default/production/_ext/1033058136/dhcp.o

.text           0x000000009d02c9fc       0x5c
 .text          0x000000009d02c9fc       0x5c build/default/production/_ext/944882569/sys_debug.o
                0x000000009d02c9fc                SYS_DEBUG_Initialize
                0x000000009d02ca20                SYS_DEBUG_ConsoleInstanceGet
                0x000000009d02ca28                SYS_DEBUG_Status
                0x000000009d02ca30                SYS_DEBUG_ErrorLevelSet
                0x000000009d02ca38                SYS_DEBUG_ErrorLevelGet
                0x000000009d02ca40                SYS_DEBUG_Redirect

.text.__fmt_state
                0x000000009d02ca58       0x58
 .text.__fmt_state
                0x000000009d02ca58       0x58 /opt/microchip/xc32/v4.60/bin/bin/../../lib/gcc/pic32mx/8.3.1/../../../../pic32mx/lib/libc-musl.a(__printf_core.o)
                0x000000009d02ca58                __fmt_state

.text           0x000000009d02cab0       0x54
 .text          0x000000009d02cab0       0x54 build/default/production/_ext/1171490990/interrupts.o
                0x000000009d02cab0                CORE_TIMER_Handler
                0x000000009d02cacc                UART_2_Handler
                0x000000009d02cae8                ETH_Handler

.rodata.str1.4  0x000000009d02cb04       0x54
 .rodata.str1.4
                0x000000009d02cb04       0x54 build/default/production/_ext/1171490990/freertos_hooks.o

.text.main_entry
                0x000000009d02cb58       0x54
 .text.main_entry
                0x000000009d02cb58       0x54 /tmp/ccncmXzQ.o
                0x000000009d02cb8c                __crt0_exit

.text.__uflow   0x000000009d02cbac       0x54
 .text.__uflow  0x000000009d02cbac       0x54 /opt/microchip/xc32/v4.60/bin/bin/../../lib/gcc/pic32mx/8.3.1/../../../../pic32mx/lib/libc-musl.a(__uflow.o)
                0x000000009d02cbac                __uflow

.text.__pop_float
                0x000000009d02cc00       0x50
 .text.__pop_float
                0x000000009d02cc00       0x50 /opt/microchip/xc32/v4.60/bin/bin/../../lib/gcc/pic32mx/8.3.1/../../../../pic32mx/lib/libc-musl.a(__pop_float.o)
                0x000000009d02cc00                __pop_float
                0x000000009d02cc00                __pop_float_needed

.text           0x000000009d02cc50       0x4c
 .text          0x000000009d02cc50       0x4c build/default/production/_ext/1000052432/sys_reset.o
                0x000000009d02cc50                SYS_RESET_SoftwareReset

.vector_default
                0x000000009d02cc9c       0x48
 .vector_default
                0x000000009d02cc9c       0x48 /opt/microchip/xc32/v4.60/bin/bin/../../lib/gcc/pic32mx/8.3.1/../../../../pic32mx/lib/libpic32.a(defaultinterrupt.o)
                0x000000009d02cc9c                _DefaultInterrupt

.text.strncmp   0x000000009d02cce4       0x48
 .text.strncmp  0x000000009d02cce4       0x48 /opt/microchip/xc32/v4.60/bin/bin/../../lib/gcc/pic32mx/8.3.1/../../../../pic32mx/lib/libc-size-musl.a(strncmp.o)
                0x000000009d02cce4                strncmp

.rodata.str1.4  0x000000009d02cd2c       0x44
 .rodata.str1.4
                0x000000009d02cd2c       0x44 build/default/production/_ext/1033058136/udp.o

.text           0x000000009d02cd70       0x44
 .text          0x000000009d02cd70       0x44 /opt/microchip/xc32/v4.60/bin/bin/../../lib/gcc/pic32mx/8.3.1/../../../../pic32mx/lib/pic32_software_reset.o
                0x000000009d02cd70                __pic32_software_reset

.text.shl       0x000000009d02cdb4       0x44
 .text.shl      0x000000009d02cdb4       0x44 /opt/microchip/xc32/v4.60/bin/bin/../../lib/gcc/pic32mx/8.3.1/../../../../pic32mx/lib/libc-musl.a(qsort.o)

.text.shr       0x000000009d02cdf8       0x44
 .text.shr      0x000000009d02cdf8       0x44 /opt/microchip/xc32/v4.60/bin/bin/../../lib/gcc/pic32mx/8.3.1/../../../../pic32mx/lib/libc-musl.a(qsort.o)

.text.__towrite
                0x000000009d02ce3c       0x44
 .text.__towrite
                0x000000009d02ce3c       0x44 /opt/microchip/xc32/v4.60/bin/bin/../../lib/gcc/pic32mx/8.3.1/../../../../pic32mx/lib/libc-musl.a(__towrite.o)
                0x000000009d02ce3c                __towrite

.text._get_heap_left_space
                0x000000009d02ce80       0x44
 .text._get_heap_left_space
                0x000000009d02ce80       0x44 /opt/microchip/xc32/v4.60/bin/bin/../../lib/gcc/pic32mx/8.3.1/../../../../pic32mx/lib/libpic32.a(sbrk.o)
                0x000000009d02ce80                _get_heap_left_space

.rodata         0x000000009d02cec4       0x40
 .rodata        0x000000009d02cec4       0x40 build/default/production/_ext/1033058136/tcpip_helpers.o

.rodata.str1.4  0x000000009d02cf04       0x40
 .rodata.str1.4
                0x000000009d02cf04       0x40 build/default/production/_ext/1171490990/tasks.o

.text.__expand_heap
                0x000000009d02cf44       0x3c
 .text.__expand_heap
                0x000000009d02cf44       0x3c /opt/microchip/xc32/v4.60/bin/bin/../../lib/gcc/pic32mx/8.3.1/../../../../pic32mx/lib/libc-musl.a(expand_heap.o)
                0x000000009d02cf44                __expand_heap

.text.__towrite_rw
                0x000000009d02cf80       0x3c
 .text.__towrite_rw
                0x000000009d02cf80       0x3c /opt/microchip/xc32/v4.60/bin/bin/../../lib/gcc/pic32mx/8.3.1/../../../../pic32mx/lib/libc-musl.a(__towrite_rw.o)
                0x000000009d02cf80                __towrite_rw_needed
                0x000000009d02cf80                __towrite_rw

.text.vfprintf  0x000000009d02cfbc       0x3c
 .text.vfprintf
                0x000000009d02cfbc       0x3c /opt/microchip/xc32/v4.60/bin/bin/../../lib/gcc/pic32mx/8.3.1/../../../../pic32mx/lib/libc-musl.a(vfprintf.o)
                0x000000009d02cfbc                vfprintf

.text           0x000000009d02cff8       0x78
 .text          0x000000009d02cff8       0x3c /opt/microchip/xc32/v4.60/bin/bin/../../lib/gcc/pic32mx/8.3.1/libgcc.a(_lshrdi3.o)
                0x000000009d02cff8                __lshrdi3
 .text          0x000000009d02d034       0x3c /opt/microchip/xc32/v4.60/bin/bin/../../lib/gcc/pic32mx/8.3.1/libgcc.a(_ashldi3.o)
                0x000000009d02d034                __ashldi3

.text           0x000000009d02d070       0x38
 .text          0x000000009d02d070       0x38 build/default/production/_ext/163028504/xc32_monitor.o
                0x000000009d02d070                read
                0x000000009d02d078                write

.text.memcmp    0x000000009d02d0a8       0x38
 .text.memcmp   0x000000009d02d0a8       0x38 /opt/microchip/xc32/v4.60/bin/bin/../../lib/gcc/pic32mx/8.3.1/../../../../pic32mx/lib/libc-size-musl.a(memcmp.o)
                0x000000009d02d0a8                memcmp

.text.strrchr   0x000000009d02d0e0       0x38
 .text.strrchr  0x000000009d02d0e0       0x38 /opt/microchip/xc32/v4.60/bin/bin/../../lib/gcc/pic32mx/8.3.1/../../../../pic32mx/lib/libc-size-musl.a(strrchr.o)
                0x000000009d02d0e0                strrchr

.text.strchr    0x000000009d02d118       0x34
 .text.strchr   0x000000009d02d118       0x34 /opt/microchip/xc32/v4.60/bin/bin/../../lib/gcc/pic32mx/8.3.1/../../../../pic32mx/lib/libc-size-musl.a(strchr.o)
                0x000000009d02d118                strchr

.text.__fwrite  0x000000009d02d14c       0x34
 .text.__fwrite
                0x000000009d02d14c       0x34 /opt/microchip/xc32/v4.60/bin/bin/../../lib/gcc/pic32mx/8.3.1/../../../../pic32mx/lib/libc-musl.a(__fwrite.o)
                0x000000009d02d14c                __fwrite_needed
                0x000000009d02d14c                __fwrite

.rodata         0x000000009d02d180       0x30
 .rodata        0x000000009d02d180       0x30 build/default/production/_ext/1832805299/sys_console_uart.o
                0x000000009d02d180                sysConsoleUARTDevDesc

.text.strlen    0x000000009d02d1b0       0x30
 .text.strlen   0x000000009d02d1b0       0x30 /opt/microchip/xc32/v4.60/bin/bin/../../lib/gcc/pic32mx/8.3.1/../../../../pic32mx/lib/libc-size-musl.a(strlen.o)
                0x000000009d02d1b0                strlen

.text.memcpy    0x000000009d02d1e0       0x2c
 .text.memcpy   0x000000009d02d1e0       0x2c /opt/microchip/xc32/v4.60/bin/bin/../../lib/gcc/pic32mx/8.3.1/../../../../pic32mx/lib/libc-size-musl.a(memcpy.o)
                0x000000009d02d1e0                memcpy

.text.strcmp    0x000000009d02d20c       0x2c
 .text.strcmp   0x000000009d02d20c       0x2c /opt/microchip/xc32/v4.60/bin/bin/../../lib/gcc/pic32mx/8.3.1/../../../../pic32mx/lib/libc-size-musl.a(strcmp.o)
                0x000000009d02d20c                strcmp

.text.strtoul   0x000000009d02d238       0x2c
 .text.strtoul  0x000000009d02d238       0x2c /opt/microchip/xc32/v4.60/bin/bin/../../lib/gcc/pic32mx/8.3.1/../../../../pic32mx/lib/libc-musl.a(strtol.o)
                0x000000009d02d238                __strtoul_internal
                0x000000009d02d238                strtoul

.text.strtol    0x000000009d02d264       0x2c
 .text.strtol   0x000000009d02d264       0x2c /opt/microchip/xc32/v4.60/bin/bin/../../lib/gcc/pic32mx/8.3.1/../../../../pic32mx/lib/libc-musl.a(strtol.o)
                0x000000009d02d264                __strtol_internal
                0x000000009d02d264                strtol

.text.__shlim   0x000000009d02d290       0x2c
 .text.__shlim  0x000000009d02d290       0x2c /opt/microchip/xc32/v4.60/bin/bin/../../lib/gcc/pic32mx/8.3.1/../../../../pic32mx/lib/libc-musl.a(shgetc.o)
                0x000000009d02d290                __shlim

.text._stub_sbd_memlayout
                0x000000009d02d2bc       0x2c
 .text._stub_sbd_memlayout
                0x000000009d02d2bc       0x2c /opt/microchip/xc32/v4.60/bin/bin/../../lib/gcc/pic32mx/8.3.1/../../../../pic32mx/lib/libpic32.a(sbrk.o)
                0x000000009d02d2bc                _stub_sbd_memlayout
                0x000000009d02d2bc                _sbd_memlayout

.rodata.str1.4  0x000000009d02d2e8       0x28
 .rodata.str1.4
                0x000000009d02d2e8       0x28 build/default/production/_ext/732082881/drv_ethmac.o

.text.memset    0x000000009d02d310       0x28
 .text.memset   0x000000009d02d310       0x28 /opt/microchip/xc32/v4.60/bin/bin/../../lib/gcc/pic32mx/8.3.1/../../../../pic32mx/lib/libc-size-musl.a(memset.o)
                0x000000009d02d310                memset

.text.strcpy    0x000000009d02d338       0x28
 .text.strcpy   0x000000009d02d338       0x28 /opt/microchip/xc32/v4.60/bin/bin/../../lib/gcc/pic32mx/8.3.1/../../../../pic32mx/lib/libc-size-musl.a(strcpy.o)
                0x000000009d02d338                strcpy

.text.strncpy   0x000000009d02d360       0x28
 .text.strncpy  0x000000009d02d360       0x28 /opt/microchip/xc32/v4.60/bin/bin/../../lib/gcc/pic32mx/8.3.1/../../../../pic32mx/lib/libc-size-musl.a(strncpy.o)
                0x000000009d02d360                strncpy

.text.__memrchr
                0x000000009d02d388       0x28
 .text.__memrchr
                0x000000009d02d388       0x28 /opt/microchip/xc32/v4.60/bin/bin/../../lib/gcc/pic32mx/8.3.1/../../../../pic32mx/lib/libc-size-musl.a(memrchr.o)
                0x000000009d02d388                __memrchr
                0x000000009d02d388                memrchr

.text.stpcpy    0x000000009d02d3b0       0x28
 .text.stpcpy   0x000000009d02d3b0       0x28 /opt/microchip/xc32/v4.60/bin/bin/../../lib/gcc/pic32mx/8.3.1/../../../../pic32mx/lib/libc-size-musl.a(stpcpy.o)
                0x000000009d02d3b0                stpcpy
                0x000000009d02d3b0                __stpcpy

.text.__init_search_fl
                0x000000009d02d3d8       0x28
 .text.__init_search_fl
                0x000000009d02d3d8       0x28 /opt/microchip/xc32/v4.60/bin/bin/../../lib/gcc/pic32mx/8.3.1/../../../../pic32mx/lib/liblmalloc-musl.a(lite_free.o)
                0x000000009d02d3d8                __init_search_fl

.text.sprintf   0x000000009d02d400       0x28
 .text.sprintf  0x000000009d02d400       0x28 /opt/microchip/xc32/v4.60/bin/bin/../../lib/gcc/pic32mx/8.3.1/../../../../pic32mx/lib/libc-musl.a(sprintf.o)
                0x000000009d02d400                sprintf

.text.vsprintf  0x000000009d02d428       0x28
 .text.vsprintf
                0x000000009d02d428       0x28 /opt/microchip/xc32/v4.60/bin/bin/../../lib/gcc/pic32mx/8.3.1/../../../../pic32mx/lib/libc-musl.a(vsprintf.o)
                0x000000009d02d428                vsprintf

.rodata.cst8    0x000000009d02d450       0x28
 .rodata.cst8   0x000000009d02d450       0x28 /opt/microchip/xc32/v4.60/bin/bin/../../lib/gcc/pic32mx/8.3.1/../../../../pic32mx/lib/libc-musl.a(__fmt_a.o)

.rodata.str1.4  0x000000009d02d478       0x24
 .rodata.str1.4
                0x000000009d02d478       0x24 build/default/production/_ext/438849557/drv_miim.o

.rodata         0x000000009d02d49c       0x24
 .rodata        0x000000009d02d49c       0x24 build/default/production/_ext/1033058136/tcpip_heap_internal.o

.text.isalnum   0x000000009d02d4c0       0x24
 .text.isalnum  0x000000009d02d4c0       0x24 /opt/microchip/xc32/v4.60/bin/bin/../../lib/gcc/pic32mx/8.3.1/../../../../pic32mx/lib/libc-musl.a(isalnum.o)
                0x000000009d02d4c0                isalnum

.text.isxdigit  0x000000009d02d4e4       0x24
 .text.isxdigit
                0x000000009d02d4e4       0x24 /opt/microchip/xc32/v4.60/bin/bin/../../lib/gcc/pic32mx/8.3.1/../../../../pic32mx/lib/libc-musl.a(isxdigit.o)
                0x000000009d02d4e4                isxdigit

.text.rand      0x000000009d02d508       0x24
 .text.rand     0x000000009d02d508       0x24 /opt/microchip/xc32/v4.60/bin/bin/../../lib/gcc/pic32mx/8.3.1/../../../../pic32mx/lib/libc-musl.a(rand.o)
                0x000000009d02d508                rand

.text.setbuf    0x000000009d02d52c       0x24
 .text.setbuf   0x000000009d02d52c       0x24 /opt/microchip/xc32/v4.60/bin/bin/../../lib/gcc/pic32mx/8.3.1/../../../../pic32mx/lib/libc-musl.a(setbuf.o)
                0x000000009d02d52c                setbuf

.rodata.str1.4  0x000000009d02d550       0x20
 .rodata.str1.4
                0x000000009d02d550       0x20 build/default/production/_ext/1033058136/tcpip_packet.o

.text           0x000000009d02d570       0x20
 .text          0x000000009d02d570       0x20 build/default/production/_ext/1360937237/main.o
                0x000000009d02d570                main

.rodata         0x000000009d02d590       0x20
 .rodata        0x000000009d02d590       0x20 /opt/microchip/xc32/v4.60/bin/bin/../../lib/gcc/pic32mx/8.3.1/../../../../pic32mx/lib/libc-musl.a(qsort.o)

.text.__fwrite_min
                0x000000009d02d5b0       0x20
 .text.__fwrite_min
                0x000000009d02d5b0       0x20 /opt/microchip/xc32/v4.60/bin/bin/../../lib/gcc/pic32mx/8.3.1/../../../../pic32mx/lib/libc-musl.a(__out.o)
                0x000000009d02d5b0                __stdio_write
                0x000000009d02d5b0                __stdio_write_unbuffered

.rodata.cst8    0x000000009d02d5d0       0x40
 .rodata.cst8   0x000000009d02d5d0       0x20 /opt/microchip/xc32/v4.60/bin/bin/../../lib/gcc/pic32mx/8.3.1/../../../../pic32mx/lib/libc-musl.a(__fmt_fp.o)
 .rodata.cst8   0x000000009d02d5f0       0x20 /opt/microchip/xc32/v4.60/bin/bin/../../lib/gcc/pic32mx/8.3.1/../../../../pic32mx/lib/libm-musl.a(fma.o)

.text           0x000000009d02d610       0x3c
 .text          0x000000009d02d610       0x20 /opt/microchip/xc32/v4.60/bin/bin/../../lib/gcc/pic32mx/8.3.1/../../../../pic32mx/lib/libpic32.a(pic32_data_init_copy.o)
                0x000000009d02d610                __dinit_copy_needed
                0x000000009d02d610                __dinit_copy
 .text          0x000000009d02d630       0x1c build/default/production/_ext/60165520/plib_clk.o
                0x000000009d02d630                CLK_Initialize

.rodata         0x000000009d02d64c       0x1c
 .rodata        0x000000009d02d64c       0x1c build/default/production/_ext/1360937237/app.o

.text.tolower   0x000000009d02d668       0x1c
 .text.tolower  0x000000009d02d668       0x1c /opt/microchip/xc32/v4.60/bin/bin/../../lib/gcc/pic32mx/8.3.1/../../../../pic32mx/lib/libc-musl.a(tolower.o)
                0x000000009d02d668                tolower

.text.toupper   0x000000009d02d684       0x1c
 .text.toupper  0x000000009d02d684       0x1c /opt/microchip/xc32/v4.60/bin/bin/../../lib/gcc/pic32mx/8.3.1/../../../../pic32mx/lib/libc-musl.a(toupper.o)
                0x000000009d02d684                toupper

.MIPS.abiflags  0x000000009d02d6a0       0x18
 .MIPS.abiflags
                0x000000009d02d6a0       0x18 /opt/microchip/xc32/v4.60/bin/bin/../../lib/gcc/pic32mx/8.3.1/../../../../pic32mx/lib/debug-exception-return.o

.rodata         0x000000009d02d6b8       0x18
 .rodata        0x000000009d02d6b8       0x18 build/default/production/_ext/444070925/drv_extphy_lan8720.o
                0x000000009d02d6b8                DRV_ETHPHY_OBJECT_LAN8720

.text           0x000000009d02d6d0       0x18
 .text          0x000000009d02d6d0       0x18 /opt/microchip/xc32/v4.60/bin/bin/../../lib/gcc/pic32mx/8.3.1/../../../../pic32mx/lib/libpic32.a(default-nmi-handler.o)
                0x000000009d02d6d0                _nmi_handler

.rodata         0x000000009d02d6e8       0x18
 .rodata        0x000000009d02d6e8       0x18 /opt/microchip/xc32/v4.60/bin/bin/../../lib/gcc/pic32mx/8.3.1/../../../../pic32mx/lib/libc-musl.a(__printf_core.o)

.text           0x000000009d02d700       0x18
 .text          0x000000009d02d700       0x18 /opt/microchip/xc32/v4.60/bin/bin/../../lib/gcc/pic32mx/8.3.1/../../../../pic32mx/lib/libpic32.a(pic32_data_init_clear.o)
                0x000000009d02d700                __dinit_clear
                0x000000009d02d700                __dinit_clear_needed

.rodata         0x000000009d02d718       0x24
 .rodata        0x000000009d02d718       0x14 /opt/microchip/xc32/v4.60/bin/bin/../../lib/gcc/pic32mx/8.3.1/../../../../pic32mx/lib/libpic32.a(pic32_data_init_core.o)
 .rodata        0x000000009d02d72c       0x10 build/default/production/_ext/438849557/drv_miim_pic32m.o

.rodata.str1.4  0x000000009d02d73c       0x20
 .rodata.str1.4
                0x000000009d02d73c       0x10 /opt/microchip/xc32/v4.60/bin/bin/../../lib/gcc/pic32mx/8.3.1/../../../../pic32mx/lib/libc-musl.a(__fmt_a.o)
 .rodata.str1.4
                0x000000009d02d74c       0x10 /opt/microchip/xc32/v4.60/bin/bin/../../lib/gcc/pic32mx/8.3.1/../../../../pic32mx/lib/libc-musl.a(__fmt_fp.o)

.rodata.cst8    0x000000009d02d760       0x10
 .rodata.cst8   0x000000009d02d760       0x10 /opt/microchip/xc32/v4.60/bin/bin/../../lib/gcc/pic32mx/8.3.1/../../../../pic32mx/lib/libm-musl.a(scalbn.o)

.rodata.str1.4  0x000000009d02d770       0x14
 .rodata.str1.4
                0x000000009d02d770        0xc /opt/microchip/xc32/v4.60/bin/bin/../../lib/gcc/pic32mx/8.3.1/../../../../pic32mx/lib/libc-musl.a(__printf_core.o)
 .rodata.str1.4
                0x000000009d02d77c        0x8 build/default/production/_ext/404212886/FreeRTOS_tasks.o

.text._on_reset
                0x000000009d02d784        0x8
 .text._on_reset
                0x000000009d02d784        0x8 /opt/microchip/xc32/v4.60/bin/bin/../../lib/gcc/pic32mx/8.3.1/../../../../pic32mx/lib/libpic32.a(default-on-reset.o)
                0x000000009d02d784                _on_reset

.text._on_bootstrap
                0x000000009d02d78c        0x8
 .text._on_bootstrap
                0x000000009d02d78c        0x8 /opt/microchip/xc32/v4.60/bin/bin/../../lib/gcc/pic32mx/8.3.1/../../../../pic32mx/lib/libpic32.a(default-on-bootstrap.o)
                0x000000009d02d78c                _on_bootstrap

.text.__dummy   0x000000009d02d794       0x10
 .text.__dummy  0x000000009d02d794        0x8 /opt/microchip/xc32/v4.60/bin/bin/../../lib/gcc/pic32mx/8.3.1/../../../../pic32mx/lib/libc-musl.a(stdin.o)
                0x000000009d02d794                __stdio_seek_rw
 .text.__dummy  0x000000009d02d79c        0x8 /opt/microchip/xc32/v4.60/bin/bin/../../lib/gcc/pic32mx/8.3.1/../../../../pic32mx/lib/libc-musl.a(stdout.o)
                0x000000009d02d79c                __stdio_seek

.text.lseek     0x000000009d02d7a4        0x8
 .text.lseek    0x000000009d02d7a4        0x8 /opt/microchip/xc32/v4.60/bin/bin/../../lib/gcc/pic32mx/8.3.1/../../../../pic32mx/lib/libpic32.a(lseek.o)
                0x000000009d02d7a4                lseek

.text.close     0x000000009d02d7ac        0x8
 .text.close    0x000000009d02d7ac        0x8 /opt/microchip/xc32/v4.60/bin/bin/../../lib/gcc/pic32mx/8.3.1/../../../../pic32mx/lib/libpic32.a(close.o)
                0x000000009d02d7ac                close

.rodata         0x000000009d02d75c        0x4
 .rodata        0x000000009d02d75c        0x4 build/default/production/_ext/951553248/port.o
                0x000000009d02d75c                xISRStackTop
